
flash.img:     file format elf32-tradlittlemips


Disassembly of section .text:

80000000 <_wrs_kernel_text_start>:
80000000:	10000003 	b	80000010 <reset>
80000004:	00000000 	nop
	...

80000010 <reset>:
80000010:	40806800 	mtc0	zero,c0_cause
80000014:	40806000 	mtc0	zero,c0_status
80000018:	0c000009 	jal	80000024 <reset+0x14>
8000001c:	00000000 	nop
80000020:	800dec40 	lb	t5,-5056(zero)
80000024:	8ffc0000 	lw	gp,0(ra)
80000028:	3c1d8002 	lui	sp,0x8002
8000002c:	27bdb424 	addiu	sp,sp,-19420
80000030:	3c088002 	lui	t0,0x8002
80000034:	25089000 	addiu	t0,t0,-28672
80000038:	40887801 	mtc0	t0,$15,1
8000003c:	40086000 	mfc0	t0,c0_status
80000040:	3c09ffbf 	lui	t1,0xffbf
80000044:	3529ffff 	ori	t1,t1,0xffff
80000048:	01094024 	and	t0,t0,t1
8000004c:	40886000 	mtc0	t0,c0_status
80000050:	3c08800d 	lui	t0,0x800d
80000054:	25086c50 	addiu	t0,t0,27728
80000058:	3c09800e 	lui	t1,0x800e
8000005c:	2529a9d0 	addiu	t1,t1,-22064
80000060:	ad000000 	sw	zero,0(t0)
80000064:	25080004 	addiu	t0,t0,4
80000068:	0109582a 	slt	t3,t0,t1
8000006c:	1d60fffc 	bgtz	t3,80000060 <reset+0x50>
80000070:	00000000 	nop
80000074:	27bdfff0 	addiu	sp,sp,-16
80000078:	3c198000 	lui	t9,0x8000
8000007c:	273900bc 	addiu	t9,t9,188
80000080:	0320f809 	jalr	t9
80000084:	00000000 	nop
80000088:	0401ffff 	b	80000088 <reset+0x78>
8000008c:	00000000 	nop

80000090 <romExcHandle_280>:
80000090:	1000ffff 	b	80000090 <romExcHandle_280>
80000094:	00000000 	nop

80000098 <romExcHandle_300>:
80000098:	1000ffff 	b	80000098 <romExcHandle_300>
8000009c:	00000000 	nop

800000a0 <setup_exception_vector>:
800000a0:	3c058002 	lui	a1,0x8002
800000a4:	3c068002 	lui	a2,0x8002
800000a8:	24a59000 	addiu	a1,a1,-28672
800000ac:	24c69400 	addiu	a2,a2,-27648
800000b0:	3c04bfc0 	lui	a0,0xbfc0
800000b4:	08000847 	j	8000211c <memcpy>
800000b8:	00c53023 	subu	a2,a2,a1

800000bc <kern_init>:
800000bc:	27bdffe8 	addiu	sp,sp,-24
800000c0:	afbf0014 	sw	ra,20(sp)
800000c4:	0c001ea4 	jal	80007a90 <tlb_invalidate_all>
800000c8:	00000000 	nop
800000cc:	0c000bac 	jal	80002eb0 <pic_init>
800000d0:	00000000 	nop
800000d4:	0c000a82 	jal	80002a08 <cons_init>
800000d8:	00000000 	nop
800000dc:	0c000a3f 	jal	800028fc <clock_init>
800000e0:	00000000 	nop
800000e4:	0c000bdd 	jal	80002f74 <check_initrd>
800000e8:	00000000 	nop
800000ec:	3c048001 	lui	a0,0x8001
800000f0:	0c000727 	jal	80001c9c <kprintf>
800000f4:	24844464 	addiu	a0,a0,17508
800000f8:	0c0008f4 	jal	800023d0 <print_kerninfo>
800000fc:	00000000 	nop
80000100:	0c001a7c 	jal	800069f0 <pmm_init>
80000104:	00000000 	nop
80000108:	0c002020 	jal	80008080 <vmm_init>
8000010c:	00000000 	nop
80000110:	0c002c30 	jal	8000b0c0 <sched_init>
80000114:	00000000 	nop
80000118:	0c002b0c 	jal	8000ac30 <proc_init>
8000011c:	00000000 	nop
80000120:	0c000b15 	jal	80002c54 <ide_init>
80000124:	00000000 	nop
80000128:	0c003306 	jal	8000cc18 <fs_init>
8000012c:	00000000 	nop
80000130:	0c000b77 	jal	80002ddc <intr_enable>
80000134:	00000000 	nop
80000138:	0c002b90 	jal	8000ae40 <cpu_idle>
8000013c:	00000000 	nop

80000140 <hash32>:
80000140:	00041a40 	sll	v1,a0,0x9
80000144:	00041180 	sll	v0,a0,0x6
80000148:	00621023 	subu	v0,v1,v0
8000014c:	00441023 	subu	v0,v0,a0
80000150:	000218c0 	sll	v1,v0,0x3
80000154:	00621023 	subu	v0,v1,v0
80000158:	000210c0 	sll	v0,v0,0x3
8000015c:	00441021 	addu	v0,v0,a0
80000160:	00021400 	sll	v0,v0,0x10
80000164:	00822023 	subu	a0,a0,v0
80000168:	00051023 	negu	v0,a1
8000016c:	03e00008 	jr	ra
80000170:	00441006 	srlv	v0,a0,v0

80000174 <printnum>:
80000174:	27bdffc0 	addiu	sp,sp,-64
80000178:	8fa20050 	lw	v0,80(sp)
8000017c:	2403000a 	li	v1,10
80000180:	afb50038 	sw	s5,56(sp)
80000184:	afb30030 	sw	s3,48(sp)
80000188:	afb2002c 	sw	s2,44(sp)
8000018c:	afb10028 	sw	s1,40(sp)
80000190:	afb00024 	sw	s0,36(sp)
80000194:	afbf003c 	sw	ra,60(sp)
80000198:	afb40034 	sw	s4,52(sp)
8000019c:	00808021 	move	s0,a0
800001a0:	00a08821 	move	s1,a1
800001a4:	8fb50054 	lw	s5,84(sp)
800001a8:	8fb30058 	lw	s3,88(sp)
800001ac:	10430023 	beq	v0,v1,8000023c <printnum+0xc8>
800001b0:	00c09021 	move	s2,a2
800001b4:	24030008 	li	v1,8
800001b8:	10430042 	beq	v0,v1,800002c4 <printnum+0x150>
800001bc:	30f40007 	andi	s4,a3,0x7
800001c0:	30f4000f 	andi	s4,a3,0xf
800001c4:	00071902 	srl	v1,a3,0x4
800001c8:	00e2382b 	sltu	a3,a3,v0
800001cc:	10e00033 	beqz	a3,8000029c <printnum+0x128>
800001d0:	26b5ffff 	addiu	s5,s5,-1
800001d4:	1aa0000a 	blez	s5,80000200 <printnum+0x8c>
800001d8:	3c028001 	lui	v0,0x8001
800001dc:	26b5ffff 	addiu	s5,s5,-1
800001e0:	02602021 	move	a0,s3
800001e4:	02402821 	move	a1,s2
800001e8:	0200f809 	jalr	s0
800001ec:	02203021 	move	a2,s1
800001f0:	16a0fffb 	bnez	s5,800001e0 <printnum+0x6c>
800001f4:	26b5ffff 	addiu	s5,s5,-1
800001f8:	26b50001 	addiu	s5,s5,1
800001fc:	3c028001 	lui	v0,0x8001
80000200:	24424484 	addiu	v0,v0,17540
80000204:	0282a021 	addu	s4,s4,v0
80000208:	92840000 	lbu	a0,0(s4)
8000020c:	02402821 	move	a1,s2
80000210:	02203021 	move	a2,s1
80000214:	0200c821 	move	t9,s0
80000218:	8fbf003c 	lw	ra,60(sp)
8000021c:	8fb50038 	lw	s5,56(sp)
80000220:	8fb40034 	lw	s4,52(sp)
80000224:	8fb30030 	lw	s3,48(sp)
80000228:	8fb2002c 	lw	s2,44(sp)
8000022c:	8fb10028 	lw	s1,40(sp)
80000230:	8fb00024 	lw	s0,36(sp)
80000234:	03200008 	jr	t9
80000238:	27bd0040 	addiu	sp,sp,64
8000023c:	00072042 	srl	a0,a3,0x1
80000240:	00071882 	srl	v1,a3,0x2
80000244:	00641821 	addu	v1,v1,a0
80000248:	00032102 	srl	a0,v1,0x4
8000024c:	00831821 	addu	v1,a0,v1
80000250:	00032202 	srl	a0,v1,0x8
80000254:	00831821 	addu	v1,a0,v1
80000258:	00032402 	srl	a0,v1,0x10
8000025c:	00831821 	addu	v1,a0,v1
80000260:	000320c2 	srl	a0,v1,0x3
80000264:	000428c0 	sll	a1,a0,0x3
80000268:	24e30006 	addiu	v1,a3,6
8000026c:	00651823 	subu	v1,v1,a1
80000270:	00042840 	sll	a1,a0,0x1
80000274:	00651823 	subu	v1,v1,a1
80000278:	00031902 	srl	v1,v1,0x4
8000027c:	00641821 	addu	v1,v1,a0
80000280:	0003a0c0 	sll	s4,v1,0x3
80000284:	00032040 	sll	a0,v1,0x1
80000288:	0284a021 	addu	s4,s4,a0
8000028c:	00f4a023 	subu	s4,a3,s4
80000290:	00e2382b 	sltu	a3,a3,v0
80000294:	14e0ffcf 	bnez	a3,800001d4 <printnum+0x60>
80000298:	26b5ffff 	addiu	s5,s5,-1
8000029c:	02002021 	move	a0,s0
800002a0:	02202821 	move	a1,s1
800002a4:	02403021 	move	a2,s2
800002a8:	00603821 	move	a3,v1
800002ac:	afa20010 	sw	v0,16(sp)
800002b0:	afb50014 	sw	s5,20(sp)
800002b4:	0c00005d 	jal	80000174 <printnum>
800002b8:	afb30018 	sw	s3,24(sp)
800002bc:	08000080 	j	80000200 <printnum+0x8c>
800002c0:	3c028001 	lui	v0,0x8001
800002c4:	08000072 	j	800001c8 <printnum+0x54>
800002c8:	000718c2 	srl	v1,a3,0x3

800002cc <sprintputch>:
800002cc:	8ca60008 	lw	a2,8(a1)
800002d0:	8ca20000 	lw	v0,0(a1)
800002d4:	8ca30004 	lw	v1,4(a1)
800002d8:	24c60001 	addiu	a2,a2,1
800002dc:	0043182b 	sltu	v1,v0,v1
800002e0:	10600004 	beqz	v1,800002f4 <sprintputch+0x28>
800002e4:	aca60008 	sw	a2,8(a1)
800002e8:	24430001 	addiu	v1,v0,1
800002ec:	a0440000 	sb	a0,0(v0)
800002f0:	aca30000 	sw	v1,0(a1)
800002f4:	03e00008 	jr	ra
800002f8:	00000000 	nop

800002fc <vprintfmt>:
800002fc:	27bdffa8 	addiu	sp,sp,-88
80000300:	afbe0050 	sw	s8,80(sp)
80000304:	afb7004c 	sw	s7,76(sp)
80000308:	afb50044 	sw	s5,68(sp)
8000030c:	3c178001 	lui	s7,0x8001
80000310:	3c1e8001 	lui	s8,0x8001
80000314:	8fb50068 	lw	s5,104(sp)
80000318:	afb3003c 	sw	s3,60(sp)
8000031c:	afb20038 	sw	s2,56(sp)
80000320:	afb10034 	sw	s1,52(sp)
80000324:	afb00030 	sw	s0,48(sp)
80000328:	afbf0054 	sw	ra,84(sp)
8000032c:	afb60048 	sw	s6,72(sp)
80000330:	afb40040 	sw	s4,64(sp)
80000334:	00809021 	move	s2,a0
80000338:	00a08821 	move	s1,a1
8000033c:	00c08021 	move	s0,a2
80000340:	00e09821 	move	s3,a3
80000344:	26f734fc 	addiu	s7,s7,13564
80000348:	27de3654 	addiu	s8,s8,13908
8000034c:	92640000 	lbu	a0,0(s3)
80000350:	24030025 	li	v1,37
80000354:	10830011 	beq	a0,v1,8000039c <vprintfmt+0xa0>
80000358:	26620001 	addiu	v0,s3,1
8000035c:	10800031 	beqz	a0,80000424 <vprintfmt+0x128>
80000360:	24130025 	li	s3,37
80000364:	080000de 	j	80000378 <vprintfmt+0x7c>
80000368:	afa20028 	sw	v0,40(sp)
8000036c:	1080002d 	beqz	a0,80000424 <vprintfmt+0x128>
80000370:	00000000 	nop
80000374:	afa20028 	sw	v0,40(sp)
80000378:	02002821 	move	a1,s0
8000037c:	0240f809 	jalr	s2
80000380:	02203021 	move	a2,s1
80000384:	8fa20028 	lw	v0,40(sp)
80000388:	00000000 	nop
8000038c:	90440000 	lbu	a0,0(v0)
80000390:	00000000 	nop
80000394:	1493fff5 	bne	a0,s3,8000036c <vprintfmt+0x70>
80000398:	24420001 	addiu	v0,v0,1
8000039c:	90440000 	lbu	a0,0(v0)
800003a0:	24160020 	li	s6,32
800003a4:	afa00020 	sw	zero,32(sp)
800003a8:	00003821 	move	a3,zero
800003ac:	2403ffff 	li	v1,-1
800003b0:	2414ffff 	li	s4,-1
800003b4:	2485ffdd 	addiu	a1,a0,-35
800003b8:	30a500ff 	andi	a1,a1,0xff
800003bc:	2ca60056 	sltiu	a2,a1,86
800003c0:	14c00024 	bnez	a2,80000454 <vprintfmt+0x158>
800003c4:	24530001 	addiu	s3,v0,1
800003c8:	24040025 	li	a0,37
800003cc:	afa20028 	sw	v0,40(sp)
800003d0:	02002821 	move	a1,s0
800003d4:	0240f809 	jalr	s2
800003d8:	02203021 	move	a2,s1
800003dc:	8fa20028 	lw	v0,40(sp)
800003e0:	24030025 	li	v1,37
800003e4:	9044ffff 	lbu	a0,-1(v0)
800003e8:	00000000 	nop
800003ec:	1083ffd7 	beq	a0,v1,8000034c <vprintfmt+0x50>
800003f0:	00409821 	move	s3,v0
800003f4:	2673ffff 	addiu	s3,s3,-1
800003f8:	9262ffff 	lbu	v0,-1(s3)
800003fc:	00000000 	nop
80000400:	1043ffd2 	beq	v0,v1,8000034c <vprintfmt+0x50>
80000404:	00000000 	nop
80000408:	2673ffff 	addiu	s3,s3,-1
8000040c:	9262ffff 	lbu	v0,-1(s3)
80000410:	00000000 	nop
80000414:	1443fff8 	bne	v0,v1,800003f8 <vprintfmt+0xfc>
80000418:	2673ffff 	addiu	s3,s3,-1
8000041c:	080000d3 	j	8000034c <vprintfmt+0x50>
80000420:	26730001 	addiu	s3,s3,1
80000424:	8fbf0054 	lw	ra,84(sp)
80000428:	8fbe0050 	lw	s8,80(sp)
8000042c:	8fb7004c 	lw	s7,76(sp)
80000430:	8fb60048 	lw	s6,72(sp)
80000434:	8fb50044 	lw	s5,68(sp)
80000438:	8fb40040 	lw	s4,64(sp)
8000043c:	8fb3003c 	lw	s3,60(sp)
80000440:	8fb20038 	lw	s2,56(sp)
80000444:	8fb10034 	lw	s1,52(sp)
80000448:	8fb00030 	lw	s0,48(sp)
8000044c:	03e00008 	jr	ra
80000450:	27bd0058 	addiu	sp,sp,88
80000454:	00052880 	sll	a1,a1,0x2
80000458:	02e52821 	addu	a1,s7,a1
8000045c:	8ca50000 	lw	a1,0(a1)
80000460:	00000000 	nop
80000464:	00a00008 	jr	a1
80000468:	00000000 	nop
8000046c:	90450001 	lbu	a1,1(v0)
80000470:	2483ffd0 	addiu	v1,a0,-48
80000474:	24a2ffd0 	addiu	v0,a1,-48
80000478:	2c42000a 	sltiu	v0,v0,10
8000047c:	104000d9 	beqz	v0,800007e4 <vprintfmt+0x4e8>
80000480:	00a02021 	move	a0,a1
80000484:	02601021 	move	v0,s3
80000488:	00032040 	sll	a0,v1,0x1
8000048c:	000318c0 	sll	v1,v1,0x3
80000490:	00831821 	addu	v1,a0,v1
80000494:	24420001 	addiu	v0,v0,1
80000498:	00651821 	addu	v1,v1,a1
8000049c:	90450000 	lbu	a1,0(v0)
800004a0:	2463ffd0 	addiu	v1,v1,-48
800004a4:	24a6ffd0 	addiu	a2,a1,-48
800004a8:	2cc6000a 	sltiu	a2,a2,10
800004ac:	14c0fff6 	bnez	a2,80000488 <vprintfmt+0x18c>
800004b0:	00a02021 	move	a0,a1
800004b4:	0681ffc0 	bgez	s4,800003b8 <vprintfmt+0xbc>
800004b8:	2485ffdd 	addiu	a1,a0,-35
800004bc:	0060a021 	move	s4,v1
800004c0:	080000ee 	j	800003b8 <vprintfmt+0xbc>
800004c4:	2403ffff 	li	v1,-1
800004c8:	8ea40000 	lw	a0,0(s5)
800004cc:	02002821 	move	a1,s0
800004d0:	02203021 	move	a2,s1
800004d4:	0240f809 	jalr	s2
800004d8:	26b50004 	addiu	s5,s5,4
800004dc:	080000d3 	j	8000034c <vprintfmt+0x50>
800004e0:	00000000 	nop
800004e4:	28e20002 	slti	v0,a3,2
800004e8:	144000b5 	bnez	v0,800007c0 <vprintfmt+0x4c4>
800004ec:	2402fff8 	li	v0,-8
800004f0:	26b50007 	addiu	s5,s5,7
800004f4:	02a21024 	and	v0,s5,v0
800004f8:	24550008 	addiu	s5,v0,8
800004fc:	8c470000 	lw	a3,0(v0)
80000500:	8c420004 	lw	v0,4(v0)
80000504:	00000000 	nop
80000508:	044000a1 	bltz	v0,80000790 <vprintfmt+0x494>
8000050c:	00000000 	nop
80000510:	2402000a 	li	v0,10
80000514:	02402021 	move	a0,s2
80000518:	02202821 	move	a1,s1
8000051c:	02003021 	move	a2,s0
80000520:	afa20010 	sw	v0,16(sp)
80000524:	afb40014 	sw	s4,20(sp)
80000528:	0c00005d 	jal	80000174 <printnum>
8000052c:	afb60018 	sw	s6,24(sp)
80000530:	080000d3 	j	8000034c <vprintfmt+0x50>
80000534:	00000000 	nop
80000538:	8ea20000 	lw	v0,0(s5)
8000053c:	00000000 	nop
80000540:	044000a6 	bltz	v0,800007dc <vprintfmt+0x4e0>
80000544:	26b50004 	addiu	s5,s5,4
80000548:	28430019 	slti	v1,v0,25
8000054c:	02402021 	move	a0,s2
80000550:	02202821 	move	a1,s1
80000554:	10600084 	beqz	v1,80000768 <vprintfmt+0x46c>
80000558:	02003021 	move	a2,s0
8000055c:	00021880 	sll	v1,v0,0x2
80000560:	007e1821 	addu	v1,v1,s8
80000564:	8c630000 	lw	v1,0(v1)
80000568:	00000000 	nop
8000056c:	1060007f 	beqz	v1,8000076c <vprintfmt+0x470>
80000570:	3c078001 	lui	a3,0x8001
80000574:	3c028001 	lui	v0,0x8001
80000578:	244744ac 	addiu	a3,v0,17580
8000057c:	0c0001fb 	jal	800007ec <printfmt>
80000580:	afa30010 	sw	v1,16(sp)
80000584:	080000d3 	j	8000034c <vprintfmt+0x50>
80000588:	00000000 	nop
8000058c:	90440001 	lbu	a0,1(v0)
80000590:	24e70001 	addiu	a3,a3,1
80000594:	080000ed 	j	800003b4 <vprintfmt+0xb8>
80000598:	02601021 	move	v0,s3
8000059c:	24040030 	li	a0,48
800005a0:	02002821 	move	a1,s0
800005a4:	0240f809 	jalr	s2
800005a8:	02203021 	move	a2,s1
800005ac:	24040078 	li	a0,120
800005b0:	02002821 	move	a1,s0
800005b4:	0240f809 	jalr	s2
800005b8:	02203021 	move	a2,s1
800005bc:	8ea70000 	lw	a3,0(s5)
800005c0:	24020010 	li	v0,16
800005c4:	08000145 	j	80000514 <vprintfmt+0x218>
800005c8:	26b50004 	addiu	s5,s5,4
800005cc:	8ea20000 	lw	v0,0(s5)
800005d0:	26b50004 	addiu	s5,s5,4
800005d4:	1040006a 	beqz	v0,80000780 <vprintfmt+0x484>
800005d8:	afa20024 	sw	v0,36(sp)
800005dc:	1a800013 	blez	s4,8000062c <vprintfmt+0x330>
800005e0:	2402002d 	li	v0,45
800005e4:	12c20011 	beq	s6,v0,8000062c <vprintfmt+0x330>
800005e8:	00602821 	move	a1,v1
800005ec:	8fa40024 	lw	a0,36(sp)
800005f0:	0c0007bf 	jal	80001efc <strnlen>
800005f4:	afa30028 	sw	v1,40(sp)
800005f8:	0282a023 	subu	s4,s4,v0
800005fc:	8fa30028 	lw	v1,40(sp)
80000600:	1a80000a 	blez	s4,8000062c <vprintfmt+0x330>
80000604:	00000000 	nop
80000608:	afa30028 	sw	v1,40(sp)
8000060c:	02c02021 	move	a0,s6
80000610:	02002821 	move	a1,s0
80000614:	02203021 	move	a2,s1
80000618:	0240f809 	jalr	s2
8000061c:	2694ffff 	addiu	s4,s4,-1
80000620:	8fa30028 	lw	v1,40(sp)
80000624:	1680fff8 	bnez	s4,80000608 <vprintfmt+0x30c>
80000628:	00000000 	nop
8000062c:	8fa20024 	lw	v0,36(sp)
80000630:	00000000 	nop
80000634:	90440000 	lbu	a0,0(v0)
80000638:	00000000 	nop
8000063c:	10800017 	beqz	a0,8000069c <vprintfmt+0x3a0>
80000640:	00000000 	nop
80000644:	24560001 	addiu	s6,v0,1
80000648:	04600004 	bltz	v1,8000065c <vprintfmt+0x360>
8000064c:	2402ffff 	li	v0,-1
80000650:	2463ffff 	addiu	v1,v1,-1
80000654:	10620011 	beq	v1,v0,8000069c <vprintfmt+0x3a0>
80000658:	00000000 	nop
8000065c:	8fa20020 	lw	v0,32(sp)
80000660:	00000000 	nop
80000664:	10400004 	beqz	v0,80000678 <vprintfmt+0x37c>
80000668:	2482ffe0 	addiu	v0,a0,-32
8000066c:	2c42005f 	sltiu	v0,v0,95
80000670:	1040003b 	beqz	v0,80000760 <vprintfmt+0x464>
80000674:	00000000 	nop
80000678:	afa30028 	sw	v1,40(sp)
8000067c:	02002821 	move	a1,s0
80000680:	0240f809 	jalr	s2
80000684:	02203021 	move	a2,s1
80000688:	92c40000 	lbu	a0,0(s6)
8000068c:	8fa30028 	lw	v1,40(sp)
80000690:	2694ffff 	addiu	s4,s4,-1
80000694:	1480ffec 	bnez	a0,80000648 <vprintfmt+0x34c>
80000698:	26d60001 	addiu	s6,s6,1
8000069c:	1a80ff2b 	blez	s4,8000034c <vprintfmt+0x50>
800006a0:	2694ffff 	addiu	s4,s4,-1
800006a4:	24040020 	li	a0,32
800006a8:	02002821 	move	a1,s0
800006ac:	0240f809 	jalr	s2
800006b0:	02203021 	move	a2,s1
800006b4:	1680fffb 	bnez	s4,800006a4 <vprintfmt+0x3a8>
800006b8:	2694ffff 	addiu	s4,s4,-1
800006bc:	080000d3 	j	8000034c <vprintfmt+0x50>
800006c0:	26940001 	addiu	s4,s4,1
800006c4:	28e20002 	slti	v0,a3,2
800006c8:	14400039 	bnez	v0,800007b0 <vprintfmt+0x4b4>
800006cc:	00000000 	nop
800006d0:	26b50007 	addiu	s5,s5,7
800006d4:	2402fff8 	li	v0,-8
800006d8:	02a21024 	and	v0,s5,v0
800006dc:	24550008 	addiu	s5,v0,8
800006e0:	8c470000 	lw	a3,0(v0)
800006e4:	08000145 	j	80000514 <vprintfmt+0x218>
800006e8:	24020010 	li	v0,16
800006ec:	90440001 	lbu	a0,1(v0)
800006f0:	24020001 	li	v0,1
800006f4:	afa20020 	sw	v0,32(sp)
800006f8:	080000ed 	j	800003b4 <vprintfmt+0xb8>
800006fc:	02601021 	move	v0,s3
80000700:	02002821 	move	a1,s0
80000704:	0240f809 	jalr	s2
80000708:	02203021 	move	a2,s1
8000070c:	080000d3 	j	8000034c <vprintfmt+0x50>
80000710:	00000000 	nop
80000714:	8ea30000 	lw	v1,0(s5)
80000718:	90440001 	lbu	a0,1(v0)
8000071c:	26b50004 	addiu	s5,s5,4
80000720:	0800012d 	j	800004b4 <vprintfmt+0x1b8>
80000724:	02601021 	move	v0,s3
80000728:	90440001 	lbu	a0,1(v0)
8000072c:	2416002d 	li	s6,45
80000730:	080000ed 	j	800003b4 <vprintfmt+0xb8>
80000734:	02601021 	move	v0,s3
80000738:	90440001 	lbu	a0,1(v0)
8000073c:	0681ffee 	bgez	s4,800006f8 <vprintfmt+0x3fc>
80000740:	00000000 	nop
80000744:	0000a021 	move	s4,zero
80000748:	080000ed 	j	800003b4 <vprintfmt+0xb8>
8000074c:	02601021 	move	v0,s3
80000750:	90440001 	lbu	a0,1(v0)
80000754:	24160030 	li	s6,48
80000758:	080000ed 	j	800003b4 <vprintfmt+0xb8>
8000075c:	02601021 	move	v0,s3
80000760:	0800019e 	j	80000678 <vprintfmt+0x37c>
80000764:	2404003f 	li	a0,63
80000768:	3c078001 	lui	a3,0x8001
8000076c:	24e744a0 	addiu	a3,a3,17568
80000770:	0c0001fb 	jal	800007ec <printfmt>
80000774:	afa20010 	sw	v0,16(sp)
80000778:	080000d3 	j	8000034c <vprintfmt+0x50>
8000077c:	00000000 	nop
80000780:	3c028001 	lui	v0,0x8001
80000784:	24424498 	addiu	v0,v0,17560
80000788:	08000177 	j	800005dc <vprintfmt+0x2e0>
8000078c:	afa20024 	sw	v0,36(sp)
80000790:	afa70028 	sw	a3,40(sp)
80000794:	2404002d 	li	a0,45
80000798:	02002821 	move	a1,s0
8000079c:	0240f809 	jalr	s2
800007a0:	02203021 	move	a2,s1
800007a4:	8fa70028 	lw	a3,40(sp)
800007a8:	08000144 	j	80000510 <vprintfmt+0x214>
800007ac:	00073823 	negu	a3,a3
800007b0:	8ea70000 	lw	a3,0(s5)
800007b4:	24020010 	li	v0,16
800007b8:	08000145 	j	80000514 <vprintfmt+0x218>
800007bc:	26b50004 	addiu	s5,s5,4
800007c0:	8ea70000 	lw	a3,0(s5)
800007c4:	00000000 	nop
800007c8:	000717c3 	sra	v0,a3,0x1f
800007cc:	0441ff50 	bgez	v0,80000510 <vprintfmt+0x214>
800007d0:	26b50004 	addiu	s5,s5,4
800007d4:	080001e5 	j	80000794 <vprintfmt+0x498>
800007d8:	afa70028 	sw	a3,40(sp)
800007dc:	08000152 	j	80000548 <vprintfmt+0x24c>
800007e0:	00021023 	negu	v0,v0
800007e4:	0800012d 	j	800004b4 <vprintfmt+0x1b8>
800007e8:	02601021 	move	v0,s3

800007ec <printfmt>:
800007ec:	27bdffd8 	addiu	sp,sp,-40
800007f0:	27a20038 	addiu	v0,sp,56
800007f4:	afbf0024 	sw	ra,36(sp)
800007f8:	afa20018 	sw	v0,24(sp)
800007fc:	0c0000bf 	jal	800002fc <vprintfmt>
80000800:	afa20010 	sw	v0,16(sp)
80000804:	8fbf0024 	lw	ra,36(sp)
80000808:	00000000 	nop
8000080c:	03e00008 	jr	ra
80000810:	27bd0028 	addiu	sp,sp,40

80000814 <vsnprintf>:
80000814:	24a5ffff 	addiu	a1,a1,-1
80000818:	27bdffd0 	addiu	sp,sp,-48
8000081c:	00852821 	addu	a1,a0,a1
80000820:	afbf002c 	sw	ra,44(sp)
80000824:	00c01821 	move	v1,a2
80000828:	00e01021 	move	v0,a3
8000082c:	afa40018 	sw	a0,24(sp)
80000830:	afa5001c 	sw	a1,28(sp)
80000834:	10800013 	beqz	a0,80000884 <vsnprintf+0x70>
80000838:	afa00020 	sw	zero,32(sp)
8000083c:	00a4202b 	sltu	a0,a1,a0
80000840:	14800010 	bnez	a0,80000884 <vsnprintf+0x70>
80000844:	3c048000 	lui	a0,0x8000
80000848:	3c05ffff 	lui	a1,0xffff
8000084c:	248402cc 	addiu	a0,a0,716
80000850:	24a56ad9 	addiu	a1,a1,27353
80000854:	27a60018 	addiu	a2,sp,24
80000858:	00603821 	move	a3,v1
8000085c:	0c0000bf 	jal	800002fc <vprintfmt>
80000860:	afa20010 	sw	v0,16(sp)
80000864:	8fa20018 	lw	v0,24(sp)
80000868:	00000000 	nop
8000086c:	a0400000 	sb	zero,0(v0)
80000870:	8fa20020 	lw	v0,32(sp)
80000874:	8fbf002c 	lw	ra,44(sp)
80000878:	00000000 	nop
8000087c:	03e00008 	jr	ra
80000880:	27bd0030 	addiu	sp,sp,48
80000884:	0800021d 	j	80000874 <vsnprintf+0x60>
80000888:	2402fffd 	li	v0,-3

8000088c <snprintf>:
8000088c:	27bdffe0 	addiu	sp,sp,-32
80000890:	27a2002c 	addiu	v0,sp,44
80000894:	afa7002c 	sw	a3,44(sp)
80000898:	00403821 	move	a3,v0
8000089c:	afbf001c 	sw	ra,28(sp)
800008a0:	0c000205 	jal	80000814 <vsnprintf>
800008a4:	afa20010 	sw	v0,16(sp)
800008a8:	8fbf001c 	lw	ra,28(sp)
800008ac:	00000000 	nop
800008b0:	03e00008 	jr	ra
800008b4:	27bd0020 	addiu	sp,sp,32

800008b8 <rand>:
800008b8:	3c038002 	lui	v1,0x8002
800008bc:	8c649400 	lw	a0,-27648(v1)
800008c0:	3c02deec 	lui	v0,0xdeec
800008c4:	3442e66d 	ori	v0,v0,0xe66d
800008c8:	00820018 	mult	a0,v0
800008cc:	3c040001 	lui	a0,0x1
800008d0:	3484ffff 	ori	a0,a0,0xffff
800008d4:	00001012 	mflo	v0
800008d8:	2442000b 	addiu	v0,v0,11
800008dc:	00441024 	and	v0,v0,a0
800008e0:	ac629400 	sw	v0,-27648(v1)
800008e4:	03e00008 	jr	ra
800008e8:	00021302 	srl	v0,v0,0xc

800008ec <srand>:
800008ec:	3c028002 	lui	v0,0x8002
800008f0:	03e00008 	jr	ra
800008f4:	ac449400 	sw	a0,-27648(v0)

800008f8 <check_compare1>:
800008f8:	8c82fffc 	lw	v0,-4(a0)
800008fc:	8ca3fffc 	lw	v1,-4(a1)
80000900:	03e00008 	jr	ra
80000904:	00431023 	subu	v0,v0,v1

80000908 <check_compare2>:
80000908:	8c82fffc 	lw	v0,-4(a0)
8000090c:	03e00008 	jr	ra
80000910:	00451023 	subu	v0,v0,a1

80000914 <rb_left_rotate>:
80000914:	8c820008 	lw	v0,8(a0)
80000918:	27bdffe8 	addiu	sp,sp,-24
8000091c:	afbf0014 	sw	ra,20(sp)
80000920:	8c840004 	lw	a0,4(a0)
80000924:	8ca3000c 	lw	v1,12(a1)
80000928:	1045001e 	beq	v0,a1,800009a4 <rb_left_rotate+0x90>
8000092c:	00000000 	nop
80000930:	10a4001c 	beq	a1,a0,800009a4 <rb_left_rotate+0x90>
80000934:	00000000 	nop
80000938:	1064001a 	beq	v1,a0,800009a4 <rb_left_rotate+0x90>
8000093c:	00000000 	nop
80000940:	8c620008 	lw	v0,8(v1)
80000944:	00000000 	nop
80000948:	10820002 	beq	a0,v0,80000954 <rb_left_rotate+0x40>
8000094c:	aca2000c 	sw	v0,12(a1)
80000950:	ac450004 	sw	a1,4(v0)
80000954:	8ca20004 	lw	v0,4(a1)
80000958:	00000000 	nop
8000095c:	ac620004 	sw	v0,4(v1)
80000960:	8ca20004 	lw	v0,4(a1)
80000964:	00000000 	nop
80000968:	8c460008 	lw	a2,8(v0)
8000096c:	00000000 	nop
80000970:	10c5000a 	beq	a2,a1,8000099c <rb_left_rotate+0x88>
80000974:	00000000 	nop
80000978:	ac43000c 	sw	v1,12(v0)
8000097c:	8c820000 	lw	v0,0(a0)
80000980:	ac650008 	sw	a1,8(v1)
80000984:	1440000d 	bnez	v0,800009bc <rb_left_rotate+0xa8>
80000988:	aca30004 	sw	v1,4(a1)
8000098c:	8fbf0014 	lw	ra,20(sp)
80000990:	00000000 	nop
80000994:	03e00008 	jr	ra
80000998:	27bd0018 	addiu	sp,sp,24
8000099c:	0800025f 	j	8000097c <rb_left_rotate+0x68>
800009a0:	ac430008 	sw	v1,8(v0)
800009a4:	3c048001 	lui	a0,0x8001
800009a8:	3c068001 	lui	a2,0x8001
800009ac:	2484465c 	addiu	a0,a0,18012
800009b0:	24050063 	li	a1,99
800009b4:	0c0009f2 	jal	800027c8 <__panic>
800009b8:	24c64670 	addiu	a2,a2,18032
800009bc:	3c048001 	lui	a0,0x8001
800009c0:	3c068001 	lui	a2,0x8001
800009c4:	2484465c 	addiu	a0,a0,18012
800009c8:	24050063 	li	a1,99
800009cc:	0c0009f2 	jal	800027c8 <__panic>
800009d0:	24c646ac 	addiu	a2,a2,18092

800009d4 <rb_right_rotate>:
800009d4:	8c820008 	lw	v0,8(a0)
800009d8:	27bdffe8 	addiu	sp,sp,-24
800009dc:	afbf0014 	sw	ra,20(sp)
800009e0:	8c840004 	lw	a0,4(a0)
800009e4:	8ca30008 	lw	v1,8(a1)
800009e8:	1045001e 	beq	v0,a1,80000a64 <rb_right_rotate+0x90>
800009ec:	00000000 	nop
800009f0:	10a4001c 	beq	a1,a0,80000a64 <rb_right_rotate+0x90>
800009f4:	00000000 	nop
800009f8:	1064001a 	beq	v1,a0,80000a64 <rb_right_rotate+0x90>
800009fc:	00000000 	nop
80000a00:	8c62000c 	lw	v0,12(v1)
80000a04:	00000000 	nop
80000a08:	10820002 	beq	a0,v0,80000a14 <rb_right_rotate+0x40>
80000a0c:	aca20008 	sw	v0,8(a1)
80000a10:	ac450004 	sw	a1,4(v0)
80000a14:	8ca20004 	lw	v0,4(a1)
80000a18:	00000000 	nop
80000a1c:	ac620004 	sw	v0,4(v1)
80000a20:	8ca20004 	lw	v0,4(a1)
80000a24:	00000000 	nop
80000a28:	8c46000c 	lw	a2,12(v0)
80000a2c:	00000000 	nop
80000a30:	10c5000a 	beq	a2,a1,80000a5c <rb_right_rotate+0x88>
80000a34:	00000000 	nop
80000a38:	ac430008 	sw	v1,8(v0)
80000a3c:	8c820000 	lw	v0,0(a0)
80000a40:	ac65000c 	sw	a1,12(v1)
80000a44:	1440000d 	bnez	v0,80000a7c <rb_right_rotate+0xa8>
80000a48:	aca30004 	sw	v1,4(a1)
80000a4c:	8fbf0014 	lw	ra,20(sp)
80000a50:	00000000 	nop
80000a54:	03e00008 	jr	ra
80000a58:	27bd0018 	addiu	sp,sp,24
80000a5c:	0800028f 	j	80000a3c <rb_right_rotate+0x68>
80000a60:	ac43000c 	sw	v1,12(v0)
80000a64:	3c048001 	lui	a0,0x8001
80000a68:	3c068001 	lui	a2,0x8001
80000a6c:	2484465c 	addiu	a0,a0,18012
80000a70:	24050064 	li	a1,100
80000a74:	0c0009f2 	jal	800027c8 <__panic>
80000a78:	24c64670 	addiu	a2,a2,18032
80000a7c:	3c048001 	lui	a0,0x8001
80000a80:	3c068001 	lui	a2,0x8001
80000a84:	2484465c 	addiu	a0,a0,18012
80000a88:	24050064 	li	a1,100
80000a8c:	0c0009f2 	jal	800027c8 <__panic>
80000a90:	24c646ac 	addiu	a2,a2,18092

80000a94 <check_safe_kmalloc>:
80000a94:	27bdffe8 	addiu	sp,sp,-24
80000a98:	afbf0014 	sw	ra,20(sp)
80000a9c:	0c001716 	jal	80005c58 <kmalloc>
80000aa0:	00000000 	nop
80000aa4:	10400005 	beqz	v0,80000abc <check_safe_kmalloc+0x28>
80000aa8:	3c048001 	lui	a0,0x8001
80000aac:	8fbf0014 	lw	ra,20(sp)
80000ab0:	00000000 	nop
80000ab4:	03e00008 	jr	ra
80000ab8:	27bd0018 	addiu	sp,sp,24
80000abc:	3c068001 	lui	a2,0x8001
80000ac0:	2484465c 	addiu	a0,a0,18012
80000ac4:	24050199 	li	a1,409
80000ac8:	0c0009f2 	jal	800027c8 <__panic>
80000acc:	24c646cc 	addiu	a2,a2,18124

80000ad0 <rb_tree_create>:
80000ad0:	27bdffe0 	addiu	sp,sp,-32
80000ad4:	afb00014 	sw	s0,20(sp)
80000ad8:	afbf001c 	sw	ra,28(sp)
80000adc:	afb10018 	sw	s1,24(sp)
80000ae0:	10800024 	beqz	a0,80000b74 <rb_tree_create+0xa4>
80000ae4:	00808021 	move	s0,a0
80000ae8:	0c001716 	jal	80005c58 <kmalloc>
80000aec:	2404000c 	li	a0,12
80000af0:	10400014 	beqz	v0,80000b44 <rb_tree_create+0x74>
80000af4:	00408821 	move	s1,v0
80000af8:	ac500000 	sw	s0,0(v0)
80000afc:	0c001716 	jal	80005c58 <kmalloc>
80000b00:	24040010 	li	a0,16
80000b04:	10400017 	beqz	v0,80000b64 <rb_tree_create+0x94>
80000b08:	00408021 	move	s0,v0
80000b0c:	ac42000c 	sw	v0,12(v0)
80000b10:	ac420008 	sw	v0,8(v0)
80000b14:	ac420004 	sw	v0,4(v0)
80000b18:	ac400000 	sw	zero,0(v0)
80000b1c:	24040010 	li	a0,16
80000b20:	0c001716 	jal	80005c58 <kmalloc>
80000b24:	ae220004 	sw	v0,4(s1)
80000b28:	1040000c 	beqz	v0,80000b5c <rb_tree_create+0x8c>
80000b2c:	00000000 	nop
80000b30:	ac50000c 	sw	s0,12(v0)
80000b34:	ac500008 	sw	s0,8(v0)
80000b38:	ac500004 	sw	s0,4(v0)
80000b3c:	ac400000 	sw	zero,0(v0)
80000b40:	ae220008 	sw	v0,8(s1)
80000b44:	8fbf001c 	lw	ra,28(sp)
80000b48:	02201021 	move	v0,s1
80000b4c:	8fb00014 	lw	s0,20(sp)
80000b50:	8fb10018 	lw	s1,24(sp)
80000b54:	03e00008 	jr	ra
80000b58:	27bd0020 	addiu	sp,sp,32
80000b5c:	0c001740 	jal	80005d00 <kfree>
80000b60:	02002021 	move	a0,s0
80000b64:	0c001740 	jal	80005d00 <kfree>
80000b68:	02202021 	move	a0,s1
80000b6c:	080002d1 	j	80000b44 <rb_tree_create+0x74>
80000b70:	00008821 	move	s1,zero
80000b74:	3c048001 	lui	a0,0x8001
80000b78:	3c068001 	lui	a2,0x8001
80000b7c:	2484465c 	addiu	a0,a0,18012
80000b80:	2405001e 	li	a1,30
80000b84:	0c0009f2 	jal	800027c8 <__panic>
80000b88:	24c646ec 	addiu	a2,a2,18156

80000b8c <rb_insert>:
80000b8c:	27bdffd8 	addiu	sp,sp,-40
80000b90:	afb40020 	sw	s4,32(sp)
80000b94:	8c940004 	lw	s4,4(a0)
80000b98:	afb00010 	sw	s0,16(sp)
80000b9c:	8c900008 	lw	s0,8(a0)
80000ba0:	afb3001c 	sw	s3,28(sp)
80000ba4:	afb20018 	sw	s2,24(sp)
80000ba8:	afb10014 	sw	s1,20(sp)
80000bac:	afbf0024 	sw	ra,36(sp)
80000bb0:	acb40008 	sw	s4,8(a1)
80000bb4:	8e110008 	lw	s1,8(s0)
80000bb8:	00809021 	move	s2,a0
80000bbc:	00a09821 	move	s3,a1
80000bc0:	1291007c 	beq	s4,s1,80000db4 <rb_insert+0x228>
80000bc4:	acb4000c 	sw	s4,12(a1)
80000bc8:	8e420000 	lw	v0,0(s2)
80000bcc:	02202021 	move	a0,s1
80000bd0:	0040f809 	jalr	v0
80000bd4:	02602821 	move	a1,s3
80000bd8:	1840000c 	blez	v0,80000c0c <rb_insert+0x80>
80000bdc:	00000000 	nop
80000be0:	8e220008 	lw	v0,8(s1)
80000be4:	00000000 	nop
80000be8:	1282000c 	beq	s4,v0,80000c1c <rb_insert+0x90>
80000bec:	00000000 	nop
80000bf0:	00408821 	move	s1,v0
80000bf4:	8e420000 	lw	v0,0(s2)
80000bf8:	02202021 	move	a0,s1
80000bfc:	0040f809 	jalr	v0
80000c00:	02602821 	move	a1,s3
80000c04:	1c40fff6 	bgtz	v0,80000be0 <rb_insert+0x54>
80000c08:	00000000 	nop
80000c0c:	8e22000c 	lw	v0,12(s1)
80000c10:	00000000 	nop
80000c14:	1682fff6 	bne	s4,v0,80000bf0 <rb_insert+0x64>
80000c18:	00000000 	nop
80000c1c:	12110008 	beq	s0,s1,80000c40 <rb_insert+0xb4>
80000c20:	ae710004 	sw	s1,4(s3)
80000c24:	8e420000 	lw	v0,0(s2)
80000c28:	02202021 	move	a0,s1
80000c2c:	0040f809 	jalr	v0
80000c30:	02602821 	move	a1,s3
80000c34:	8e700004 	lw	s0,4(s3)
80000c38:	1840005c 	blez	v0,80000dac <rb_insert+0x220>
80000c3c:	00000000 	nop
80000c40:	ae330008 	sw	s3,8(s1)
80000c44:	24020001 	li	v0,1
80000c48:	ae620000 	sw	v0,0(s3)
80000c4c:	8e020000 	lw	v0,0(s0)
80000c50:	00000000 	nop
80000c54:	10400016 	beqz	v0,80000cb0 <rb_insert+0x124>
80000c58:	24110001 	li	s1,1
80000c5c:	8e050004 	lw	a1,4(s0)
80000c60:	00000000 	nop
80000c64:	8ca20008 	lw	v0,8(a1)
80000c68:	00000000 	nop
80000c6c:	10500030 	beq	v0,s0,80000d30 <rb_insert+0x1a4>
80000c70:	00000000 	nop
80000c74:	8c430000 	lw	v1,0(v0)
80000c78:	00000000 	nop
80000c7c:	10600021 	beqz	v1,80000d04 <rb_insert+0x178>
80000c80:	00000000 	nop
80000c84:	8e630004 	lw	v1,4(s3)
80000c88:	00a09821 	move	s3,a1
80000c8c:	8c630004 	lw	v1,4(v1)
80000c90:	ae000000 	sw	zero,0(s0)
80000c94:	8e700004 	lw	s0,4(s3)
80000c98:	ac400000 	sw	zero,0(v0)
80000c9c:	ac710000 	sw	s1,0(v1)
80000ca0:	8e020000 	lw	v0,0(s0)
80000ca4:	00000000 	nop
80000ca8:	1440ffec 	bnez	v0,80000c5c <rb_insert+0xd0>
80000cac:	00000000 	nop
80000cb0:	8e420008 	lw	v0,8(s2)
80000cb4:	8e430004 	lw	v1,4(s2)
80000cb8:	8c440008 	lw	a0,8(v0)
80000cbc:	00000000 	nop
80000cc0:	ac800000 	sw	zero,0(a0)
80000cc4:	8c630000 	lw	v1,0(v1)
80000cc8:	00000000 	nop
80000ccc:	14600044 	bnez	v1,80000de0 <rb_insert+0x254>
80000cd0:	00000000 	nop
80000cd4:	8c420000 	lw	v0,0(v0)
80000cd8:	00000000 	nop
80000cdc:	14400040 	bnez	v0,80000de0 <rb_insert+0x254>
80000ce0:	00000000 	nop
80000ce4:	8fbf0024 	lw	ra,36(sp)
80000ce8:	8fb40020 	lw	s4,32(sp)
80000cec:	8fb3001c 	lw	s3,28(sp)
80000cf0:	8fb20018 	lw	s2,24(sp)
80000cf4:	8fb10014 	lw	s1,20(sp)
80000cf8:	8fb00010 	lw	s0,16(sp)
80000cfc:	03e00008 	jr	ra
80000d00:	27bd0028 	addiu	sp,sp,40
80000d04:	8e020008 	lw	v0,8(s0)
80000d08:	00000000 	nop
80000d0c:	1053001f 	beq	v0,s3,80000d8c <rb_insert+0x200>
80000d10:	00000000 	nop
80000d14:	ae000000 	sw	zero,0(s0)
80000d18:	02402021 	move	a0,s2
80000d1c:	0c000245 	jal	80000914 <rb_left_rotate>
80000d20:	acb10000 	sw	s1,0(a1)
80000d24:	8e700004 	lw	s0,4(s3)
80000d28:	08000328 	j	80000ca0 <rb_insert+0x114>
80000d2c:	00000000 	nop
80000d30:	8ca3000c 	lw	v1,12(a1)
80000d34:	00000000 	nop
80000d38:	8c640000 	lw	a0,0(v1)
80000d3c:	00000000 	nop
80000d40:	10800007 	beqz	a0,80000d60 <rb_insert+0x1d4>
80000d44:	00000000 	nop
80000d48:	00a09821 	move	s3,a1
80000d4c:	ae000000 	sw	zero,0(s0)
80000d50:	ac600000 	sw	zero,0(v1)
80000d54:	8e700004 	lw	s0,4(s3)
80000d58:	08000328 	j	80000ca0 <rb_insert+0x114>
80000d5c:	acb10000 	sw	s1,0(a1)
80000d60:	8e03000c 	lw	v1,12(s0)
80000d64:	00000000 	nop
80000d68:	10730015 	beq	v1,s3,80000dc0 <rb_insert+0x234>
80000d6c:	00000000 	nop
80000d70:	ac400000 	sw	zero,0(v0)
80000d74:	02402021 	move	a0,s2
80000d78:	0c000275 	jal	800009d4 <rb_right_rotate>
80000d7c:	acb10000 	sw	s1,0(a1)
80000d80:	8e700004 	lw	s0,4(s3)
80000d84:	08000328 	j	80000ca0 <rb_insert+0x114>
80000d88:	00000000 	nop
80000d8c:	02002821 	move	a1,s0
80000d90:	0c000275 	jal	800009d4 <rb_right_rotate>
80000d94:	02402021 	move	a0,s2
80000d98:	8e020004 	lw	v0,4(s0)
80000d9c:	02009821 	move	s3,s0
80000da0:	8c450004 	lw	a1,4(v0)
80000da4:	08000345 	j	80000d14 <rb_insert+0x188>
80000da8:	00408021 	move	s0,v0
80000dac:	08000311 	j	80000c44 <rb_insert+0xb8>
80000db0:	ae33000c 	sw	s3,12(s1)
80000db4:	acb00004 	sw	s0,4(a1)
80000db8:	08000310 	j	80000c40 <rb_insert+0xb4>
80000dbc:	02008821 	move	s1,s0
80000dc0:	02002821 	move	a1,s0
80000dc4:	0c000245 	jal	80000914 <rb_left_rotate>
80000dc8:	02402021 	move	a0,s2
80000dcc:	8e020004 	lw	v0,4(s0)
80000dd0:	00000000 	nop
80000dd4:	8c450004 	lw	a1,4(v0)
80000dd8:	0800035c 	j	80000d70 <rb_insert+0x1e4>
80000ddc:	02009821 	move	s3,s0
80000de0:	3c048001 	lui	a0,0x8001
80000de4:	3c068001 	lui	a2,0x8001
80000de8:	2484465c 	addiu	a0,a0,18012
80000dec:	240500a8 	li	a1,168
80000df0:	0c0009f2 	jal	800027c8 <__panic>
80000df4:	24c64710 	addiu	a2,a2,18192

80000df8 <rb_search>:
80000df8:	8c820008 	lw	v0,8(a0)
80000dfc:	27bdffd8 	addiu	sp,sp,-40
80000e00:	afb10018 	sw	s1,24(sp)
80000e04:	afb00014 	sw	s0,20(sp)
80000e08:	8c910004 	lw	s1,4(a0)
80000e0c:	8c500008 	lw	s0,8(v0)
80000e10:	afb30020 	sw	s3,32(sp)
80000e14:	afb2001c 	sw	s2,28(sp)
80000e18:	afbf0024 	sw	ra,36(sp)
80000e1c:	00a09021 	move	s2,a1
80000e20:	1230000c 	beq	s1,s0,80000e54 <rb_search+0x5c>
80000e24:	00c09821 	move	s3,a2
80000e28:	02002021 	move	a0,s0
80000e2c:	0240f809 	jalr	s2
80000e30:	02602821 	move	a1,s3
80000e34:	10400016 	beqz	v0,80000e90 <rb_search+0x98>
80000e38:	00000000 	nop
80000e3c:	1840000e 	blez	v0,80000e78 <rb_search+0x80>
80000e40:	00000000 	nop
80000e44:	8e100008 	lw	s0,8(s0)
80000e48:	00000000 	nop
80000e4c:	1611fff7 	bne	s0,s1,80000e2c <rb_search+0x34>
80000e50:	02002021 	move	a0,s0
80000e54:	8fbf0024 	lw	ra,36(sp)
80000e58:	00008021 	move	s0,zero
80000e5c:	02001021 	move	v0,s0
80000e60:	8fb30020 	lw	s3,32(sp)
80000e64:	8fb2001c 	lw	s2,28(sp)
80000e68:	8fb10018 	lw	s1,24(sp)
80000e6c:	8fb00014 	lw	s0,20(sp)
80000e70:	03e00008 	jr	ra
80000e74:	27bd0028 	addiu	sp,sp,40
80000e78:	8e10000c 	lw	s0,12(s0)
80000e7c:	00000000 	nop
80000e80:	1611ffea 	bne	s0,s1,80000e2c <rb_search+0x34>
80000e84:	02002021 	move	a0,s0
80000e88:	08000395 	j	80000e54 <rb_search+0x5c>
80000e8c:	00000000 	nop
80000e90:	1230fff0 	beq	s1,s0,80000e54 <rb_search+0x5c>
80000e94:	02001021 	move	v0,s0
80000e98:	8fbf0024 	lw	ra,36(sp)
80000e9c:	8fb30020 	lw	s3,32(sp)
80000ea0:	8fb2001c 	lw	s2,28(sp)
80000ea4:	8fb10018 	lw	s1,24(sp)
80000ea8:	8fb00014 	lw	s0,20(sp)
80000eac:	03e00008 	jr	ra
80000eb0:	27bd0028 	addiu	sp,sp,40

80000eb4 <rb_delete>:
80000eb4:	27bdffd8 	addiu	sp,sp,-40
80000eb8:	afb10018 	sw	s1,24(sp)
80000ebc:	afb00014 	sw	s0,20(sp)
80000ec0:	00808821 	move	s1,a0
80000ec4:	8cb00008 	lw	s0,8(a1)
80000ec8:	8c840004 	lw	a0,4(a0)
80000ecc:	afbf0024 	sw	ra,36(sp)
80000ed0:	afb30020 	sw	s3,32(sp)
80000ed4:	afb2001c 	sw	s2,28(sp)
80000ed8:	8e260008 	lw	a2,8(s1)
80000edc:	120400c6 	beq	s0,a0,800011f8 <rb_delete+0x344>
80000ee0:	00a01821 	move	v1,a1
80000ee4:	8ca3000c 	lw	v1,12(a1)
80000ee8:	00000000 	nop
80000eec:	14640004 	bne	v1,a0,80000f00 <rb_delete+0x4c>
80000ef0:	00000000 	nop
80000ef4:	080003c5 	j	80000f14 <rb_delete+0x60>
80000ef8:	00a01821 	move	v1,a1
80000efc:	00401821 	move	v1,v0
80000f00:	8c620008 	lw	v0,8(v1)
80000f04:	00000000 	nop
80000f08:	1482fffc 	bne	a0,v0,80000efc <rb_delete+0x48>
80000f0c:	00000000 	nop
80000f10:	8c70000c 	lw	s0,12(v1)
80000f14:	106600c1 	beq	v1,a2,8000121c <rb_delete+0x368>
80000f18:	00000000 	nop
80000f1c:	106400c0 	beq	v1,a0,80001220 <rb_delete+0x36c>
80000f20:	3c048001 	lui	a0,0x8001
80000f24:	8c620004 	lw	v0,4(v1)
80000f28:	00000000 	nop
80000f2c:	ae020004 	sw	v0,4(s0)
80000f30:	8c620004 	lw	v0,4(v1)
80000f34:	00000000 	nop
80000f38:	8c440008 	lw	a0,8(v0)
80000f3c:	00000000 	nop
80000f40:	106400b0 	beq	v1,a0,80001204 <rb_delete+0x350>
80000f44:	00000000 	nop
80000f48:	ac50000c 	sw	s0,12(v0)
80000f4c:	8c670000 	lw	a3,0(v1)
80000f50:	10650013 	beq	v1,a1,80000fa0 <rb_delete+0xec>
80000f54:	00000000 	nop
80000f58:	8ca20004 	lw	v0,4(a1)
80000f5c:	00000000 	nop
80000f60:	8c440008 	lw	a0,8(v0)
80000f64:	00000000 	nop
80000f68:	10a400a8 	beq	a1,a0,8000120c <rb_delete+0x358>
80000f6c:	00000000 	nop
80000f70:	ac43000c 	sw	v1,12(v0)
80000f74:	8ca40008 	lw	a0,8(a1)
80000f78:	8ca2000c 	lw	v0,12(a1)
80000f7c:	00000000 	nop
80000f80:	ac430004 	sw	v1,4(v0)
80000f84:	ac830004 	sw	v1,4(a0)
80000f88:	8ca80000 	lw	t0,0(a1)
80000f8c:	8ca50004 	lw	a1,4(a1)
80000f90:	ac680000 	sw	t0,0(v1)
80000f94:	ac650004 	sw	a1,4(v1)
80000f98:	ac640008 	sw	a0,8(v1)
80000f9c:	ac62000c 	sw	v0,12(v1)
80000fa0:	10e00008 	beqz	a3,80000fc4 <rb_delete+0x110>
80000fa4:	00000000 	nop
80000fa8:	8fbf0024 	lw	ra,36(sp)
80000fac:	8fb30020 	lw	s3,32(sp)
80000fb0:	8fb2001c 	lw	s2,28(sp)
80000fb4:	8fb10018 	lw	s1,24(sp)
80000fb8:	8fb00014 	lw	s0,20(sp)
80000fbc:	03e00008 	jr	ra
80000fc0:	27bd0028 	addiu	sp,sp,40
80000fc4:	8cd30008 	lw	s3,8(a2)
80000fc8:	00000000 	nop
80000fcc:	12130033 	beq	s0,s3,8000109c <rb_delete+0x1e8>
80000fd0:	00000000 	nop
80000fd4:	8e020000 	lw	v0,0(s0)
80000fd8:	00000000 	nop
80000fdc:	1440008d 	bnez	v0,80001214 <rb_delete+0x360>
80000fe0:	24120001 	li	s2,1
80000fe4:	08000408 	j	80001020 <rb_delete+0x16c>
80000fe8:	00000000 	nop
80000fec:	8c430008 	lw	v1,8(v0)
80000ff0:	00000000 	nop
80000ff4:	8c650000 	lw	a1,0(v1)
80000ff8:	00000000 	nop
80000ffc:	14a0001e 	bnez	a1,80001078 <rb_delete+0x1c4>
80001000:	00000000 	nop
80001004:	ac520000 	sw	s2,0(v0)
80001008:	10930024 	beq	a0,s3,8000109c <rb_delete+0x1e8>
8000100c:	00808021 	move	s0,a0
80001010:	8c820000 	lw	v0,0(a0)
80001014:	00000000 	nop
80001018:	14400075 	bnez	v0,800011f0 <rb_delete+0x33c>
8000101c:	00000000 	nop
80001020:	8e040004 	lw	a0,4(s0)
80001024:	00000000 	nop
80001028:	8c820008 	lw	v0,8(a0)
8000102c:	00000000 	nop
80001030:	12020037 	beq	s0,v0,80001110 <rb_delete+0x25c>
80001034:	00000000 	nop
80001038:	8c430000 	lw	v1,0(v0)
8000103c:	00000000 	nop
80001040:	1460002a 	bnez	v1,800010ec <rb_delete+0x238>
80001044:	00802821 	move	a1,a0
80001048:	8c45000c 	lw	a1,12(v0)
8000104c:	00000000 	nop
80001050:	8ca30000 	lw	v1,0(a1)
80001054:	00000000 	nop
80001058:	1060ffe4 	beqz	v1,80000fec <rb_delete+0x138>
8000105c:	00000000 	nop
80001060:	8c430008 	lw	v1,8(v0)
80001064:	00000000 	nop
80001068:	8c640000 	lw	a0,0(v1)
8000106c:	00000000 	nop
80001070:	10800012 	beqz	a0,800010bc <rb_delete+0x208>
80001074:	02202021 	move	a0,s1
80001078:	8e060004 	lw	a2,4(s0)
8000107c:	00000000 	nop
80001080:	8cc50000 	lw	a1,0(a2)
80001084:	02202021 	move	a0,s1
80001088:	ac450000 	sw	a1,0(v0)
8000108c:	acc00000 	sw	zero,0(a2)
80001090:	00c02821 	move	a1,a2
80001094:	0c000275 	jal	800009d4 <rb_right_rotate>
80001098:	ac600000 	sw	zero,0(v1)
8000109c:	ae600000 	sw	zero,0(s3)
800010a0:	8fbf0024 	lw	ra,36(sp)
800010a4:	8fb30020 	lw	s3,32(sp)
800010a8:	8fb2001c 	lw	s2,28(sp)
800010ac:	8fb10018 	lw	s1,24(sp)
800010b0:	8fb00014 	lw	s0,20(sp)
800010b4:	03e00008 	jr	ra
800010b8:	27bd0028 	addiu	sp,sp,40
800010bc:	24030001 	li	v1,1
800010c0:	aca00000 	sw	zero,0(a1)
800010c4:	ac430000 	sw	v1,0(v0)
800010c8:	0c000245 	jal	80000914 <rb_left_rotate>
800010cc:	00402821 	move	a1,v0
800010d0:	8e060004 	lw	a2,4(s0)
800010d4:	00000000 	nop
800010d8:	8cc20008 	lw	v0,8(a2)
800010dc:	00000000 	nop
800010e0:	8c430008 	lw	v1,8(v0)
800010e4:	08000420 	j	80001080 <rb_delete+0x1cc>
800010e8:	00000000 	nop
800010ec:	ac400000 	sw	zero,0(v0)
800010f0:	ac920000 	sw	s2,0(a0)
800010f4:	0c000275 	jal	800009d4 <rb_right_rotate>
800010f8:	02202021 	move	a0,s1
800010fc:	8e040004 	lw	a0,4(s0)
80001100:	00000000 	nop
80001104:	8c820008 	lw	v0,8(a0)
80001108:	08000412 	j	80001048 <rb_delete+0x194>
8000110c:	00000000 	nop
80001110:	8c82000c 	lw	v0,12(a0)
80001114:	00000000 	nop
80001118:	8c430000 	lw	v1,0(v0)
8000111c:	00000000 	nop
80001120:	1460002a 	bnez	v1,800011cc <rb_delete+0x318>
80001124:	00802821 	move	a1,a0
80001128:	8c450008 	lw	a1,8(v0)
8000112c:	00000000 	nop
80001130:	8ca30000 	lw	v1,0(a1)
80001134:	00000000 	nop
80001138:	14600012 	bnez	v1,80001184 <rb_delete+0x2d0>
8000113c:	00000000 	nop
80001140:	8c43000c 	lw	v1,12(v0)
80001144:	00000000 	nop
80001148:	8c650000 	lw	a1,0(v1)
8000114c:	00000000 	nop
80001150:	10a0ffac 	beqz	a1,80001004 <rb_delete+0x150>
80001154:	00000000 	nop
80001158:	8e060004 	lw	a2,4(s0)
8000115c:	00000000 	nop
80001160:	8cc50000 	lw	a1,0(a2)
80001164:	02202021 	move	a0,s1
80001168:	ac450000 	sw	a1,0(v0)
8000116c:	acc00000 	sw	zero,0(a2)
80001170:	00c02821 	move	a1,a2
80001174:	0c000245 	jal	80000914 <rb_left_rotate>
80001178:	ac600000 	sw	zero,0(v1)
8000117c:	08000428 	j	800010a0 <rb_delete+0x1ec>
80001180:	ae600000 	sw	zero,0(s3)
80001184:	8c43000c 	lw	v1,12(v0)
80001188:	00000000 	nop
8000118c:	8c640000 	lw	a0,0(v1)
80001190:	00000000 	nop
80001194:	1480fff0 	bnez	a0,80001158 <rb_delete+0x2a4>
80001198:	02202021 	move	a0,s1
8000119c:	24030001 	li	v1,1
800011a0:	aca00000 	sw	zero,0(a1)
800011a4:	ac430000 	sw	v1,0(v0)
800011a8:	0c000275 	jal	800009d4 <rb_right_rotate>
800011ac:	00402821 	move	a1,v0
800011b0:	8e060004 	lw	a2,4(s0)
800011b4:	00000000 	nop
800011b8:	8cc2000c 	lw	v0,12(a2)
800011bc:	00000000 	nop
800011c0:	8c43000c 	lw	v1,12(v0)
800011c4:	08000458 	j	80001160 <rb_delete+0x2ac>
800011c8:	00000000 	nop
800011cc:	ac400000 	sw	zero,0(v0)
800011d0:	ac920000 	sw	s2,0(a0)
800011d4:	0c000245 	jal	80000914 <rb_left_rotate>
800011d8:	02202021 	move	a0,s1
800011dc:	8e040004 	lw	a0,4(s0)
800011e0:	00000000 	nop
800011e4:	8c82000c 	lw	v0,12(a0)
800011e8:	0800044a 	j	80001128 <rb_delete+0x274>
800011ec:	00000000 	nop
800011f0:	08000427 	j	8000109c <rb_delete+0x1e8>
800011f4:	00809821 	move	s3,a0
800011f8:	8c70000c 	lw	s0,12(v1)
800011fc:	080003c5 	j	80000f14 <rb_delete+0x60>
80001200:	00000000 	nop
80001204:	080003d3 	j	80000f4c <rb_delete+0x98>
80001208:	ac500008 	sw	s0,8(v0)
8000120c:	080003dd 	j	80000f74 <rb_delete+0xc0>
80001210:	ac430008 	sw	v1,8(v0)
80001214:	08000427 	j	8000109c <rb_delete+0x1e8>
80001218:	02009821 	move	s3,s0
8000121c:	3c048001 	lui	a0,0x8001
80001220:	3c068001 	lui	a2,0x8001
80001224:	2484465c 	addiu	a0,a0,18012
80001228:	2405012e 	li	a1,302
8000122c:	0c0009f2 	jal	800027c8 <__panic>
80001230:	24c6474c 	addiu	a2,a2,18252

80001234 <rb_tree_destroy>:
80001234:	27bdffe8 	addiu	sp,sp,-24
80001238:	afb00010 	sw	s0,16(sp)
8000123c:	00808021 	move	s0,a0
80001240:	8c840008 	lw	a0,8(a0)
80001244:	afbf0014 	sw	ra,20(sp)
80001248:	0c001740 	jal	80005d00 <kfree>
8000124c:	00000000 	nop
80001250:	8e040004 	lw	a0,4(s0)
80001254:	0c001740 	jal	80005d00 <kfree>
80001258:	00000000 	nop
8000125c:	02002021 	move	a0,s0
80001260:	8fbf0014 	lw	ra,20(sp)
80001264:	8fb00010 	lw	s0,16(sp)
80001268:	08001740 	j	80005d00 <kfree>
8000126c:	27bd0018 	addiu	sp,sp,24

80001270 <rb_node_prev>:
80001270:	8c860004 	lw	a2,4(a0)
80001274:	8ca20008 	lw	v0,8(a1)
80001278:	00000000 	nop
8000127c:	14c20004 	bne	a2,v0,80001290 <rb_node_prev+0x20>
80001280:	00000000 	nop
80001284:	080004ac 	j	800012b0 <rb_node_prev+0x40>
80001288:	00000000 	nop
8000128c:	00601021 	move	v0,v1
80001290:	8c43000c 	lw	v1,12(v0)
80001294:	00000000 	nop
80001298:	14c3fffc 	bne	a2,v1,8000128c <rb_node_prev+0x1c>
8000129c:	00000000 	nop
800012a0:	10c20020 	beq	a2,v0,80001324 <rb_node_prev+0xb4>
800012a4:	00000000 	nop
800012a8:	03e00008 	jr	ra
800012ac:	00000000 	nop
800012b0:	8ca30004 	lw	v1,4(a1)
800012b4:	00000000 	nop
800012b8:	8c620008 	lw	v0,8(v1)
800012bc:	00000000 	nop
800012c0:	14a20016 	bne	a1,v0,8000131c <rb_node_prev+0xac>
800012c4:	00601021 	move	v0,v1
800012c8:	8c850008 	lw	a1,8(a0)
800012cc:	00000000 	nop
800012d0:	14650005 	bne	v1,a1,800012e8 <rb_node_prev+0x78>
800012d4:	00001021 	move	v0,zero
800012d8:	080004c5 	j	80001314 <rb_node_prev+0xa4>
800012dc:	00000000 	nop
800012e0:	1045000b 	beq	v0,a1,80001310 <rb_node_prev+0xa0>
800012e4:	00401821 	move	v1,v0
800012e8:	8c620004 	lw	v0,4(v1)
800012ec:	00000000 	nop
800012f0:	8c440008 	lw	a0,8(v0)
800012f4:	00000000 	nop
800012f8:	1083fff9 	beq	a0,v1,800012e0 <rb_node_prev+0x70>
800012fc:	00000000 	nop
80001300:	14c20004 	bne	a2,v0,80001314 <rb_node_prev+0xa4>
80001304:	00000000 	nop
80001308:	03e00008 	jr	ra
8000130c:	00001021 	move	v0,zero
80001310:	00001021 	move	v0,zero
80001314:	03e00008 	jr	ra
80001318:	00000000 	nop
8000131c:	14c2fffd 	bne	a2,v0,80001314 <rb_node_prev+0xa4>
80001320:	00000000 	nop
80001324:	03e00008 	jr	ra
80001328:	00001021 	move	v0,zero

8000132c <rb_node_next>:
8000132c:	8c860004 	lw	a2,4(a0)
80001330:	8ca2000c 	lw	v0,12(a1)
80001334:	00000000 	nop
80001338:	14c20004 	bne	a2,v0,8000134c <rb_node_next+0x20>
8000133c:	00000000 	nop
80001340:	080004db 	j	8000136c <rb_node_next+0x40>
80001344:	00000000 	nop
80001348:	00601021 	move	v0,v1
8000134c:	8c430008 	lw	v1,8(v0)
80001350:	00000000 	nop
80001354:	14c3fffc 	bne	a2,v1,80001348 <rb_node_next+0x1c>
80001358:	00000000 	nop
8000135c:	10c20015 	beq	a2,v0,800013b4 <rb_node_next+0x88>
80001360:	00000000 	nop
80001364:	03e00008 	jr	ra
80001368:	00000000 	nop
8000136c:	8ca30004 	lw	v1,4(a1)
80001370:	00000000 	nop
80001374:	8c62000c 	lw	v0,12(v1)
80001378:	00000000 	nop
8000137c:	14a20007 	bne	a1,v0,8000139c <rb_node_next+0x70>
80001380:	00601021 	move	v0,v1
80001384:	8c620004 	lw	v0,4(v1)
80001388:	00000000 	nop
8000138c:	8c45000c 	lw	a1,12(v0)
80001390:	00000000 	nop
80001394:	10a3fffb 	beq	a1,v1,80001384 <rb_node_next+0x58>
80001398:	00401821 	move	v1,v0
8000139c:	8c830008 	lw	v1,8(a0)
800013a0:	00000000 	nop
800013a4:	1443ffed 	bne	v0,v1,8000135c <rb_node_next+0x30>
800013a8:	00000000 	nop
800013ac:	03e00008 	jr	ra
800013b0:	00001021 	move	v0,zero
800013b4:	03e00008 	jr	ra
800013b8:	00001021 	move	v0,zero

800013bc <rb_node_root>:
800013bc:	8c820008 	lw	v0,8(a0)
800013c0:	8c830004 	lw	v1,4(a0)
800013c4:	8c420008 	lw	v0,8(v0)
800013c8:	00000000 	nop
800013cc:	10620003 	beq	v1,v0,800013dc <rb_node_root+0x20>
800013d0:	00000000 	nop
800013d4:	03e00008 	jr	ra
800013d8:	00000000 	nop
800013dc:	03e00008 	jr	ra
800013e0:	00001021 	move	v0,zero

800013e4 <rb_node_left>:
800013e4:	8ca20008 	lw	v0,8(a1)
800013e8:	8c830004 	lw	v1,4(a0)
800013ec:	00000000 	nop
800013f0:	10620003 	beq	v1,v0,80001400 <rb_node_left+0x1c>
800013f4:	00000000 	nop
800013f8:	03e00008 	jr	ra
800013fc:	00000000 	nop
80001400:	03e00008 	jr	ra
80001404:	00001021 	move	v0,zero

80001408 <rb_node_right>:
80001408:	8ca2000c 	lw	v0,12(a1)
8000140c:	8c830004 	lw	v1,4(a0)
80001410:	00000000 	nop
80001414:	10620003 	beq	v1,v0,80001424 <rb_node_right+0x1c>
80001418:	00000000 	nop
8000141c:	03e00008 	jr	ra
80001420:	00000000 	nop
80001424:	03e00008 	jr	ra
80001428:	00001021 	move	v0,zero

8000142c <check_tree>:
8000142c:	27bdffe0 	addiu	sp,sp,-32
80001430:	afb20018 	sw	s2,24(sp)
80001434:	8c920004 	lw	s2,4(a0)
80001438:	afb10014 	sw	s1,20(sp)
8000143c:	afb00010 	sw	s0,16(sp)
80001440:	afbf001c 	sw	ra,28(sp)
80001444:	00808821 	move	s1,a0
80001448:	10b20047 	beq	a1,s2,80001568 <check_tree+0x13c>
8000144c:	00a08021 	move	s0,a1
80001450:	8ca50008 	lw	a1,8(a1)
80001454:	00000000 	nop
80001458:	10b2000d 	beq	a1,s2,80001490 <check_tree+0x64>
8000145c:	00000000 	nop
80001460:	8c820000 	lw	v0,0(a0)
80001464:	00000000 	nop
80001468:	0040f809 	jalr	v0
8000146c:	02002021 	move	a0,s0
80001470:	0440005b 	bltz	v0,800015e0 <check_tree+0x1b4>
80001474:	3c068001 	lui	a2,0x8001
80001478:	8e050008 	lw	a1,8(s0)
8000147c:	00000000 	nop
80001480:	8ca20004 	lw	v0,4(a1)
80001484:	00000000 	nop
80001488:	1450004c 	bne	v0,s0,800015bc <check_tree+0x190>
8000148c:	3c068001 	lui	a2,0x8001
80001490:	8e03000c 	lw	v1,12(s0)
80001494:	00000000 	nop
80001498:	1072000e 	beq	v1,s2,800014d4 <check_tree+0xa8>
8000149c:	02002021 	move	a0,s0
800014a0:	8e220000 	lw	v0,0(s1)
800014a4:	00000000 	nop
800014a8:	0040f809 	jalr	v0
800014ac:	00602821 	move	a1,v1
800014b0:	1c400050 	bgtz	v0,800015f4 <check_tree+0x1c8>
800014b4:	3c048001 	lui	a0,0x8001
800014b8:	8e03000c 	lw	v1,12(s0)
800014bc:	00000000 	nop
800014c0:	8c620004 	lw	v0,4(v1)
800014c4:	00000000 	nop
800014c8:	14500041 	bne	v0,s0,800015d0 <check_tree+0x1a4>
800014cc:	3c068001 	lui	a2,0x8001
800014d0:	8e050008 	lw	a1,8(s0)
800014d4:	8e020000 	lw	v0,0(s0)
800014d8:	00000000 	nop
800014dc:	10400009 	beqz	v0,80001504 <check_tree+0xd8>
800014e0:	00000000 	nop
800014e4:	8ca20000 	lw	v0,0(a1)
800014e8:	00000000 	nop
800014ec:	14400028 	bnez	v0,80001590 <check_tree+0x164>
800014f0:	00000000 	nop
800014f4:	8c620000 	lw	v0,0(v1)
800014f8:	00000000 	nop
800014fc:	14400025 	bnez	v0,80001594 <check_tree+0x168>
80001500:	3c048001 	lui	a0,0x8001
80001504:	0c00050b 	jal	8000142c <check_tree>
80001508:	02202021 	move	a0,s1
8000150c:	8e05000c 	lw	a1,12(s0)
80001510:	02202021 	move	a0,s1
80001514:	0c00050b 	jal	8000142c <check_tree>
80001518:	00409021 	move	s2,v0
8000151c:	16420022 	bne	s2,v0,800015a8 <check_tree+0x17c>
80001520:	3c048001 	lui	a0,0x8001
80001524:	8e020000 	lw	v0,0(s0)
80001528:	00000000 	nop
8000152c:	10400008 	beqz	v0,80001550 <check_tree+0x124>
80001530:	26420001 	addiu	v0,s2,1
80001534:	8fbf001c 	lw	ra,28(sp)
80001538:	02401021 	move	v0,s2
8000153c:	8fb10014 	lw	s1,20(sp)
80001540:	8fb20018 	lw	s2,24(sp)
80001544:	8fb00010 	lw	s0,16(sp)
80001548:	03e00008 	jr	ra
8000154c:	27bd0020 	addiu	sp,sp,32
80001550:	8fbf001c 	lw	ra,28(sp)
80001554:	8fb10014 	lw	s1,20(sp)
80001558:	8fb20018 	lw	s2,24(sp)
8000155c:	8fb00010 	lw	s0,16(sp)
80001560:	03e00008 	jr	ra
80001564:	27bd0020 	addiu	sp,sp,32
80001568:	8ca20000 	lw	v0,0(a1)
8000156c:	00000000 	nop
80001570:	14400025 	bnez	v0,80001608 <check_tree+0x1dc>
80001574:	24020001 	li	v0,1
80001578:	8fbf001c 	lw	ra,28(sp)
8000157c:	8fb20018 	lw	s2,24(sp)
80001580:	8fb10014 	lw	s1,20(sp)
80001584:	8fb00010 	lw	s0,16(sp)
80001588:	03e00008 	jr	ra
8000158c:	27bd0020 	addiu	sp,sp,32
80001590:	3c048001 	lui	a0,0x8001
80001594:	3c068001 	lui	a2,0x8001
80001598:	2484465c 	addiu	a0,a0,18012
8000159c:	2405018a 	li	a1,394
800015a0:	0c0009f2 	jal	800027c8 <__panic>
800015a4:	24c64864 	addiu	a2,a2,18532
800015a8:	3c068001 	lui	a2,0x8001
800015ac:	2484465c 	addiu	a0,a0,18012
800015b0:	2405018e 	li	a1,398
800015b4:	0c0009f2 	jal	800027c8 <__panic>
800015b8:	24c6489c 	addiu	a2,a2,18588
800015bc:	3c048001 	lui	a0,0x8001
800015c0:	2484465c 	addiu	a0,a0,18012
800015c4:	24050183 	li	a1,387
800015c8:	0c0009f2 	jal	800027c8 <__panic>
800015cc:	24c647cc 	addiu	a2,a2,18380
800015d0:	2484465c 	addiu	a0,a0,18012
800015d4:	24050187 	li	a1,391
800015d8:	0c0009f2 	jal	800027c8 <__panic>
800015dc:	24c64834 	addiu	a2,a2,18484
800015e0:	3c048001 	lui	a0,0x8001
800015e4:	2484465c 	addiu	a0,a0,18012
800015e8:	24050182 	li	a1,386
800015ec:	0c0009f2 	jal	800027c8 <__panic>
800015f0:	24c64794 	addiu	a2,a2,18324
800015f4:	3c068001 	lui	a2,0x8001
800015f8:	2484465c 	addiu	a0,a0,18012
800015fc:	24050186 	li	a1,390
80001600:	0c0009f2 	jal	800027c8 <__panic>
80001604:	24c647fc 	addiu	a2,a2,18428
80001608:	3c048001 	lui	a0,0x8001
8000160c:	3c068001 	lui	a2,0x8001
80001610:	2484465c 	addiu	a0,a0,18012
80001614:	2405017e 	li	a1,382
80001618:	0c0009f2 	jal	800027c8 <__panic>
8000161c:	24c64774 	addiu	a2,a2,18292

80001620 <check_rb_tree>:
80001620:	3c048000 	lui	a0,0x8000
80001624:	27bdffc8 	addiu	sp,sp,-56
80001628:	248408f8 	addiu	a0,a0,2296
8000162c:	afb00010 	sw	s0,16(sp)
80001630:	afbf0034 	sw	ra,52(sp)
80001634:	afbe0030 	sw	s8,48(sp)
80001638:	afb7002c 	sw	s7,44(sp)
8000163c:	afb60028 	sw	s6,40(sp)
80001640:	afb50024 	sw	s5,36(sp)
80001644:	afb40020 	sw	s4,32(sp)
80001648:	afb3001c 	sw	s3,28(sp)
8000164c:	afb20018 	sw	s2,24(sp)
80001650:	0c0002b4 	jal	80000ad0 <rb_tree_create>
80001654:	afb10014 	sw	s1,20(sp)
80001658:	10400125 	beqz	v0,80001af0 <check_rb_tree+0x4d0>
8000165c:	00408021 	move	s0,v0
80001660:	8c420004 	lw	v0,4(v0)
80001664:	8e140008 	lw	s4,8(s0)
80001668:	8c430000 	lw	v1,0(v0)
8000166c:	00000000 	nop
80001670:	1460011a 	bnez	v1,80001adc <check_rb_tree+0x4bc>
80001674:	3c048001 	lui	a0,0x8001
80001678:	8e9e0008 	lw	s8,8(s4)
8000167c:	00000000 	nop
80001680:	17c20117 	bne	s8,v0,80001ae0 <check_rb_tree+0x4c0>
80001684:	3c068001 	lui	a2,0x8001
80001688:	0c0002a5 	jal	80000a94 <check_safe_kmalloc>
8000168c:	24040fa0 	li	a0,4000
80001690:	00408821 	move	s1,v0
80001694:	00409021 	move	s2,v0
80001698:	0040a821 	move	s5,v0
8000169c:	00009821 	move	s3,zero
800016a0:	241603e8 	li	s6,1000
800016a4:	0c0002a5 	jal	80000a94 <check_safe_kmalloc>
800016a8:	24040014 	li	a0,20
800016ac:	aea20000 	sw	v0,0(s5)
800016b0:	ac530000 	sw	s3,0(v0)
800016b4:	26730001 	addiu	s3,s3,1
800016b8:	1676fffa 	bne	s3,s6,800016a4 <check_rb_tree+0x84>
800016bc:	26b50004 	addiu	s5,s5,4
800016c0:	0c0002a5 	jal	80000a94 <check_safe_kmalloc>
800016c4:	24040fa0 	li	a0,4000
800016c8:	00402021 	move	a0,v0
800016cc:	00002821 	move	a1,zero
800016d0:	24060fa0 	li	a2,4000
800016d4:	0c00083d 	jal	800020f4 <memset>
800016d8:	00409821 	move	s3,v0
800016dc:	00001021 	move	v0,zero
800016e0:	24050001 	li	a1,1
800016e4:	24040fa0 	li	a0,4000
800016e8:	02221821 	addu	v1,s1,v0
800016ec:	8c630000 	lw	v1,0(v1)
800016f0:	24420004 	addiu	v0,v0,4
800016f4:	8c630000 	lw	v1,0(v1)
800016f8:	00000000 	nop
800016fc:	00031880 	sll	v1,v1,0x2
80001700:	02631821 	addu	v1,s3,v1
80001704:	1444fff8 	bne	v0,a0,800016e8 <check_rb_tree+0xc8>
80001708:	ac650000 	sw	a1,0(v1)
8000170c:	00001021 	move	v0,zero
80001710:	24040001 	li	a0,1
80001714:	24050fa0 	li	a1,4000
80001718:	02621821 	addu	v1,s3,v0
8000171c:	8c630000 	lw	v1,0(v1)
80001720:	00000000 	nop
80001724:	146400d5 	bne	v1,a0,80001a7c <check_rb_tree+0x45c>
80001728:	24420004 	addiu	v0,v0,4
8000172c:	1445fffa 	bne	v0,a1,80001718 <check_rb_tree+0xf8>
80001730:	02201821 	move	v1,s1
80001734:	00001021 	move	v0,zero
80001738:	080005db 	j	8000176c <check_rb_tree+0x14c>
8000173c:	240403e8 	li	a0,1000
80001740:	14c00013 	bnez	a2,80001790 <check_rb_tree+0x170>
80001744:	00052880 	sll	a1,a1,0x2
80001748:	24050f9c 	li	a1,3996
8000174c:	02252821 	addu	a1,s1,a1
80001750:	8c660000 	lw	a2,0(v1)
80001754:	8ca70000 	lw	a3,0(a1)
80001758:	24420001 	addiu	v0,v0,1
8000175c:	ac670000 	sw	a3,0(v1)
80001760:	aca60000 	sw	a2,0(a1)
80001764:	10440012 	beq	v0,a0,800017b0 <check_rb_tree+0x190>
80001768:	24630004 	addiu	v1,v1,4
8000176c:	00420018 	mult	v0,v0
80001770:	00002812 	mflo	a1
80001774:	00852823 	subu	a1,a0,a1
80001778:	00a22821 	addu	a1,a1,v0
8000177c:	00a2302a 	slt	a2,a1,v0
80001780:	10c0ffef 	beqz	a2,80001740 <check_rb_tree+0x120>
80001784:	28a603e8 	slti	a2,a1,1000
80001788:	00402821 	move	a1,v0
8000178c:	00052880 	sll	a1,a1,0x2
80001790:	02252821 	addu	a1,s1,a1
80001794:	8c660000 	lw	a2,0(v1)
80001798:	8ca70000 	lw	a3,0(a1)
8000179c:	24420001 	addiu	v0,v0,1
800017a0:	ac670000 	sw	a3,0(v1)
800017a4:	aca60000 	sw	a2,0(a1)
800017a8:	1444fff0 	bne	v0,a0,8000176c <check_rb_tree+0x14c>
800017ac:	24630004 	addiu	v1,v1,4
800017b0:	02602021 	move	a0,s3
800017b4:	00002821 	move	a1,zero
800017b8:	0c00083d 	jal	800020f4 <memset>
800017bc:	24060fa0 	li	a2,4000
800017c0:	00001021 	move	v0,zero
800017c4:	24050001 	li	a1,1
800017c8:	24040fa0 	li	a0,4000
800017cc:	02221821 	addu	v1,s1,v0
800017d0:	8c630000 	lw	v1,0(v1)
800017d4:	24420004 	addiu	v0,v0,4
800017d8:	8c630000 	lw	v1,0(v1)
800017dc:	00000000 	nop
800017e0:	00031880 	sll	v1,v1,0x2
800017e4:	02631821 	addu	v1,s3,v1
800017e8:	1444fff8 	bne	v0,a0,800017cc <check_rb_tree+0x1ac>
800017ec:	ac650000 	sw	a1,0(v1)
800017f0:	00001021 	move	v0,zero
800017f4:	24040001 	li	a0,1
800017f8:	24050fa0 	li	a1,4000
800017fc:	02621821 	addu	v1,s3,v0
80001800:	8c630000 	lw	v1,0(v1)
80001804:	00000000 	nop
80001808:	14640096 	bne	v1,a0,80001a64 <check_rb_tree+0x444>
8000180c:	24420004 	addiu	v0,v0,4
80001810:	1445fffb 	bne	v0,a1,80001800 <check_rb_tree+0x1e0>
80001814:	02621821 	addu	v1,s3,v0
80001818:	0000a821 	move	s5,zero
8000181c:	24160fa0 	li	s6,4000
80001820:	02351021 	addu	v0,s1,s5
80001824:	8c450000 	lw	a1,0(v0)
80001828:	02002021 	move	a0,s0
8000182c:	0c0002e3 	jal	80000b8c <rb_insert>
80001830:	24a50004 	addiu	a1,a1,4
80001834:	8e850008 	lw	a1,8(s4)
80001838:	26b50004 	addiu	s5,s5,4
8000183c:	0c00050b 	jal	8000142c <check_tree>
80001840:	02002021 	move	a0,s0
80001844:	16b6fff7 	bne	s5,s6,80001824 <check_rb_tree+0x204>
80001848:	02351021 	addu	v0,s1,s5
8000184c:	3c028000 	lui	v0,0x8000
80001850:	0000a821 	move	s5,zero
80001854:	24560908 	addiu	s6,v0,2312
80001858:	241703e8 	li	s7,1000
8000185c:	8e420000 	lw	v0,0(s2)
80001860:	02002021 	move	a0,s0
80001864:	8c460000 	lw	a2,0(v0)
80001868:	0c00037e 	jal	80000df8 <rb_search>
8000186c:	02c02821 	move	a1,s6
80001870:	10400072 	beqz	v0,80001a3c <check_rb_tree+0x41c>
80001874:	3c048001 	lui	a0,0x8001
80001878:	8e430000 	lw	v1,0(s2)
8000187c:	00000000 	nop
80001880:	24630004 	addiu	v1,v1,4
80001884:	1443006d 	bne	v0,v1,80001a3c <check_rb_tree+0x41c>
80001888:	26b50001 	addiu	s5,s5,1
8000188c:	16b7fff3 	bne	s5,s7,8000185c <check_rb_tree+0x23c>
80001890:	26520004 	addiu	s2,s2,4
80001894:	00009021 	move	s2,zero
80001898:	241503e8 	li	s5,1000
8000189c:	02002021 	move	a0,s0
800018a0:	02c02821 	move	a1,s6
800018a4:	0c00037e 	jal	80000df8 <rb_search>
800018a8:	02403021 	move	a2,s2
800018ac:	10400068 	beqz	v0,80001a50 <check_rb_tree+0x430>
800018b0:	3c048001 	lui	a0,0x8001
800018b4:	8c43fffc 	lw	v1,-4(v0)
800018b8:	00000000 	nop
800018bc:	14720064 	bne	v1,s2,80001a50 <check_rb_tree+0x430>
800018c0:	00402821 	move	a1,v0
800018c4:	0c0003ad 	jal	80000eb4 <rb_delete>
800018c8:	02002021 	move	a0,s0
800018cc:	8e850008 	lw	a1,8(s4)
800018d0:	26520001 	addiu	s2,s2,1
800018d4:	0c00050b 	jal	8000142c <check_tree>
800018d8:	02002021 	move	a0,s0
800018dc:	1655ffef 	bne	s2,s5,8000189c <check_rb_tree+0x27c>
800018e0:	00000000 	nop
800018e4:	8fc20000 	lw	v0,0(s8)
800018e8:	00000000 	nop
800018ec:	1440006f 	bnez	v0,80001aac <check_rb_tree+0x48c>
800018f0:	00000000 	nop
800018f4:	8e820008 	lw	v0,8(s4)
800018f8:	00000000 	nop
800018fc:	17c2006b 	bne	s8,v0,80001aac <check_rb_tree+0x48c>
80001900:	00009021 	move	s2,zero
80001904:	24160020 	li	s6,32
80001908:	24150080 	li	s5,128
8000190c:	02321021 	addu	v0,s1,s2
80001910:	8c420000 	lw	v0,0(v0)
80001914:	02002021 	move	a0,s0
80001918:	24450004 	addiu	a1,v0,4
8000191c:	0c0002e3 	jal	80000b8c <rb_insert>
80001920:	ac560000 	sw	s6,0(v0)
80001924:	8e850008 	lw	a1,8(s4)
80001928:	26520004 	addiu	s2,s2,4
8000192c:	0c00050b 	jal	8000142c <check_tree>
80001930:	02002021 	move	a0,s0
80001934:	1655fff6 	bne	s2,s5,80001910 <check_rb_tree+0x2f0>
80001938:	02321021 	addu	v0,s1,s2
8000193c:	3c028000 	lui	v0,0x8000
80001940:	24120020 	li	s2,32
80001944:	24550908 	addiu	s5,v0,2312
80001948:	02002021 	move	a0,s0
8000194c:	02a02821 	move	a1,s5
80001950:	0c00037e 	jal	80000df8 <rb_search>
80001954:	24060020 	li	a2,32
80001958:	1040004e 	beqz	v0,80001a94 <check_rb_tree+0x474>
8000195c:	24030020 	li	v1,32
80001960:	8c44fffc 	lw	a0,-4(v0)
80001964:	00000000 	nop
80001968:	1483004a 	bne	a0,v1,80001a94 <check_rb_tree+0x474>
8000196c:	00402821 	move	a1,v0
80001970:	0c0003ad 	jal	80000eb4 <rb_delete>
80001974:	02002021 	move	a0,s0
80001978:	8e850008 	lw	a1,8(s4)
8000197c:	2652ffff 	addiu	s2,s2,-1
80001980:	0c00050b 	jal	8000142c <check_tree>
80001984:	02002021 	move	a0,s0
80001988:	1640ffef 	bnez	s2,80001948 <check_rb_tree+0x328>
8000198c:	00000000 	nop
80001990:	8e020008 	lw	v0,8(s0)
80001994:	8e030004 	lw	v1,4(s0)
80001998:	8c420008 	lw	v0,8(v0)
8000199c:	00000000 	nop
800019a0:	14620048 	bne	v1,v0,80001ac4 <check_rb_tree+0x4a4>
800019a4:	00009021 	move	s2,zero
800019a8:	24150fa0 	li	s5,4000
800019ac:	02321021 	addu	v0,s1,s2
800019b0:	8c450000 	lw	a1,0(v0)
800019b4:	02002021 	move	a0,s0
800019b8:	0c0002e3 	jal	80000b8c <rb_insert>
800019bc:	24a50004 	addiu	a1,a1,4
800019c0:	8e850008 	lw	a1,8(s4)
800019c4:	26520004 	addiu	s2,s2,4
800019c8:	0c00050b 	jal	8000142c <check_tree>
800019cc:	02002021 	move	a0,s0
800019d0:	1655fff7 	bne	s2,s5,800019b0 <check_rb_tree+0x390>
800019d4:	02321021 	addu	v0,s1,s2
800019d8:	0c00048d 	jal	80001234 <rb_tree_destroy>
800019dc:	02002021 	move	a0,s0
800019e0:	00008021 	move	s0,zero
800019e4:	24120fa0 	li	s2,4000
800019e8:	02301021 	addu	v0,s1,s0
800019ec:	8c440000 	lw	a0,0(v0)
800019f0:	0c001740 	jal	80005d00 <kfree>
800019f4:	26100004 	addiu	s0,s0,4
800019f8:	1612fffc 	bne	s0,s2,800019ec <check_rb_tree+0x3cc>
800019fc:	02301021 	addu	v0,s1,s0
80001a00:	0c001740 	jal	80005d00 <kfree>
80001a04:	02602021 	move	a0,s3
80001a08:	02202021 	move	a0,s1
80001a0c:	8fbf0034 	lw	ra,52(sp)
80001a10:	8fbe0030 	lw	s8,48(sp)
80001a14:	8fb7002c 	lw	s7,44(sp)
80001a18:	8fb60028 	lw	s6,40(sp)
80001a1c:	8fb50024 	lw	s5,36(sp)
80001a20:	8fb40020 	lw	s4,32(sp)
80001a24:	8fb3001c 	lw	s3,28(sp)
80001a28:	8fb20018 	lw	s2,24(sp)
80001a2c:	8fb10014 	lw	s1,20(sp)
80001a30:	8fb00010 	lw	s0,16(sp)
80001a34:	08001740 	j	80005d00 <kfree>
80001a38:	27bd0038 	addiu	sp,sp,56
80001a3c:	3c068001 	lui	a2,0x8001
80001a40:	2484465c 	addiu	a0,a0,18012
80001a44:	240501e4 	li	a1,484
80001a48:	0c0009f2 	jal	800027c8 <__panic>
80001a4c:	24c64938 	addiu	a2,a2,18744
80001a50:	3c068001 	lui	a2,0x8001
80001a54:	2484465c 	addiu	a0,a0,18012
80001a58:	240501e9 	li	a1,489
80001a5c:	0c0009f2 	jal	800027c8 <__panic>
80001a60:	24c64978 	addiu	a2,a2,18808
80001a64:	3c048001 	lui	a0,0x8001
80001a68:	3c068001 	lui	a2,0x8001
80001a6c:	2484465c 	addiu	a0,a0,18012
80001a70:	240501d9 	li	a1,473
80001a74:	0c0009f2 	jal	800027c8 <__panic>
80001a78:	24c64918 	addiu	a2,a2,18712
80001a7c:	3c048001 	lui	a0,0x8001
80001a80:	3c068001 	lui	a2,0x8001
80001a84:	2484465c 	addiu	a0,a0,18012
80001a88:	240501c7 	li	a1,455
80001a8c:	0c0009f2 	jal	800027c8 <__panic>
80001a90:	24c64918 	addiu	a2,a2,18712
80001a94:	3c048001 	lui	a0,0x8001
80001a98:	3c068001 	lui	a2,0x8001
80001a9c:	2484465c 	addiu	a0,a0,18012
80001aa0:	240501fd 	li	a1,509
80001aa4:	0c0009f2 	jal	800027c8 <__panic>
80001aa8:	24c649b4 	addiu	a2,a2,18868
80001aac:	3c048001 	lui	a0,0x8001
80001ab0:	3c068001 	lui	a2,0x8001
80001ab4:	2484465c 	addiu	a0,a0,18012
80001ab8:	240501ee 	li	a1,494
80001abc:	0c0009f2 	jal	800027c8 <__panic>
80001ac0:	24c648e4 	addiu	a2,a2,18660
80001ac4:	3c048001 	lui	a0,0x8001
80001ac8:	3c068001 	lui	a2,0x8001
80001acc:	2484465c 	addiu	a0,a0,18012
80001ad0:	24050202 	li	a1,514
80001ad4:	0c0009f2 	jal	800027c8 <__panic>
80001ad8:	24c649f4 	addiu	a2,a2,18932
80001adc:	3c068001 	lui	a2,0x8001
80001ae0:	2484465c 	addiu	a0,a0,18012
80001ae4:	240501b5 	li	a1,437
80001ae8:	0c0009f2 	jal	800027c8 <__panic>
80001aec:	24c648e4 	addiu	a2,a2,18660
80001af0:	3c048001 	lui	a0,0x8001
80001af4:	3c068001 	lui	a2,0x8001
80001af8:	2484465c 	addiu	a0,a0,18012
80001afc:	240501b2 	li	a1,434
80001b00:	0c0009f2 	jal	800027c8 <__panic>
80001b04:	24c648c4 	addiu	a2,a2,18628

80001b08 <readline>:
80001b08:	27bdffd0 	addiu	sp,sp,-48
80001b0c:	afbf002c 	sw	ra,44(sp)
80001b10:	afb40028 	sw	s4,40(sp)
80001b14:	afb30024 	sw	s3,36(sp)
80001b18:	afb20020 	sw	s2,32(sp)
80001b1c:	afb1001c 	sw	s1,28(sp)
80001b20:	10800003 	beqz	a0,80001b30 <readline+0x28>
80001b24:	afb00018 	sw	s0,24(sp)
80001b28:	0c000727 	jal	80001c9c <kprintf>
80001b2c:	00000000 	nop
80001b30:	3c14800d 	lui	s4,0x800d
80001b34:	00008021 	move	s0,zero
80001b38:	2411000d 	li	s1,13
80001b3c:	24120008 	li	s2,8
80001b40:	2413000a 	li	s3,10
80001b44:	26946c50 	addiu	s4,s4,27728
80001b48:	0c0007a8 	jal	80001ea0 <getchar>
80001b4c:	00000000 	nop
80001b50:	28430020 	slti	v1,v0,32
80001b54:	04400020 	bltz	v0,80001bd8 <readline+0xd0>
80001b58:	2a0403ff 	slti	a0,s0,1023
80001b5c:	14600027 	bnez	v1,80001bfc <readline+0xf4>
80001b60:	00000000 	nop
80001b64:	14800011 	bnez	a0,80001bac <readline+0xa4>
80001b68:	00000000 	nop
80001b6c:	1451fff6 	bne	v0,s1,80001b48 <readline+0x40>
80001b70:	00000000 	nop
80001b74:	0c00078a 	jal	80001e28 <kputchar>
80001b78:	00402021 	move	a0,v0
80001b7c:	3c02800d 	lui	v0,0x800d
80001b80:	24426c50 	addiu	v0,v0,27728
80001b84:	02028021 	addu	s0,s0,v0
80001b88:	a2000000 	sb	zero,0(s0)
80001b8c:	8fbf002c 	lw	ra,44(sp)
80001b90:	8fb40028 	lw	s4,40(sp)
80001b94:	8fb30024 	lw	s3,36(sp)
80001b98:	8fb20020 	lw	s2,32(sp)
80001b9c:	8fb1001c 	lw	s1,28(sp)
80001ba0:	8fb00018 	lw	s0,24(sp)
80001ba4:	03e00008 	jr	ra
80001ba8:	27bd0030 	addiu	sp,sp,48
80001bac:	00402021 	move	a0,v0
80001bb0:	0c00078a 	jal	80001e28 <kputchar>
80001bb4:	afa20010 	sw	v0,16(sp)
80001bb8:	8fa20010 	lw	v0,16(sp)
80001bbc:	02141821 	addu	v1,s0,s4
80001bc0:	0c0007a8 	jal	80001ea0 <getchar>
80001bc4:	a0620000 	sb	v0,0(v1)
80001bc8:	26100001 	addiu	s0,s0,1
80001bcc:	28430020 	slti	v1,v0,32
80001bd0:	0441ffe2 	bgez	v0,80001b5c <readline+0x54>
80001bd4:	2a0403ff 	slti	a0,s0,1023
80001bd8:	8fbf002c 	lw	ra,44(sp)
80001bdc:	00001021 	move	v0,zero
80001be0:	8fb40028 	lw	s4,40(sp)
80001be4:	8fb30024 	lw	s3,36(sp)
80001be8:	8fb20020 	lw	s2,32(sp)
80001bec:	8fb1001c 	lw	s1,28(sp)
80001bf0:	8fb00018 	lw	s0,24(sp)
80001bf4:	03e00008 	jr	ra
80001bf8:	27bd0030 	addiu	sp,sp,48
80001bfc:	14520007 	bne	v0,s2,80001c1c <readline+0x114>
80001c00:	00000000 	nop
80001c04:	1200ffd0 	beqz	s0,80001b48 <readline+0x40>
80001c08:	24040008 	li	a0,8
80001c0c:	0c00078a 	jal	80001e28 <kputchar>
80001c10:	2610ffff 	addiu	s0,s0,-1
80001c14:	080006d2 	j	80001b48 <readline+0x40>
80001c18:	00000000 	nop
80001c1c:	1053ffd5 	beq	v0,s3,80001b74 <readline+0x6c>
80001c20:	00000000 	nop
80001c24:	1451ffc8 	bne	v0,s1,80001b48 <readline+0x40>
80001c28:	00000000 	nop
80001c2c:	080006dd 	j	80001b74 <readline+0x6c>
80001c30:	00000000 	nop

80001c34 <cputch>:
80001c34:	27bdffe0 	addiu	sp,sp,-32
80001c38:	afbf001c 	sw	ra,28(sp)
80001c3c:	0c000aa0 	jal	80002a80 <cons_putc>
80001c40:	afa50010 	sw	a1,16(sp)
80001c44:	8fa50010 	lw	a1,16(sp)
80001c48:	8fbf001c 	lw	ra,28(sp)
80001c4c:	8ca20000 	lw	v0,0(a1)
80001c50:	27bd0020 	addiu	sp,sp,32
80001c54:	24420001 	addiu	v0,v0,1
80001c58:	03e00008 	jr	ra
80001c5c:	aca20000 	sw	v0,0(a1)

80001c60 <vkprintf>:
80001c60:	27bdffd8 	addiu	sp,sp,-40
80001c64:	afa50010 	sw	a1,16(sp)
80001c68:	00803821 	move	a3,a0
80001c6c:	3c05ffff 	lui	a1,0xffff
80001c70:	3c048000 	lui	a0,0x8000
80001c74:	27a60018 	addiu	a2,sp,24
80001c78:	24841c34 	addiu	a0,a0,7220
80001c7c:	24a56ad9 	addiu	a1,a1,27353
80001c80:	afbf0024 	sw	ra,36(sp)
80001c84:	0c0000bf 	jal	800002fc <vprintfmt>
80001c88:	afa00018 	sw	zero,24(sp)
80001c8c:	8fbf0024 	lw	ra,36(sp)
80001c90:	8fa20018 	lw	v0,24(sp)
80001c94:	03e00008 	jr	ra
80001c98:	27bd0028 	addiu	sp,sp,40

80001c9c <kprintf>:
80001c9c:	27bdffe0 	addiu	sp,sp,-32
80001ca0:	27a20024 	addiu	v0,sp,36
80001ca4:	afa50024 	sw	a1,36(sp)
80001ca8:	00402821 	move	a1,v0
80001cac:	afbf001c 	sw	ra,28(sp)
80001cb0:	afa60028 	sw	a2,40(sp)
80001cb4:	afa7002c 	sw	a3,44(sp)
80001cb8:	0c000718 	jal	80001c60 <vkprintf>
80001cbc:	afa20010 	sw	v0,16(sp)
80001cc0:	8fbf001c 	lw	ra,28(sp)
80001cc4:	00000000 	nop
80001cc8:	03e00008 	jr	ra
80001ccc:	27bd0020 	addiu	sp,sp,32

80001cd0 <printhex>:
80001cd0:	27bdffd8 	addiu	sp,sp,-40
80001cd4:	3c058001 	lui	a1,0x8001
80001cd8:	afbf0024 	sw	ra,36(sp)
80001cdc:	a3a00018 	sb	zero,24(sp)
80001ce0:	27a20017 	addiu	v0,sp,23
80001ce4:	27a6000f 	addiu	a2,sp,15
80001ce8:	24a54a1c 	addiu	a1,a1,18972
80001cec:	3083000f 	andi	v1,a0,0xf
80001cf0:	00a31821 	addu	v1,a1,v1
80001cf4:	90630000 	lbu	v1,0(v1)
80001cf8:	00000000 	nop
80001cfc:	a0430000 	sb	v1,0(v0)
80001d00:	2442ffff 	addiu	v0,v0,-1
80001d04:	1446fff9 	bne	v0,a2,80001cec <printhex+0x1c>
80001d08:	00042102 	srl	a0,a0,0x4
80001d0c:	0c000727 	jal	80001c9c <kprintf>
80001d10:	27a40010 	addiu	a0,sp,16
80001d14:	8fbf0024 	lw	ra,36(sp)
80001d18:	00000000 	nop
80001d1c:	03e00008 	jr	ra
80001d20:	27bd0028 	addiu	sp,sp,40

80001d24 <printbase10>:
80001d24:	27bdffd0 	addiu	sp,sp,-48
80001d28:	afb00024 	sw	s0,36(sp)
80001d2c:	afbf002c 	sw	ra,44(sp)
80001d30:	afb10028 	sw	s1,40(sp)
80001d34:	04800038 	bltz	a0,80001e18 <printbase10+0xf4>
80001d38:	00808021 	move	s0,a0
80001d3c:	06000034 	bltz	s0,80001e10 <printbase10+0xec>
80001d40:	00000000 	nop
80001d44:	2a02000a 	slti	v0,s0,10
80001d48:	00002821 	move	a1,zero
80001d4c:	1440001d 	bnez	v0,80001dc4 <printbase10+0xa0>
80001d50:	27a70010 	addiu	a3,sp,16
80001d54:	00101042 	srl	v0,s0,0x1
80001d58:	00101882 	srl	v1,s0,0x2
80001d5c:	00621821 	addu	v1,v1,v0
80001d60:	00031102 	srl	v0,v1,0x4
80001d64:	00431821 	addu	v1,v0,v1
80001d68:	00031202 	srl	v0,v1,0x8
80001d6c:	00431821 	addu	v1,v0,v1
80001d70:	00031402 	srl	v0,v1,0x10
80001d74:	00431821 	addu	v1,v0,v1
80001d78:	000318c2 	srl	v1,v1,0x3
80001d7c:	26040006 	addiu	a0,s0,6
80001d80:	00031040 	sll	v0,v1,0x1
80001d84:	00821023 	subu	v0,a0,v0
80001d88:	000320c0 	sll	a0,v1,0x3
80001d8c:	00441023 	subu	v0,v0,a0
80001d90:	00021102 	srl	v0,v0,0x4
80001d94:	00431021 	addu	v0,v0,v1
80001d98:	000218c0 	sll	v1,v0,0x3
80001d9c:	00022040 	sll	a0,v0,0x1
80001da0:	26060030 	addiu	a2,s0,48
80001da4:	00832021 	addu	a0,a0,v1
80001da8:	00408021 	move	s0,v0
80001dac:	00e51821 	addu	v1,a3,a1
80001db0:	00c42023 	subu	a0,a2,a0
80001db4:	2842000a 	slti	v0,v0,10
80001db8:	a0640000 	sb	a0,0(v1)
80001dbc:	1040ffe5 	beqz	v0,80001d54 <printbase10+0x30>
80001dc0:	24a50001 	addiu	a1,a1,1
80001dc4:	26100030 	addiu	s0,s0,48
80001dc8:	320400ff 	andi	a0,s0,0xff
80001dcc:	00e51021 	addu	v0,a3,a1
80001dd0:	24b0ffff 	addiu	s0,a1,-1
80001dd4:	a0440000 	sb	a0,0(v0)
80001dd8:	00f08021 	addu	s0,a3,s0
80001ddc:	0800077b 	j	80001dec <printbase10+0xc8>
80001de0:	27b1000f 	addiu	s1,sp,15
80001de4:	92040000 	lbu	a0,0(s0)
80001de8:	2610ffff 	addiu	s0,s0,-1
80001dec:	0c000aa0 	jal	80002a80 <cons_putc>
80001df0:	00000000 	nop
80001df4:	1611fffb 	bne	s0,s1,80001de4 <printbase10+0xc0>
80001df8:	00000000 	nop
80001dfc:	8fbf002c 	lw	ra,44(sp)
80001e00:	8fb10028 	lw	s1,40(sp)
80001e04:	8fb00024 	lw	s0,36(sp)
80001e08:	03e00008 	jr	ra
80001e0c:	27bd0030 	addiu	sp,sp,48
80001e10:	08000751 	j	80001d44 <printbase10+0x20>
80001e14:	00108023 	negu	s0,s0
80001e18:	0c000aa0 	jal	80002a80 <cons_putc>
80001e1c:	2404002d 	li	a0,45
80001e20:	0800074f 	j	80001d3c <printbase10+0x18>
80001e24:	00000000 	nop

80001e28 <kputchar>:
80001e28:	08000aa0 	j	80002a80 <cons_putc>
80001e2c:	00000000 	nop

80001e30 <kputs>:
80001e30:	27bdffd8 	addiu	sp,sp,-40
80001e34:	afb0001c 	sw	s0,28(sp)
80001e38:	afbf0024 	sw	ra,36(sp)
80001e3c:	afb10020 	sw	s1,32(sp)
80001e40:	00808021 	move	s0,a0
80001e44:	90840000 	lbu	a0,0(a0)
80001e48:	00000000 	nop
80001e4c:	10800012 	beqz	a0,80001e98 <kputs+0x68>
80001e50:	afa00010 	sw	zero,16(sp)
80001e54:	26100001 	addiu	s0,s0,1
80001e58:	27b10010 	addiu	s1,sp,16
80001e5c:	0c00070d 	jal	80001c34 <cputch>
80001e60:	02202821 	move	a1,s1
80001e64:	92040000 	lbu	a0,0(s0)
80001e68:	00000000 	nop
80001e6c:	1480fffb 	bnez	a0,80001e5c <kputs+0x2c>
80001e70:	26100001 	addiu	s0,s0,1
80001e74:	02202821 	move	a1,s1
80001e78:	0c00070d 	jal	80001c34 <cputch>
80001e7c:	2404000a 	li	a0,10
80001e80:	8fbf0024 	lw	ra,36(sp)
80001e84:	8fa20010 	lw	v0,16(sp)
80001e88:	8fb10020 	lw	s1,32(sp)
80001e8c:	8fb0001c 	lw	s0,28(sp)
80001e90:	03e00008 	jr	ra
80001e94:	27bd0028 	addiu	sp,sp,40
80001e98:	0800079d 	j	80001e74 <kputs+0x44>
80001e9c:	27b10010 	addiu	s1,sp,16

80001ea0 <getchar>:
80001ea0:	27bdffe8 	addiu	sp,sp,-24
80001ea4:	afbf0014 	sw	ra,20(sp)
80001ea8:	0c000adf 	jal	80002b7c <cons_getc>
80001eac:	00000000 	nop
80001eb0:	1040fffd 	beqz	v0,80001ea8 <getchar+0x8>
80001eb4:	00000000 	nop
80001eb8:	8fbf0014 	lw	ra,20(sp)
80001ebc:	00000000 	nop
80001ec0:	03e00008 	jr	ra
80001ec4:	27bd0018 	addiu	sp,sp,24

80001ec8 <strlen>:
80001ec8:	90820000 	lbu	v0,0(a0)
80001ecc:	00000000 	nop
80001ed0:	10400008 	beqz	v0,80001ef4 <strlen+0x2c>
80001ed4:	00001021 	move	v0,zero
80001ed8:	24420001 	addiu	v0,v0,1
80001edc:	00821821 	addu	v1,a0,v0
80001ee0:	90630000 	lbu	v1,0(v1)
80001ee4:	00000000 	nop
80001ee8:	1460fffc 	bnez	v1,80001edc <strlen+0x14>
80001eec:	24420001 	addiu	v0,v0,1
80001ef0:	2442ffff 	addiu	v0,v0,-1
80001ef4:	03e00008 	jr	ra
80001ef8:	00000000 	nop

80001efc <strnlen>:
80001efc:	10a0000e 	beqz	a1,80001f38 <strnlen+0x3c>
80001f00:	00001021 	move	v0,zero
80001f04:	90820000 	lbu	v0,0(a0)
80001f08:	00000000 	nop
80001f0c:	1040000e 	beqz	v0,80001f48 <strnlen+0x4c>
80001f10:	00000000 	nop
80001f14:	080007cb 	j	80001f2c <strnlen+0x30>
80001f18:	00001021 	move	v0,zero
80001f1c:	90630000 	lbu	v1,0(v1)
80001f20:	00000000 	nop
80001f24:	10600006 	beqz	v1,80001f40 <strnlen+0x44>
80001f28:	00000000 	nop
80001f2c:	24420001 	addiu	v0,v0,1
80001f30:	1445fffa 	bne	v0,a1,80001f1c <strnlen+0x20>
80001f34:	00821821 	addu	v1,a0,v0
80001f38:	03e00008 	jr	ra
80001f3c:	00000000 	nop
80001f40:	03e00008 	jr	ra
80001f44:	00000000 	nop
80001f48:	03e00008 	jr	ra
80001f4c:	00001021 	move	v0,zero

80001f50 <strcpy>:
80001f50:	00801021 	move	v0,a0
80001f54:	00801821 	move	v1,a0
80001f58:	90a40000 	lbu	a0,0(a1)
80001f5c:	24a50001 	addiu	a1,a1,1
80001f60:	a0640000 	sb	a0,0(v1)
80001f64:	1480fffc 	bnez	a0,80001f58 <strcpy+0x8>
80001f68:	24630001 	addiu	v1,v1,1
80001f6c:	03e00008 	jr	ra
80001f70:	00000000 	nop

80001f74 <strncpy>:
80001f74:	10c0000b 	beqz	a2,80001fa4 <strncpy+0x30>
80001f78:	00801021 	move	v0,a0
80001f7c:	00863021 	addu	a2,a0,a2
80001f80:	00801821 	move	v1,a0
80001f84:	90a40000 	lbu	a0,0(a1)
80001f88:	00000000 	nop
80001f8c:	a0640000 	sb	a0,0(v1)
80001f90:	10800002 	beqz	a0,80001f9c <strncpy+0x28>
80001f94:	24630001 	addiu	v1,v1,1
80001f98:	24a50001 	addiu	a1,a1,1
80001f9c:	1466fff9 	bne	v1,a2,80001f84 <strncpy+0x10>
80001fa0:	00000000 	nop
80001fa4:	03e00008 	jr	ra
80001fa8:	00000000 	nop

80001fac <strcmp>:
80001fac:	90830000 	lbu	v1,0(a0)
80001fb0:	90a20000 	lbu	v0,0(a1)
80001fb4:	1060000c 	beqz	v1,80001fe8 <strcmp+0x3c>
80001fb8:	00000000 	nop
80001fbc:	1462000a 	bne	v1,v0,80001fe8 <strcmp+0x3c>
80001fc0:	24840001 	addiu	a0,a0,1
80001fc4:	080007f6 	j	80001fd8 <strcmp+0x2c>
80001fc8:	00000000 	nop
80001fcc:	14620006 	bne	v1,v0,80001fe8 <strcmp+0x3c>
80001fd0:	24840001 	addiu	a0,a0,1
80001fd4:	00c02821 	move	a1,a2
80001fd8:	90830000 	lbu	v1,0(a0)
80001fdc:	90a20001 	lbu	v0,1(a1)
80001fe0:	1460fffa 	bnez	v1,80001fcc <strcmp+0x20>
80001fe4:	24a60001 	addiu	a2,a1,1
80001fe8:	03e00008 	jr	ra
80001fec:	00621023 	subu	v0,v1,v0

80001ff0 <strncmp>:
80001ff0:	10c00017 	beqz	a2,80002050 <strncmp+0x60>
80001ff4:	00001021 	move	v0,zero
80001ff8:	90820000 	lbu	v0,0(a0)
80001ffc:	90a30000 	lbu	v1,0(a1)
80002000:	10400011 	beqz	v0,80002048 <strncmp+0x58>
80002004:	00000000 	nop
80002008:	1443000f 	bne	v0,v1,80002048 <strncmp+0x58>
8000200c:	00a63021 	addu	a2,a1,a2
80002010:	24c6ffff 	addiu	a2,a2,-1
80002014:	10a6000a 	beq	a1,a2,80002040 <strncmp+0x50>
80002018:	24840001 	addiu	a0,a0,1
8000201c:	90820000 	lbu	v0,0(a0)
80002020:	90a30001 	lbu	v1,1(a1)
80002024:	10400008 	beqz	v0,80002048 <strncmp+0x58>
80002028:	24a70001 	addiu	a3,a1,1
8000202c:	14430006 	bne	v0,v1,80002048 <strncmp+0x58>
80002030:	24840001 	addiu	a0,a0,1
80002034:	00e02821 	move	a1,a3
80002038:	14a6fff8 	bne	a1,a2,8000201c <strncmp+0x2c>
8000203c:	00000000 	nop
80002040:	03e00008 	jr	ra
80002044:	00001021 	move	v0,zero
80002048:	03e00008 	jr	ra
8000204c:	00431023 	subu	v0,v0,v1
80002050:	03e00008 	jr	ra
80002054:	00000000 	nop

80002058 <strchr>:
80002058:	90830000 	lbu	v1,0(a0)
8000205c:	00801021 	move	v0,a0
80002060:	1060000d 	beqz	v1,80002098 <strchr+0x40>
80002064:	30a500ff 	andi	a1,a1,0xff
80002068:	14650005 	bne	v1,a1,80002080 <strchr+0x28>
8000206c:	00000000 	nop
80002070:	08000828 	j	800020a0 <strchr+0x48>
80002074:	00000000 	nop
80002078:	10650009 	beq	v1,a1,800020a0 <strchr+0x48>
8000207c:	00000000 	nop
80002080:	90430001 	lbu	v1,1(v0)
80002084:	00000000 	nop
80002088:	1460fffb 	bnez	v1,80002078 <strchr+0x20>
8000208c:	24420001 	addiu	v0,v0,1
80002090:	03e00008 	jr	ra
80002094:	00001021 	move	v0,zero
80002098:	03e00008 	jr	ra
8000209c:	00001021 	move	v0,zero
800020a0:	03e00008 	jr	ra
800020a4:	00000000 	nop

800020a8 <strfind>:
800020a8:	90830000 	lbu	v1,0(a0)
800020ac:	00801021 	move	v0,a0
800020b0:	1060000c 	beqz	v1,800020e4 <strfind+0x3c>
800020b4:	30a500ff 	andi	a1,a1,0xff
800020b8:	14650006 	bne	v1,a1,800020d4 <strfind+0x2c>
800020bc:	24420001 	addiu	v0,v0,1
800020c0:	03e00008 	jr	ra
800020c4:	2442ffff 	addiu	v0,v0,-1
800020c8:	10650008 	beq	v1,a1,800020ec <strfind+0x44>
800020cc:	00000000 	nop
800020d0:	24420001 	addiu	v0,v0,1
800020d4:	90430000 	lbu	v1,0(v0)
800020d8:	00000000 	nop
800020dc:	1460fffa 	bnez	v1,800020c8 <strfind+0x20>
800020e0:	00000000 	nop
800020e4:	03e00008 	jr	ra
800020e8:	00000000 	nop
800020ec:	03e00008 	jr	ra
800020f0:	00000000 	nop

800020f4 <memset>:
800020f4:	10c00007 	beqz	a2,80002114 <memset+0x20>
800020f8:	00801021 	move	v0,a0
800020fc:	00863021 	addu	a2,a0,a2
80002100:	00801821 	move	v1,a0
80002104:	a0650000 	sb	a1,0(v1)
80002108:	24630001 	addiu	v1,v1,1
8000210c:	1466fffd 	bne	v1,a2,80002104 <memset+0x10>
80002110:	00000000 	nop
80002114:	03e00008 	jr	ra
80002118:	00000000 	nop

8000211c <memcpy>:
8000211c:	10c00008 	beqz	a2,80002140 <memcpy+0x24>
80002120:	00801021 	move	v0,a0
80002124:	00a63021 	addu	a2,a1,a2
80002128:	00801821 	move	v1,a0
8000212c:	90a40000 	lbu	a0,0(a1)
80002130:	24a50001 	addiu	a1,a1,1
80002134:	a0640000 	sb	a0,0(v1)
80002138:	14a6fffc 	bne	a1,a2,8000212c <memcpy+0x10>
8000213c:	24630001 	addiu	v1,v1,1
80002140:	03e00008 	jr	ra
80002144:	00000000 	nop

80002148 <memmove>:
80002148:	00a4182b 	sltu	v1,a1,a0
8000214c:	10600014 	beqz	v1,800021a0 <memmove+0x58>
80002150:	00801021 	move	v0,a0
80002154:	00a64021 	addu	t0,a1,a2
80002158:	0088182b 	sltu	v1,a0,t0
8000215c:	10600010 	beqz	v1,800021a0 <memmove+0x58>
80002160:	00000000 	nop
80002164:	10c0000c 	beqz	a2,80002198 <memmove+0x50>
80002168:	00061823 	negu	v1,a2
8000216c:	00863821 	addu	a3,a0,a2
80002170:	01034021 	addu	t0,t0,v1
80002174:	24c6ffff 	addiu	a2,a2,-1
80002178:	00e33821 	addu	a3,a3,v1
8000217c:	2405ffff 	li	a1,-1
80002180:	01061821 	addu	v1,t0,a2
80002184:	90640000 	lbu	a0,0(v1)
80002188:	00e61821 	addu	v1,a3,a2
8000218c:	24c6ffff 	addiu	a2,a2,-1
80002190:	14c5fffb 	bne	a2,a1,80002180 <memmove+0x38>
80002194:	a0640000 	sb	a0,0(v1)
80002198:	03e00008 	jr	ra
8000219c:	00000000 	nop
800021a0:	10c0fffd 	beqz	a2,80002198 <memmove+0x50>
800021a4:	00a63021 	addu	a2,a1,a2
800021a8:	00401821 	move	v1,v0
800021ac:	90a40000 	lbu	a0,0(a1)
800021b0:	24a50001 	addiu	a1,a1,1
800021b4:	a0640000 	sb	a0,0(v1)
800021b8:	14a6fffc 	bne	a1,a2,800021ac <memmove+0x64>
800021bc:	24630001 	addiu	v1,v1,1
800021c0:	03e00008 	jr	ra
800021c4:	00000000 	nop

800021c8 <memcmp>:
800021c8:	10c00011 	beqz	a2,80002210 <memcmp+0x48>
800021cc:	00001021 	move	v0,zero
800021d0:	90870000 	lbu	a3,0(a0)
800021d4:	90a20000 	lbu	v0,0(a1)
800021d8:	00000000 	nop
800021dc:	14e2000a 	bne	a3,v0,80002208 <memcmp+0x40>
800021e0:	24840001 	addiu	a0,a0,1
800021e4:	24a30001 	addiu	v1,a1,1
800021e8:	00a63021 	addu	a2,a1,a2
800021ec:	10660008 	beq	v1,a2,80002210 <memcmp+0x48>
800021f0:	00001021 	move	v0,zero
800021f4:	90870000 	lbu	a3,0(a0)
800021f8:	90620000 	lbu	v0,0(v1)
800021fc:	24840001 	addiu	a0,a0,1
80002200:	10e2fffa 	beq	a3,v0,800021ec <memcmp+0x24>
80002204:	24630001 	addiu	v1,v1,1
80002208:	03e00008 	jr	ra
8000220c:	00e21023 	subu	v0,a3,v0
80002210:	03e00008 	jr	ra
80002214:	00000000 	nop

80002218 <strdup>:
80002218:	27bdffe0 	addiu	sp,sp,-32
8000221c:	afb00014 	sw	s0,20(sp)
80002220:	afbf001c 	sw	ra,28(sp)
80002224:	afb10018 	sw	s1,24(sp)
80002228:	90820000 	lbu	v0,0(a0)
8000222c:	00000000 	nop
80002230:	1040001e 	beqz	v0,800022ac <strdup+0x94>
80002234:	00808021 	move	s0,a0
80002238:	00008821 	move	s1,zero
8000223c:	26310001 	addiu	s1,s1,1
80002240:	02111021 	addu	v0,s0,s1
80002244:	90420000 	lbu	v0,0(v0)
80002248:	00000000 	nop
8000224c:	1440fffc 	bnez	v0,80002240 <strdup+0x28>
80002250:	26310001 	addiu	s1,s1,1
80002254:	2631ffff 	addiu	s1,s1,-1
80002258:	26240001 	addiu	a0,s1,1
8000225c:	0c001716 	jal	80005c58 <kmalloc>
80002260:	00000000 	nop
80002264:	1040000c 	beqz	v0,80002298 <strdup+0x80>
80002268:	00000000 	nop
8000226c:	12200012 	beqz	s1,800022b8 <strdup+0xa0>
80002270:	00000000 	nop
80002274:	00518821 	addu	s1,v0,s1
80002278:	00401821 	move	v1,v0
8000227c:	92040000 	lbu	a0,0(s0)
80002280:	00000000 	nop
80002284:	a0640000 	sb	a0,0(v1)
80002288:	24630001 	addiu	v1,v1,1
8000228c:	1471fffb 	bne	v1,s1,8000227c <strdup+0x64>
80002290:	26100001 	addiu	s0,s0,1
80002294:	a2200000 	sb	zero,0(s1)
80002298:	8fbf001c 	lw	ra,28(sp)
8000229c:	8fb10018 	lw	s1,24(sp)
800022a0:	8fb00014 	lw	s0,20(sp)
800022a4:	03e00008 	jr	ra
800022a8:	27bd0020 	addiu	sp,sp,32
800022ac:	24040001 	li	a0,1
800022b0:	08000897 	j	8000225c <strdup+0x44>
800022b4:	00008821 	move	s1,zero
800022b8:	080008a5 	j	80002294 <strdup+0x7c>
800022bc:	00408821 	move	s1,v0

800022c0 <stradd>:
800022c0:	27bdffd8 	addiu	sp,sp,-40
800022c4:	afb00018 	sw	s0,24(sp)
800022c8:	afbf0024 	sw	ra,36(sp)
800022cc:	afb20020 	sw	s2,32(sp)
800022d0:	afb1001c 	sw	s1,28(sp)
800022d4:	90820000 	lbu	v0,0(a0)
800022d8:	00000000 	nop
800022dc:	10400035 	beqz	v0,800023b4 <stradd+0xf4>
800022e0:	00808021 	move	s0,a0
800022e4:	00009021 	move	s2,zero
800022e8:	26520001 	addiu	s2,s2,1
800022ec:	02121021 	addu	v0,s0,s2
800022f0:	90420000 	lbu	v0,0(v0)
800022f4:	00000000 	nop
800022f8:	1440fffc 	bnez	v0,800022ec <stradd+0x2c>
800022fc:	26520001 	addiu	s2,s2,1
80002300:	2652ffff 	addiu	s2,s2,-1
80002304:	26440001 	addiu	a0,s2,1
80002308:	90a20000 	lbu	v0,0(a1)
8000230c:	00000000 	nop
80002310:	10400008 	beqz	v0,80002334 <stradd+0x74>
80002314:	00008821 	move	s1,zero
80002318:	26310001 	addiu	s1,s1,1
8000231c:	00b11021 	addu	v0,a1,s1
80002320:	90420000 	lbu	v0,0(v0)
80002324:	00000000 	nop
80002328:	1440fffc 	bnez	v0,8000231c <stradd+0x5c>
8000232c:	26310001 	addiu	s1,s1,1
80002330:	2631ffff 	addiu	s1,s1,-1
80002334:	02242021 	addu	a0,s1,a0
80002338:	0c001716 	jal	80005c58 <kmalloc>
8000233c:	afa50010 	sw	a1,16(sp)
80002340:	8fa50010 	lw	a1,16(sp)
80002344:	10400015 	beqz	v0,8000239c <stradd+0xdc>
80002348:	00000000 	nop
8000234c:	1240001c 	beqz	s2,800023c0 <stradd+0x100>
80002350:	00000000 	nop
80002354:	00529021 	addu	s2,v0,s2
80002358:	00401821 	move	v1,v0
8000235c:	92040000 	lbu	a0,0(s0)
80002360:	00000000 	nop
80002364:	a0640000 	sb	a0,0(v1)
80002368:	24630001 	addiu	v1,v1,1
8000236c:	1472fffb 	bne	v1,s2,8000235c <stradd+0x9c>
80002370:	26100001 	addiu	s0,s0,1
80002374:	12200014 	beqz	s1,800023c8 <stradd+0x108>
80002378:	00000000 	nop
8000237c:	02518821 	addu	s1,s2,s1
80002380:	90a30000 	lbu	v1,0(a1)
80002384:	00000000 	nop
80002388:	a2430000 	sb	v1,0(s2)
8000238c:	26520001 	addiu	s2,s2,1
80002390:	1651fffb 	bne	s2,s1,80002380 <stradd+0xc0>
80002394:	24a50001 	addiu	a1,a1,1
80002398:	a2200000 	sb	zero,0(s1)
8000239c:	8fbf0024 	lw	ra,36(sp)
800023a0:	8fb20020 	lw	s2,32(sp)
800023a4:	8fb1001c 	lw	s1,28(sp)
800023a8:	8fb00018 	lw	s0,24(sp)
800023ac:	03e00008 	jr	ra
800023b0:	27bd0028 	addiu	sp,sp,40
800023b4:	24040001 	li	a0,1
800023b8:	080008c2 	j	80002308 <stradd+0x48>
800023bc:	00009021 	move	s2,zero
800023c0:	080008dd 	j	80002374 <stradd+0xb4>
800023c4:	00409021 	move	s2,v0
800023c8:	080008e6 	j	80002398 <stradd+0xd8>
800023cc:	02408821 	move	s1,s2

800023d0 <print_kerninfo>:
800023d0:	3c048001 	lui	a0,0x8001
800023d4:	27bdffe0 	addiu	sp,sp,-32
800023d8:	24844a30 	addiu	a0,a0,18992
800023dc:	afbf001c 	sw	ra,28(sp)
800023e0:	afb20018 	sw	s2,24(sp)
800023e4:	afb10014 	sw	s1,20(sp)
800023e8:	0c000727 	jal	80001c9c <kprintf>
800023ec:	afb00010 	sw	s0,16(sp)
800023f0:	3c048001 	lui	a0,0x8001
800023f4:	0c000727 	jal	80001c9c <kprintf>
800023f8:	24844a4c 	addiu	a0,a0,19020
800023fc:	3c048000 	lui	a0,0x8000
80002400:	3c108001 	lui	s0,0x8001
80002404:	0c000734 	jal	80001cd0 <printhex>
80002408:	248400bc 	addiu	a0,a0,188
8000240c:	0c000727 	jal	80001c9c <kprintf>
80002410:	26044a58 	addiu	a0,s0,19032
80002414:	3c048001 	lui	a0,0x8001
80002418:	24844a64 	addiu	a0,a0,19044
8000241c:	0c000727 	jal	80001c9c <kprintf>
80002420:	3c118002 	lui	s1,0x8002
80002424:	0c000734 	jal	80001cd0 <printhex>
80002428:	26249400 	addiu	a0,s1,-27648
8000242c:	0c000727 	jal	80001c9c <kprintf>
80002430:	26044a58 	addiu	a0,s0,19032
80002434:	3c048001 	lui	a0,0x8001
80002438:	0c000727 	jal	80001c9c <kprintf>
8000243c:	24844a70 	addiu	a0,a0,19056
80002440:	3c04800d 	lui	a0,0x800d
80002444:	0c000734 	jal	80001cd0 <printhex>
80002448:	24846c50 	addiu	a0,a0,27728
8000244c:	0c000727 	jal	80001c9c <kprintf>
80002450:	26044a58 	addiu	a0,s0,19032
80002454:	3c048001 	lui	a0,0x8001
80002458:	3c12800e 	lui	s2,0x800e
8000245c:	0c000727 	jal	80001c9c <kprintf>
80002460:	24844a7c 	addiu	a0,a0,19068
80002464:	0c000734 	jal	80001cd0 <printhex>
80002468:	2644a9d0 	addiu	a0,s2,-22064
8000246c:	0c000727 	jal	80001c9c <kprintf>
80002470:	26044a58 	addiu	a0,s0,19032
80002474:	3c048001 	lui	a0,0x8001
80002478:	0c000727 	jal	80001c9c <kprintf>
8000247c:	24844a88 	addiu	a0,a0,19080
80002480:	2644a9d0 	addiu	a0,s2,-22064
80002484:	26319400 	addiu	s1,s1,-27648
80002488:	248403ff 	addiu	a0,a0,1023
8000248c:	00912023 	subu	a0,a0,s1
80002490:	0c000749 	jal	80001d24 <printbase10>
80002494:	00042283 	sra	a0,a0,0xa
80002498:	3c048001 	lui	a0,0x8001
8000249c:	8fbf001c 	lw	ra,28(sp)
800024a0:	8fb20018 	lw	s2,24(sp)
800024a4:	8fb10014 	lw	s1,20(sp)
800024a8:	8fb00010 	lw	s0,16(sp)
800024ac:	24844ab0 	addiu	a0,a0,19120
800024b0:	08000727 	j	80001c9c <kprintf>
800024b4:	27bd0020 	addiu	sp,sp,32

800024b8 <print_debuginfo>:
800024b8:	3c048001 	lui	a0,0x8001
800024bc:	3c068001 	lui	a2,0x8001
800024c0:	27bdffe8 	addiu	sp,sp,-24
800024c4:	24844ab4 	addiu	a0,a0,19124
800024c8:	2405002e 	li	a1,46
800024cc:	afbf0014 	sw	ra,20(sp)
800024d0:	0c0009f2 	jal	800027c8 <__panic>
800024d4:	24c64ac8 	addiu	a2,a2,19144

800024d8 <print_stackframe>:
800024d8:	3c048001 	lui	a0,0x8001
800024dc:	3c068001 	lui	a2,0x8001
800024e0:	27bdffe8 	addiu	sp,sp,-24
800024e4:	24844ab4 	addiu	a0,a0,19124
800024e8:	24050056 	li	a1,86
800024ec:	afbf0014 	sw	ra,20(sp)
800024f0:	0c0009f2 	jal	800027c8 <__panic>
800024f4:	24c64ac8 	addiu	a2,a2,19144

800024f8 <mon_kerninfo>:
800024f8:	27bdffe8 	addiu	sp,sp,-24
800024fc:	afbf0014 	sw	ra,20(sp)
80002500:	0c0008f4 	jal	800023d0 <print_kerninfo>
80002504:	00000000 	nop
80002508:	8fbf0014 	lw	ra,20(sp)
8000250c:	00001021 	move	v0,zero
80002510:	03e00008 	jr	ra
80002514:	27bd0018 	addiu	sp,sp,24

80002518 <mon_help>:
80002518:	27bdffe0 	addiu	sp,sp,-32
8000251c:	3c048001 	lui	a0,0x8001
80002520:	afb10018 	sw	s1,24(sp)
80002524:	24844ad0 	addiu	a0,a0,19152
80002528:	3c118001 	lui	s1,0x8001
8000252c:	afbf001c 	sw	ra,28(sp)
80002530:	0c000727 	jal	80001c9c <kprintf>
80002534:	afb00014 	sw	s0,20(sp)
80002538:	0c000727 	jal	80001c9c <kprintf>
8000253c:	26244ad8 	addiu	a0,s1,19160
80002540:	3c048001 	lui	a0,0x8001
80002544:	3c108001 	lui	s0,0x8001
80002548:	0c000727 	jal	80001c9c <kprintf>
8000254c:	24844adc 	addiu	a0,a0,19164
80002550:	0c000727 	jal	80001c9c <kprintf>
80002554:	26044480 	addiu	a0,s0,17536
80002558:	3c048001 	lui	a0,0x8001
8000255c:	0c000727 	jal	80001c9c <kprintf>
80002560:	24844afc 	addiu	a0,a0,19196
80002564:	0c000727 	jal	80001c9c <kprintf>
80002568:	26244ad8 	addiu	a0,s1,19160
8000256c:	3c048001 	lui	a0,0x8001
80002570:	0c000727 	jal	80001c9c <kprintf>
80002574:	24844b08 	addiu	a0,a0,19208
80002578:	0c000727 	jal	80001c9c <kprintf>
8000257c:	26044480 	addiu	a0,s0,17536
80002580:	8fbf001c 	lw	ra,28(sp)
80002584:	00001021 	move	v0,zero
80002588:	8fb10018 	lw	s1,24(sp)
8000258c:	8fb00014 	lw	s0,20(sp)
80002590:	03e00008 	jr	ra
80002594:	27bd0020 	addiu	sp,sp,32

80002598 <monitor>:
80002598:	27bdff78 	addiu	sp,sp,-136
8000259c:	afb7007c 	sw	s7,124(sp)
800025a0:	0080b821 	move	s7,a0
800025a4:	3c048001 	lui	a0,0x8001
800025a8:	24844b30 	addiu	a0,a0,19248
800025ac:	afbf0084 	sw	ra,132(sp)
800025b0:	afbe0080 	sw	s8,128(sp)
800025b4:	afb60078 	sw	s6,120(sp)
800025b8:	afb50074 	sw	s5,116(sp)
800025bc:	afb40070 	sw	s4,112(sp)
800025c0:	afb3006c 	sw	s3,108(sp)
800025c4:	afb20068 	sw	s2,104(sp)
800025c8:	afb10064 	sw	s1,100(sp)
800025cc:	0c000727 	jal	80001c9c <kprintf>
800025d0:	afb00060 	sw	s0,96(sp)
800025d4:	3c048001 	lui	a0,0x8001
800025d8:	0c000727 	jal	80001c9c <kprintf>
800025dc:	24844b58 	addiu	a0,a0,19288
800025e0:	12e00004 	beqz	s7,800025f4 <monitor+0x5c>
800025e4:	3c028001 	lui	v0,0x8001
800025e8:	0c000d7d 	jal	800035f4 <print_trapframe>
800025ec:	02e02021 	move	a0,s7
800025f0:	3c028001 	lui	v0,0x8001
800025f4:	244236b8 	addiu	v0,v0,14008
800025f8:	3c108001 	lui	s0,0x8001
800025fc:	3c128001 	lui	s2,0x8001
80002600:	3c168001 	lui	s6,0x8001
80002604:	3c118001 	lui	s1,0x8001
80002608:	3c138001 	lui	s3,0x8001
8000260c:	afa20054 	sw	v0,84(sp)
80002610:	27be0014 	addiu	s8,sp,20
80002614:	26104b84 	addiu	s0,s0,19332
80002618:	26524b8c 	addiu	s2,s2,19340
8000261c:	3c148001 	lui	s4,0x8001
80002620:	26d64ba4 	addiu	s6,s6,19364
80002624:	3c158001 	lui	s5,0x8001
80002628:	0c0006c2 	jal	80001b08 <readline>
8000262c:	26244b80 	addiu	a0,s1,19328
80002630:	1040fffd 	beqz	v0,80002628 <monitor+0x90>
80002634:	00401821 	move	v1,v0
80002638:	90450000 	lbu	a1,0(v0)
8000263c:	afa00050 	sw	zero,80(sp)
80002640:	14a00018 	bnez	a1,800026a4 <monitor+0x10c>
80002644:	02002021 	move	a0,s0
80002648:	8fa30050 	lw	v1,80(sp)
8000264c:	00000000 	nop
80002650:	1060fff5 	beqz	v1,80002628 <monitor+0x90>
80002654:	00000000 	nop
80002658:	8fa50010 	lw	a1,16(sp)
8000265c:	0c0007eb 	jal	80001fac <strcmp>
80002660:	26644ad0 	addiu	a0,s3,19152
80002664:	1040003f 	beqz	v0,80002764 <monitor+0x1cc>
80002668:	00001021 	move	v0,zero
8000266c:	8fa50010 	lw	a1,16(sp)
80002670:	0c0007eb 	jal	80001fac <strcmp>
80002674:	26844afc 	addiu	a0,s4,19196
80002678:	1040003a 	beqz	v0,80002764 <monitor+0x1cc>
8000267c:	24020001 	li	v0,1
80002680:	0c000727 	jal	80001c9c <kprintf>
80002684:	02c02021 	move	a0,s6
80002688:	8fa40010 	lw	a0,16(sp)
8000268c:	0c000727 	jal	80001c9c <kprintf>
80002690:	00000000 	nop
80002694:	0c000727 	jal	80001c9c <kprintf>
80002698:	26a44bb8 	addiu	a0,s5,19384
8000269c:	0800098a 	j	80002628 <monitor+0x90>
800026a0:	00000000 	nop
800026a4:	0c000816 	jal	80002058 <strchr>
800026a8:	afa30058 	sw	v1,88(sp)
800026ac:	8fa30058 	lw	v1,88(sp)
800026b0:	10400005 	beqz	v0,800026c8 <monitor+0x130>
800026b4:	00000000 	nop
800026b8:	a0600000 	sb	zero,0(v1)
800026bc:	90650001 	lbu	a1,1(v1)
800026c0:	08000990 	j	80002640 <monitor+0xa8>
800026c4:	24630001 	addiu	v1,v1,1
800026c8:	90620000 	lbu	v0,0(v1)
800026cc:	00000000 	nop
800026d0:	1040ffdd 	beqz	v0,80002648 <monitor+0xb0>
800026d4:	2402000f 	li	v0,15
800026d8:	8fa40050 	lw	a0,80(sp)
800026dc:	00000000 	nop
800026e0:	1082001b 	beq	a0,v0,80002750 <monitor+0x1b8>
800026e4:	00000000 	nop
800026e8:	8fa40050 	lw	a0,80(sp)
800026ec:	00000000 	nop
800026f0:	00041080 	sll	v0,a0,0x2
800026f4:	27a40010 	addiu	a0,sp,16
800026f8:	00821021 	addu	v0,a0,v0
800026fc:	ac430000 	sw	v1,0(v0)
80002700:	8fa20050 	lw	v0,80(sp)
80002704:	90650000 	lbu	a1,0(v1)
80002708:	24420001 	addiu	v0,v0,1
8000270c:	14a00007 	bnez	a1,8000272c <monitor+0x194>
80002710:	afa20050 	sw	v0,80(sp)
80002714:	08000992 	j	80002648 <monitor+0xb0>
80002718:	00000000 	nop
8000271c:	90650001 	lbu	a1,1(v1)
80002720:	00000000 	nop
80002724:	10a0ffc8 	beqz	a1,80002648 <monitor+0xb0>
80002728:	24630001 	addiu	v1,v1,1
8000272c:	02002021 	move	a0,s0
80002730:	0c000816 	jal	80002058 <strchr>
80002734:	afa30058 	sw	v1,88(sp)
80002738:	8fa30058 	lw	v1,88(sp)
8000273c:	1040fff7 	beqz	v0,8000271c <monitor+0x184>
80002740:	00000000 	nop
80002744:	90650000 	lbu	a1,0(v1)
80002748:	08000990 	j	80002640 <monitor+0xa8>
8000274c:	00000000 	nop
80002750:	0c000727 	jal	80001c9c <kprintf>
80002754:	02402021 	move	a0,s2
80002758:	8fa30058 	lw	v1,88(sp)
8000275c:	080009ba 	j	800026e8 <monitor+0x150>
80002760:	00000000 	nop
80002764:	00021880 	sll	v1,v0,0x2
80002768:	00021100 	sll	v0,v0,0x4
8000276c:	00431023 	subu	v0,v0,v1
80002770:	8fa30054 	lw	v1,84(sp)
80002774:	03c02821 	move	a1,s8
80002778:	00621021 	addu	v0,v1,v0
8000277c:	8fa30050 	lw	v1,80(sp)
80002780:	8c420008 	lw	v0,8(v0)
80002784:	2464ffff 	addiu	a0,v1,-1
80002788:	0040f809 	jalr	v0
8000278c:	02e03021 	move	a2,s7
80002790:	0441ffa5 	bgez	v0,80002628 <monitor+0x90>
80002794:	00000000 	nop
80002798:	8fbf0084 	lw	ra,132(sp)
8000279c:	8fbe0080 	lw	s8,128(sp)
800027a0:	8fb7007c 	lw	s7,124(sp)
800027a4:	8fb60078 	lw	s6,120(sp)
800027a8:	8fb50074 	lw	s5,116(sp)
800027ac:	8fb40070 	lw	s4,112(sp)
800027b0:	8fb3006c 	lw	s3,108(sp)
800027b4:	8fb20068 	lw	s2,104(sp)
800027b8:	8fb10064 	lw	s1,100(sp)
800027bc:	8fb00060 	lw	s0,96(sp)
800027c0:	03e00008 	jr	ra
800027c4:	27bd0088 	addiu	sp,sp,136

800027c8 <__panic>:
800027c8:	3c02800d 	lui	v0,0x800d
800027cc:	8c437050 	lw	v1,28752(v0)
800027d0:	27bdffe0 	addiu	sp,sp,-32
800027d4:	afb00018 	sw	s0,24(sp)
800027d8:	afbf001c 	sw	ra,28(sp)
800027dc:	00a04021 	move	t0,a1
800027e0:	afa7002c 	sw	a3,44(sp)
800027e4:	10600007 	beqz	v1,80002804 <__panic+0x3c>
800027e8:	00c08021 	move	s0,a2
800027ec:	0c000b7d 	jal	80002df4 <intr_disable>
800027f0:	00000000 	nop
800027f4:	0c000966 	jal	80002598 <monitor>
800027f8:	00002021 	move	a0,zero
800027fc:	080009fd 	j	800027f4 <__panic+0x2c>
80002800:	00000000 	nop
80002804:	24030001 	li	v1,1
80002808:	00802821 	move	a1,a0
8000280c:	3c048001 	lui	a0,0x8001
80002810:	ac437050 	sw	v1,28752(v0)
80002814:	01003021 	move	a2,t0
80002818:	27a2002c 	addiu	v0,sp,44
8000281c:	24844bbc 	addiu	a0,a0,19388
80002820:	0c000727 	jal	80001c9c <kprintf>
80002824:	afa20010 	sw	v0,16(sp)
80002828:	8fa50010 	lw	a1,16(sp)
8000282c:	0c000718 	jal	80001c60 <vkprintf>
80002830:	02002021 	move	a0,s0
80002834:	3c048001 	lui	a0,0x8001
80002838:	0c000727 	jal	80001c9c <kprintf>
8000283c:	24844480 	addiu	a0,a0,17536
80002840:	080009fb 	j	800027ec <__panic+0x24>
80002844:	00000000 	nop

80002848 <__warn>:
80002848:	27bdffe0 	addiu	sp,sp,-32
8000284c:	00a01021 	move	v0,a1
80002850:	00802821 	move	a1,a0
80002854:	3c048001 	lui	a0,0x8001
80002858:	afb00018 	sw	s0,24(sp)
8000285c:	24844bd8 	addiu	a0,a0,19416
80002860:	00c08021 	move	s0,a2
80002864:	00403021 	move	a2,v0
80002868:	27a2002c 	addiu	v0,sp,44
8000286c:	afbf001c 	sw	ra,28(sp)
80002870:	afa7002c 	sw	a3,44(sp)
80002874:	0c000727 	jal	80001c9c <kprintf>
80002878:	afa20010 	sw	v0,16(sp)
8000287c:	8fa50010 	lw	a1,16(sp)
80002880:	0c000718 	jal	80001c60 <vkprintf>
80002884:	02002021 	move	a0,s0
80002888:	3c048001 	lui	a0,0x8001
8000288c:	0c000727 	jal	80001c9c <kprintf>
80002890:	24844480 	addiu	a0,a0,17536
80002894:	8fbf001c 	lw	ra,28(sp)
80002898:	8fb00018 	lw	s0,24(sp)
8000289c:	03e00008 	jr	ra
800028a0:	27bd0020 	addiu	sp,sp,32

800028a4 <is_kernel_panic>:
800028a4:	3c02800d 	lui	v0,0x800d
800028a8:	8c427050 	lw	v0,28752(v0)
800028ac:	03e00008 	jr	ra
800028b0:	00000000 	nop

800028b4 <clock_int_handler>:
800028b4:	3c02800e 	lui	v0,0x800e
800028b8:	8c43a9a8 	lw	v1,-22104(v0)
800028bc:	27bdffe8 	addiu	sp,sp,-24
800028c0:	24630001 	addiu	v1,v1,1
800028c4:	afbf0014 	sw	ra,20(sp)
800028c8:	0c002d61 	jal	8000b584 <run_timer_list>
800028cc:	ac43a9a8 	sw	v1,-22104(v0)
800028d0:	40024800 	mfc0	v0,c0_count
800028d4:	3c030013 	lui	v1,0x13
800028d8:	246312d0 	addiu	v1,v1,4816
800028dc:	00431021 	addu	v0,v0,v1
800028e0:	40825800 	mtc0	v0,c0_compare
800028e4:	8fbf0014 	lw	ra,20(sp)
800028e8:	3c03800e 	lui	v1,0x800e
800028ec:	ac62a9a4 	sw	v0,-22108(v1)
800028f0:	27bd0018 	addiu	sp,sp,24
800028f4:	03e00008 	jr	ra
800028f8:	00001021 	move	v0,zero

800028fc <clock_init>:
800028fc:	27bdffe8 	addiu	sp,sp,-24
80002900:	afbf0014 	sw	ra,20(sp)
80002904:	40024800 	mfc0	v0,c0_count
80002908:	3c030013 	lui	v1,0x13
8000290c:	246312d0 	addiu	v1,v1,4816
80002910:	00431021 	addu	v0,v0,v1
80002914:	40825800 	mtc0	v0,c0_compare
80002918:	24040007 	li	a0,7
8000291c:	3c03800e 	lui	v1,0x800e
80002920:	0c000b83 	jal	80002e0c <pic_enable>
80002924:	ac62a9a4 	sw	v0,-22108(v1)
80002928:	3c048001 	lui	a0,0x8001
8000292c:	8fbf0014 	lw	ra,20(sp)
80002930:	24844bf8 	addiu	a0,a0,19448
80002934:	08000727 	j	80001c9c <kprintf>
80002938:	27bd0018 	addiu	sp,sp,24

8000293c <keyboard_int_handler>:
8000293c:	3c02af00 	lui	v0,0xaf00
80002940:	8c420000 	lw	v0,0(v0)
80002944:	00000000 	nop
80002948:	2c430101 	sltiu	v1,v0,257
8000294c:	10600007 	beqz	v1,8000296c <keyboard_int_handler+0x30>
80002950:	3c038001 	lui	v1,0x8001
80002954:	246336d0 	addiu	v1,v1,14032
80002958:	00431021 	addu	v0,v0,v1
8000295c:	90440000 	lbu	a0,0(v0)
80002960:	00000000 	nop
80002964:	14800003 	bnez	a0,80002974 <keyboard_int_handler+0x38>
80002968:	00000000 	nop
8000296c:	03e00008 	jr	ra
80002970:	00000000 	nop
80002974:	08004b0a 	j	80012c28 <dev_stdin_write>
80002978:	00000000 	nop

8000297c <serial_intr>:
8000297c:	3c02800d 	lui	v0,0x800d
80002980:	8c427054 	lw	v0,28756(v0)
80002984:	00000000 	nop
80002988:	1040000a 	beqz	v0,800029b4 <serial_intr+0x38>
8000298c:	3c05800d 	lui	a1,0x800d
80002990:	3c03bfd0 	lui	v1,0xbfd0
80002994:	2404007f 	li	a0,127
80002998:	24a57058 	addiu	a1,a1,28760
8000299c:	24080200 	li	t0,512
800029a0:	8c6203fc 	lw	v0,1020(v1)
800029a4:	00000000 	nop
800029a8:	30420002 	andi	v0,v0,0x2
800029ac:	14400003 	bnez	v0,800029bc <serial_intr+0x40>
800029b0:	00000000 	nop
800029b4:	03e00008 	jr	ra
800029b8:	00000000 	nop
800029bc:	8c6203f8 	lw	v0,1016(v1)
800029c0:	00000000 	nop
800029c4:	304200ff 	andi	v0,v0,0xff
800029c8:	10440005 	beq	v0,a0,800029e0 <serial_intr+0x64>
800029cc:	00000000 	nop
800029d0:	1040fff3 	beqz	v0,800029a0 <serial_intr+0x24>
800029d4:	00000000 	nop
800029d8:	08000a79 	j	800029e4 <serial_intr+0x68>
800029dc:	00000000 	nop
800029e0:	24020008 	li	v0,8
800029e4:	8ca60204 	lw	a2,516(a1)
800029e8:	00000000 	nop
800029ec:	00c53821 	addu	a3,a2,a1
800029f0:	24c60001 	addiu	a2,a2,1
800029f4:	aca60204 	sw	a2,516(a1)
800029f8:	14c8ffe9 	bne	a2,t0,800029a0 <serial_intr+0x24>
800029fc:	a0e20000 	sb	v0,0(a3)
80002a00:	08000a68 	j	800029a0 <serial_intr+0x24>
80002a04:	aca00204 	sw	zero,516(a1)

80002a08 <cons_init>:
80002a08:	27bdffe8 	addiu	sp,sp,-24
80002a0c:	afb00010 	sw	s0,16(sp)
80002a10:	3c10800d 	lui	s0,0x800d
80002a14:	8e027054 	lw	v0,28756(s0)
80002a18:	00000000 	nop
80002a1c:	10400010 	beqz	v0,80002a60 <cons_init+0x58>
80002a20:	afbf0014 	sw	ra,20(sp)
80002a24:	0c000c6f 	jal	800031bc <vga_init>
80002a28:	00000000 	nop
80002a2c:	8e027054 	lw	v0,28756(s0)
80002a30:	00000000 	nop
80002a34:	10400005 	beqz	v0,80002a4c <cons_init+0x44>
80002a38:	3c048001 	lui	a0,0x8001
80002a3c:	8fbf0014 	lw	ra,20(sp)
80002a40:	8fb00010 	lw	s0,16(sp)
80002a44:	03e00008 	jr	ra
80002a48:	27bd0018 	addiu	sp,sp,24
80002a4c:	8fbf0014 	lw	ra,20(sp)
80002a50:	8fb00010 	lw	s0,16(sp)
80002a54:	24844c14 	addiu	a0,a0,19476
80002a58:	08000727 	j	80001c9c <kprintf>
80002a5c:	27bd0018 	addiu	sp,sp,24
80002a60:	24020001 	li	v0,1
80002a64:	24040004 	li	a0,4
80002a68:	0c000b83 	jal	80002e0c <pic_enable>
80002a6c:	ae027054 	sw	v0,28756(s0)
80002a70:	0c000b83 	jal	80002e0c <pic_enable>
80002a74:	24040006 	li	a0,6
80002a78:	08000a89 	j	80002a24 <cons_init+0x1c>
80002a7c:	00000000 	nop

80002a80 <cons_putc>:
80002a80:	27bdffe0 	addiu	sp,sp,-32
80002a84:	afbf001c 	sw	ra,28(sp)
80002a88:	afb00018 	sw	s0,24(sp)
80002a8c:	40026000 	mfc0	v0,c0_status
80002a90:	00000000 	nop
80002a94:	30420001 	andi	v0,v0,0x1
80002a98:	14400032 	bnez	v0,80002b64 <cons_putc+0xe4>
80002a9c:	00000000 	nop
80002aa0:	00008021 	move	s0,zero
80002aa4:	24020008 	li	v0,8
80002aa8:	1082000f 	beq	a0,v0,80002ae8 <cons_putc+0x68>
80002aac:	3c03bfd0 	lui	v1,0xbfd0
80002ab0:	8c6203fc 	lw	v0,1020(v1)
80002ab4:	00000000 	nop
80002ab8:	30420001 	andi	v0,v0,0x1
80002abc:	1040fffc 	beqz	v0,80002ab0 <cons_putc+0x30>
80002ac0:	3c02bfd0 	lui	v0,0xbfd0
80002ac4:	a04403f8 	sb	a0,1016(v0)
80002ac8:	0c000cd7 	jal	8000335c <vga_putch>
80002acc:	00000000 	nop
80002ad0:	16000020 	bnez	s0,80002b54 <cons_putc+0xd4>
80002ad4:	00000000 	nop
80002ad8:	8fbf001c 	lw	ra,28(sp)
80002adc:	8fb00018 	lw	s0,24(sp)
80002ae0:	03e00008 	jr	ra
80002ae4:	27bd0020 	addiu	sp,sp,32
80002ae8:	8c6203fc 	lw	v0,1020(v1)
80002aec:	00000000 	nop
80002af0:	30420001 	andi	v0,v0,0x1
80002af4:	1040fffc 	beqz	v0,80002ae8 <cons_putc+0x68>
80002af8:	3c02bfd0 	lui	v0,0xbfd0
80002afc:	24030008 	li	v1,8
80002b00:	a04303f8 	sb	v1,1016(v0)
80002b04:	3c03bfd0 	lui	v1,0xbfd0
80002b08:	8c6203fc 	lw	v0,1020(v1)
80002b0c:	00000000 	nop
80002b10:	30420001 	andi	v0,v0,0x1
80002b14:	1040fffc 	beqz	v0,80002b08 <cons_putc+0x88>
80002b18:	3c02bfd0 	lui	v0,0xbfd0
80002b1c:	24030020 	li	v1,32
80002b20:	a04303f8 	sb	v1,1016(v0)
80002b24:	3c03bfd0 	lui	v1,0xbfd0
80002b28:	8c6203fc 	lw	v0,1020(v1)
80002b2c:	00000000 	nop
80002b30:	30420001 	andi	v0,v0,0x1
80002b34:	1040fffc 	beqz	v0,80002b28 <cons_putc+0xa8>
80002b38:	3c02bfd0 	lui	v0,0xbfd0
80002b3c:	24030008 	li	v1,8
80002b40:	a04303f8 	sb	v1,1016(v0)
80002b44:	0c000cd7 	jal	8000335c <vga_putch>
80002b48:	00000000 	nop
80002b4c:	1200ffe2 	beqz	s0,80002ad8 <cons_putc+0x58>
80002b50:	00000000 	nop
80002b54:	8fbf001c 	lw	ra,28(sp)
80002b58:	8fb00018 	lw	s0,24(sp)
80002b5c:	08000b77 	j	80002ddc <intr_enable>
80002b60:	27bd0020 	addiu	sp,sp,32
80002b64:	afa40010 	sw	a0,16(sp)
80002b68:	0c000b7d 	jal	80002df4 <intr_disable>
80002b6c:	24100001 	li	s0,1
80002b70:	8fa40010 	lw	a0,16(sp)
80002b74:	08000aaa 	j	80002aa8 <cons_putc+0x28>
80002b78:	24020008 	li	v0,8

80002b7c <cons_getc>:
80002b7c:	27bdffe0 	addiu	sp,sp,-32
80002b80:	afbf001c 	sw	ra,28(sp)
80002b84:	afb00018 	sw	s0,24(sp)
80002b88:	40026000 	mfc0	v0,c0_status
80002b8c:	00000000 	nop
80002b90:	30420001 	andi	v0,v0,0x1
80002b94:	1440001a 	bnez	v0,80002c00 <cons_getc+0x84>
80002b98:	00000000 	nop
80002b9c:	0c000a5f 	jal	8000297c <serial_intr>
80002ba0:	00008021 	move	s0,zero
80002ba4:	3c03800d 	lui	v1,0x800d
80002ba8:	24637058 	addiu	v1,v1,28760
80002bac:	8c620200 	lw	v0,512(v1)
80002bb0:	8c640204 	lw	a0,516(v1)
80002bb4:	00000000 	nop
80002bb8:	1044001c 	beq	v0,a0,80002c2c <cons_getc+0xb0>
80002bbc:	00432821 	addu	a1,v0,v1
80002bc0:	24440001 	addiu	a0,v0,1
80002bc4:	90a20000 	lbu	v0,0(a1)
80002bc8:	24050200 	li	a1,512
80002bcc:	1085000a 	beq	a0,a1,80002bf8 <cons_getc+0x7c>
80002bd0:	ac640200 	sw	a0,512(v1)
80002bd4:	12000004 	beqz	s0,80002be8 <cons_getc+0x6c>
80002bd8:	00000000 	nop
80002bdc:	0c000b77 	jal	80002ddc <intr_enable>
80002be0:	afa20010 	sw	v0,16(sp)
80002be4:	8fa20010 	lw	v0,16(sp)
80002be8:	8fbf001c 	lw	ra,28(sp)
80002bec:	8fb00018 	lw	s0,24(sp)
80002bf0:	03e00008 	jr	ra
80002bf4:	27bd0020 	addiu	sp,sp,32
80002bf8:	08000af5 	j	80002bd4 <cons_getc+0x58>
80002bfc:	ac600200 	sw	zero,512(v1)
80002c00:	0c000b7d 	jal	80002df4 <intr_disable>
80002c04:	24100001 	li	s0,1
80002c08:	0c000a5f 	jal	8000297c <serial_intr>
80002c0c:	00000000 	nop
80002c10:	3c03800d 	lui	v1,0x800d
80002c14:	24637058 	addiu	v1,v1,28760
80002c18:	8c620200 	lw	v0,512(v1)
80002c1c:	8c640204 	lw	a0,516(v1)
80002c20:	00000000 	nop
80002c24:	1444ffe6 	bne	v0,a0,80002bc0 <cons_getc+0x44>
80002c28:	00432821 	addu	a1,v0,v1
80002c2c:	08000af5 	j	80002bd4 <cons_getc+0x58>
80002c30:	00001021 	move	v0,zero

80002c34 <serial_int_handler>:
80002c34:	27bdffe8 	addiu	sp,sp,-24
80002c38:	afbf0014 	sw	ra,20(sp)
80002c3c:	0c000adf 	jal	80002b7c <cons_getc>
80002c40:	00002021 	move	a0,zero
80002c44:	8fbf0014 	lw	ra,20(sp)
80002c48:	304400ff 	andi	a0,v0,0xff
80002c4c:	08004b0a 	j	80012c28 <dev_stdin_write>
80002c50:	27bd0018 	addiu	sp,sp,24

80002c54 <ide_init>:
80002c54:	27bdffe0 	addiu	sp,sp,-32
80002c58:	3c02800d 	lui	v0,0x800d
80002c5c:	afb10018 	sw	s1,24(sp)
80002c60:	3c11800d 	lui	s1,0x800d
80002c64:	afb00014 	sw	s0,20(sp)
80002c68:	262472e0 	addiu	a0,s1,29408
80002c6c:	24507260 	addiu	s0,v0,29280
80002c70:	ac407260 	sw	zero,29280(v0)
80002c74:	afbf001c 	sw	ra,28(sp)
80002c78:	ae000040 	sw	zero,64(s0)
80002c7c:	ae000080 	sw	zero,128(s0)
80002c80:	0c000bf6 	jal	80002fd8 <ramdisk_init_struct>
80002c84:	ae0000c0 	sw	zero,192(s0)
80002c88:	8e020080 	lw	v0,128(s0)
80002c8c:	00000000 	nop
80002c90:	1040000a 	beqz	v0,80002cbc <ide_init+0x68>
80002c94:	00000000 	nop
80002c98:	8e1900b4 	lw	t9,180(s0)
80002c9c:	00000000 	nop
80002ca0:	13200006 	beqz	t9,80002cbc <ide_init+0x68>
80002ca4:	262472e0 	addiu	a0,s1,29408
80002ca8:	8fbf001c 	lw	ra,28(sp)
80002cac:	8fb10018 	lw	s1,24(sp)
80002cb0:	8fb00014 	lw	s0,20(sp)
80002cb4:	03200008 	jr	t9
80002cb8:	27bd0020 	addiu	sp,sp,32
80002cbc:	8fbf001c 	lw	ra,28(sp)
80002cc0:	8fb10018 	lw	s1,24(sp)
80002cc4:	8fb00014 	lw	s0,20(sp)
80002cc8:	03e00008 	jr	ra
80002ccc:	27bd0020 	addiu	sp,sp,32

80002cd0 <ide_device_valid>:
80002cd0:	2c820004 	sltiu	v0,a0,4
80002cd4:	10400007 	beqz	v0,80002cf4 <ide_device_valid+0x24>
80002cd8:	00042180 	sll	a0,a0,0x6
80002cdc:	3c02800d 	lui	v0,0x800d
80002ce0:	24427260 	addiu	v0,v0,29280
80002ce4:	00822021 	addu	a0,a0,v0
80002ce8:	8c820000 	lw	v0,0(a0)
80002cec:	03e00008 	jr	ra
80002cf0:	0002102b 	sltu	v0,zero,v0
80002cf4:	03e00008 	jr	ra
80002cf8:	00001021 	move	v0,zero

80002cfc <ide_device_size>:
80002cfc:	2c820004 	sltiu	v0,a0,4
80002d00:	1040000a 	beqz	v0,80002d2c <ide_device_size+0x30>
80002d04:	00001021 	move	v0,zero
80002d08:	3c02800d 	lui	v0,0x800d
80002d0c:	24427260 	addiu	v0,v0,29280
80002d10:	00042180 	sll	a0,a0,0x6
80002d14:	00822021 	addu	a0,a0,v0
80002d18:	8c820000 	lw	v0,0(a0)
80002d1c:	00000000 	nop
80002d20:	10400004 	beqz	v0,80002d34 <ide_device_size+0x38>
80002d24:	00000000 	nop
80002d28:	8c820008 	lw	v0,8(a0)
80002d2c:	03e00008 	jr	ra
80002d30:	00000000 	nop
80002d34:	03e00008 	jr	ra
80002d38:	00001021 	move	v0,zero

80002d3c <ide_read_secs>:
80002d3c:	2c820004 	sltiu	v0,a0,4
80002d40:	1040000e 	beqz	v0,80002d7c <ide_read_secs+0x40>
80002d44:	00042180 	sll	a0,a0,0x6
80002d48:	3c02800d 	lui	v0,0x800d
80002d4c:	24427260 	addiu	v0,v0,29280
80002d50:	00822021 	addu	a0,a0,v0
80002d54:	8c820000 	lw	v0,0(a0)
80002d58:	00000000 	nop
80002d5c:	10400009 	beqz	v0,80002d84 <ide_read_secs+0x48>
80002d60:	00001021 	move	v0,zero
80002d64:	8c990038 	lw	t9,56(a0)
80002d68:	00000000 	nop
80002d6c:	13200005 	beqz	t9,80002d84 <ide_read_secs+0x48>
80002d70:	00000000 	nop
80002d74:	03200008 	jr	t9
80002d78:	00000000 	nop
80002d7c:	03e00008 	jr	ra
80002d80:	00001021 	move	v0,zero
80002d84:	03e00008 	jr	ra
80002d88:	00000000 	nop

80002d8c <ide_write_secs>:
80002d8c:	2c820004 	sltiu	v0,a0,4
80002d90:	1040000e 	beqz	v0,80002dcc <ide_write_secs+0x40>
80002d94:	00042180 	sll	a0,a0,0x6
80002d98:	3c02800d 	lui	v0,0x800d
80002d9c:	24427260 	addiu	v0,v0,29280
80002da0:	00822021 	addu	a0,a0,v0
80002da4:	8c820000 	lw	v0,0(a0)
80002da8:	00000000 	nop
80002dac:	10400009 	beqz	v0,80002dd4 <ide_write_secs+0x48>
80002db0:	00001021 	move	v0,zero
80002db4:	8c99003c 	lw	t9,60(a0)
80002db8:	00000000 	nop
80002dbc:	13200005 	beqz	t9,80002dd4 <ide_write_secs+0x48>
80002dc0:	00000000 	nop
80002dc4:	03200008 	jr	t9
80002dc8:	00000000 	nop
80002dcc:	03e00008 	jr	ra
80002dd0:	00001021 	move	v0,zero
80002dd4:	03e00008 	jr	ra
80002dd8:	00000000 	nop

80002ddc <intr_enable>:
80002ddc:	40026000 	mfc0	v0,c0_status
80002de0:	00000000 	nop
80002de4:	34420001 	ori	v0,v0,0x1
80002de8:	40826000 	mtc0	v0,c0_status
80002dec:	03e00008 	jr	ra
80002df0:	00000000 	nop

80002df4 <intr_disable>:
80002df4:	40036000 	mfc0	v1,c0_status
80002df8:	2402fffe 	li	v0,-2
80002dfc:	00621024 	and	v0,v1,v0
80002e00:	40826000 	mtc0	v0,c0_status
80002e04:	03e00008 	jr	ra
80002e08:	00000000 	nop

80002e0c <pic_enable>:
80002e0c:	27bdffe8 	addiu	sp,sp,-24
80002e10:	2c820008 	sltiu	v0,a0,8
80002e14:	1040000b 	beqz	v0,80002e44 <pic_enable+0x38>
80002e18:	afbf0014 	sw	ra,20(sp)
80002e1c:	40036000 	mfc0	v1,c0_status
80002e20:	24020001 	li	v0,1
80002e24:	24840008 	addiu	a0,a0,8
80002e28:	00821004 	sllv	v0,v0,a0
80002e2c:	00622025 	or	a0,v1,v0
80002e30:	40846000 	mtc0	a0,c0_status
80002e34:	8fbf0014 	lw	ra,20(sp)
80002e38:	00000000 	nop
80002e3c:	03e00008 	jr	ra
80002e40:	27bd0018 	addiu	sp,sp,24
80002e44:	3c048001 	lui	a0,0x8001
80002e48:	3c068001 	lui	a2,0x8001
80002e4c:	24844c34 	addiu	a0,a0,19508
80002e50:	2405000c 	li	a1,12
80002e54:	0c0009f2 	jal	800027c8 <__panic>
80002e58:	24c64c4c 	addiu	a2,a2,19532

80002e5c <pic_disable>:
80002e5c:	27bdffe8 	addiu	sp,sp,-24
80002e60:	2c820008 	sltiu	v0,a0,8
80002e64:	1040000c 	beqz	v0,80002e98 <pic_disable+0x3c>
80002e68:	afbf0014 	sw	ra,20(sp)
80002e6c:	40036000 	mfc0	v1,c0_status
80002e70:	24020001 	li	v0,1
80002e74:	24840008 	addiu	a0,a0,8
80002e78:	00821004 	sllv	v0,v0,a0
80002e7c:	00021027 	nor	v0,zero,v0
80002e80:	00622024 	and	a0,v1,v0
80002e84:	40846000 	mtc0	a0,c0_status
80002e88:	8fbf0014 	lw	ra,20(sp)
80002e8c:	00000000 	nop
80002e90:	03e00008 	jr	ra
80002e94:	27bd0018 	addiu	sp,sp,24
80002e98:	3c048001 	lui	a0,0x8001
80002e9c:	3c068001 	lui	a2,0x8001
80002ea0:	24844c34 	addiu	a0,a0,19508
80002ea4:	24050013 	li	a1,19
80002ea8:	0c0009f2 	jal	800027c8 <__panic>
80002eac:	24c64c4c 	addiu	a2,a2,19532

80002eb0 <pic_init>:
80002eb0:	40026000 	mfc0	v0,c0_status
80002eb4:	3c03ffff 	lui	v1,0xffff
80002eb8:	246300ff 	addiu	v1,v1,255
80002ebc:	00431024 	and	v0,v0,v1
80002ec0:	40826000 	mtc0	v0,c0_status
80002ec4:	24030001 	li	v1,1
80002ec8:	3c02800d 	lui	v0,0x800d
80002ecc:	03e00008 	jr	ra
80002ed0:	ac437360 	sw	v1,29536(v0)

80002ed4 <ramdisk_write>:
80002ed4:	8c820008 	lw	v0,8(a0)
80002ed8:	8c84000c 	lw	a0,12(a0)
80002edc:	00451023 	subu	v0,v0,a1
80002ee0:	27bdffe8 	addiu	sp,sp,-24
80002ee4:	00052a40 	sll	a1,a1,0x9
80002ee8:	0047182b 	sltu	v1,v0,a3
80002eec:	afbf0014 	sw	ra,20(sp)
80002ef0:	10600002 	beqz	v1,80002efc <ramdisk_write+0x28>
80002ef4:	00a42021 	addu	a0,a1,a0
80002ef8:	00403821 	move	a3,v0
80002efc:	00c02821 	move	a1,a2
80002f00:	0c000847 	jal	8000211c <memcpy>
80002f04:	00073240 	sll	a2,a3,0x9
80002f08:	8fbf0014 	lw	ra,20(sp)
80002f0c:	00001021 	move	v0,zero
80002f10:	03e00008 	jr	ra
80002f14:	27bd0018 	addiu	sp,sp,24

80002f18 <ramdisk_read>:
80002f18:	8c820008 	lw	v0,8(a0)
80002f1c:	8c83000c 	lw	v1,12(a0)
80002f20:	00451023 	subu	v0,v0,a1
80002f24:	27bdffe8 	addiu	sp,sp,-24
80002f28:	00052a40 	sll	a1,a1,0x9
80002f2c:	0047402b 	sltu	t0,v0,a3
80002f30:	afbf0014 	sw	ra,20(sp)
80002f34:	00c02021 	move	a0,a2
80002f38:	11000002 	beqz	t0,80002f44 <ramdisk_read+0x2c>
80002f3c:	00a32821 	addu	a1,a1,v1
80002f40:	00403821 	move	a3,v0
80002f44:	0c000847 	jal	8000211c <memcpy>
80002f48:	00073240 	sll	a2,a3,0x9
80002f4c:	8fbf0014 	lw	ra,20(sp)
80002f50:	00001021 	move	v0,zero
80002f54:	03e00008 	jr	ra
80002f58:	27bd0018 	addiu	sp,sp,24

80002f5c <ramdisk_init>:
80002f5c:	8c82000c 	lw	v0,12(a0)
80002f60:	8c860008 	lw	a2,8(a0)
80002f64:	8c450000 	lw	a1,0(v0)
80002f68:	3c048001 	lui	a0,0x8001
80002f6c:	08000727 	j	80001c9c <kprintf>
80002f70:	24844c68 	addiu	a0,a0,19560

80002f74 <check_initrd>:
80002f74:	3c028002 	lui	v0,0x8002
80002f78:	3c07800d 	lui	a3,0x800d
80002f7c:	27bdffe0 	addiu	sp,sp,-32
80002f80:	2445b450 	addiu	a1,v0,-19376
80002f84:	24e76c50 	addiu	a3,a3,27728
80002f88:	14a70009 	bne	a1,a3,80002fb0 <check_initrd+0x3c>
80002f8c:	afbf001c 	sw	ra,28(sp)
80002f90:	3c048001 	lui	a0,0x8001
80002f94:	0c000727 	jal	80001c9c <kprintf>
80002f98:	24844ca4 	addiu	a0,a0,19620
80002f9c:	00001021 	move	v0,zero
80002fa0:	8fbf001c 	lw	ra,28(sp)
80002fa4:	00000000 	nop
80002fa8:	03e00008 	jr	ra
80002fac:	27bd0020 	addiu	sp,sp,32
80002fb0:	8c42b450 	lw	v0,-19376(v0)
80002fb4:	3c048001 	lui	a0,0x8001
80002fb8:	3c06800d 	lui	a2,0x800d
80002fbc:	24844cbc 	addiu	a0,a0,19644
80002fc0:	24c66c4f 	addiu	a2,a2,27727
80002fc4:	00e53823 	subu	a3,a3,a1
80002fc8:	0c000727 	jal	80001c9c <kprintf>
80002fcc:	afa20010 	sw	v0,16(sp)
80002fd0:	08000be8 	j	80002fa0 <check_initrd+0x2c>
80002fd4:	24020001 	li	v0,1

80002fd8 <ramdisk_init_struct>:
80002fd8:	27bdffe8 	addiu	sp,sp,-24
80002fdc:	00002821 	move	a1,zero
80002fe0:	24060040 	li	a2,64
80002fe4:	afb00010 	sw	s0,16(sp)
80002fe8:	afbf0014 	sw	ra,20(sp)
80002fec:	0c00083d 	jal	800020f4 <memset>
80002ff0:	00808021 	move	s0,a0
80002ff4:	3c04800d 	lui	a0,0x800d
80002ff8:	3c028002 	lui	v0,0x8002
80002ffc:	24846c50 	addiu	a0,a0,27728
80003000:	2442b450 	addiu	v0,v0,-19376
80003004:	00821823 	subu	v1,a0,v0
80003008:	306501ff 	andi	a1,v1,0x1ff
8000300c:	10a00006 	beqz	a1,80003028 <ramdisk_init_struct+0x50>
80003010:	3c068001 	lui	a2,0x8001
80003014:	3c048001 	lui	a0,0x8001
80003018:	24844cf4 	addiu	a0,a0,19700
8000301c:	24050046 	li	a1,70
80003020:	0c0009f2 	jal	800027c8 <__panic>
80003024:	24c64d0c 	addiu	a2,a2,19724
80003028:	10820015 	beq	a0,v0,80003080 <ramdisk_init_struct+0xa8>
8000302c:	24040001 	li	a0,1
80003030:	ae040000 	sw	a0,0(s0)
80003034:	2404ffff 	li	a0,-1
80003038:	04600015 	bltz	v1,80003090 <ramdisk_init_struct+0xb8>
8000303c:	ae040004 	sw	a0,4(s0)
80003040:	00031a43 	sra	v1,v1,0x9
80003044:	3c058001 	lui	a1,0x8001
80003048:	ae030008 	sw	v1,8(s0)
8000304c:	ae02000c 	sw	v0,12(s0)
80003050:	26040014 	addiu	a0,s0,20
80003054:	0c0007d4 	jal	80001f50 <strcpy>
80003058:	24a54d3c 	addiu	a1,a1,19772
8000305c:	3c028000 	lui	v0,0x8000
80003060:	24422f5c 	addiu	v0,v0,12124
80003064:	ae020034 	sw	v0,52(s0)
80003068:	3c028000 	lui	v0,0x8000
8000306c:	24422f18 	addiu	v0,v0,12056
80003070:	ae020038 	sw	v0,56(s0)
80003074:	3c028000 	lui	v0,0x8000
80003078:	24422ed4 	addiu	v0,v0,11988
8000307c:	ae02003c 	sw	v0,60(s0)
80003080:	8fbf0014 	lw	ra,20(sp)
80003084:	8fb00010 	lw	s0,16(sp)
80003088:	03e00008 	jr	ra
8000308c:	27bd0018 	addiu	sp,sp,24
80003090:	08000c10 	j	80003040 <ramdisk_init_struct+0x68>
80003094:	246301ff 	addiu	v1,v1,511

80003098 <render_char>:
80003098:	2482ffe0 	addiu	v0,a0,-32
8000309c:	2c420060 	sltiu	v0,v0,96
800030a0:	10400044 	beqz	v0,800031b4 <render_char+0x11c>
800030a4:	24180020 	li	t8,32
800030a8:	0080c021 	move	t8,a0
800030ac:	000578c0 	sll	t7,a1,0x3
800030b0:	00057140 	sll	t6,a1,0x5
800030b4:	3c07800d 	lui	a3,0x800d
800030b8:	00051880 	sll	v1,a1,0x2
800030bc:	01ee1021 	addu	v0,t7,t6
800030c0:	24e77684 	addiu	a3,a3,30340
800030c4:	3c0d800d 	lui	t5,0x800d
800030c8:	00671821 	addu	v1,v1,a3
800030cc:	00461021 	addu	v0,v0,a2
800030d0:	25ad76d4 	addiu	t5,t5,30420
800030d4:	8c630000 	lw	v1,0(v1)
800030d8:	01a21021 	addu	v0,t5,v0
800030dc:	90420000 	lbu	v0,0(v0)
800030e0:	00661821 	addu	v1,v1,a2
800030e4:	1044002a 	beq	v0,a0,80003190 <render_char+0xf8>
800030e8:	a0780000 	sb	t8,0(v1)
800030ec:	00041080 	sll	v0,a0,0x2
800030f0:	00064040 	sll	t0,a2,0x1
800030f4:	00053a40 	sll	a3,a1,0x9
800030f8:	000618c0 	sll	v1,a2,0x3
800030fc:	00052b40 	sll	a1,a1,0xd
80003100:	00042100 	sll	a0,a0,0x4
80003104:	01031821 	addu	v1,t0,v1
80003108:	00442021 	addu	a0,v0,a0
8000310c:	00a72823 	subu	a1,a1,a3
80003110:	3c098001 	lui	t1,0x8001
80003114:	2484fd80 	addiu	a0,a0,-640
80003118:	00651821 	addu	v1,v1,a1
8000311c:	252937d0 	addiu	t1,t1,14288
80003120:	00031880 	sll	v1,v1,0x2
80003124:	01244821 	addu	t1,t1,a0
80003128:	3c02ba00 	lui	v0,0xba00
8000312c:	00621021 	addu	v0,v1,v0
80003130:	8d230000 	lw	v1,0(t1)
80003134:	244c7800 	addiu	t4,v0,30720
80003138:	00002021 	move	a0,zero
8000313c:	24080020 	li	t0,32
80003140:	240a00ff 	li	t2,255
80003144:	00405821 	move	t3,v0
80003148:	24470028 	addiu	a3,v0,40
8000314c:	10880015 	beq	a0,t0,800031a4 <render_char+0x10c>
80003150:	00000000 	nop
80003154:	24840001 	addiu	a0,a0,1
80003158:	30650001 	andi	a1,v1,0x1
8000315c:	10a0000e 	beqz	a1,80003198 <render_char+0x100>
80003160:	00000000 	nop
80003164:	ac4a0000 	sw	t2,0(v0)
80003168:	24420004 	addiu	v0,v0,4
8000316c:	1447fff7 	bne	v0,a3,8000314c <render_char+0xb4>
80003170:	00031842 	srl	v1,v1,0x1
80003174:	25620800 	addiu	v0,t3,2048
80003178:	1582fff3 	bne	t4,v0,80003148 <render_char+0xb0>
8000317c:	00405821 	move	t3,v0
80003180:	01ee7021 	addu	t6,t7,t6
80003184:	01c63021 	addu	a2,t6,a2
80003188:	01a66821 	addu	t5,t5,a2
8000318c:	a1b80000 	sb	t8,0(t5)
80003190:	03e00008 	jr	ra
80003194:	00000000 	nop
80003198:	ac400000 	sw	zero,0(v0)
8000319c:	08000c5b 	j	8000316c <render_char+0xd4>
800031a0:	24420004 	addiu	v0,v0,4
800031a4:	8d230004 	lw	v1,4(t1)
800031a8:	24040001 	li	a0,1
800031ac:	08000c56 	j	80003158 <render_char+0xc0>
800031b0:	25290004 	addiu	t1,t1,4
800031b4:	08000c2b 	j	800030ac <render_char+0x14>
800031b8:	24040020 	li	a0,32

800031bc <vga_init>:
800031bc:	27bdffc8 	addiu	sp,sp,-56
800031c0:	afbe0030 	sw	s8,48(sp)
800031c4:	afb10014 	sw	s1,20(sp)
800031c8:	3c1e800d 	lui	s8,0x800d
800031cc:	3c11800d 	lui	s1,0x800d
800031d0:	afb60028 	sw	s6,40(sp)
800031d4:	26317364 	addiu	s1,s1,29540
800031d8:	3c16800d 	lui	s6,0x800d
800031dc:	27de76d4 	addiu	s8,s8,30420
800031e0:	afb7002c 	sw	s7,44(sp)
800031e4:	afb50024 	sw	s5,36(sp)
800031e8:	afb40020 	sw	s4,32(sp)
800031ec:	afb20018 	sw	s2,24(sp)
800031f0:	afbf0034 	sw	ra,52(sp)
800031f4:	afb3001c 	sw	s3,28(sp)
800031f8:	afb00010 	sw	s0,16(sp)
800031fc:	26d67684 	addiu	s6,s6,30340
80003200:	00009021 	move	s2,zero
80003204:	03d1f023 	subu	s8,s8,s1
80003208:	2415ffff 	li	s5,-1
8000320c:	24140028 	li	s4,40
80003210:	24170014 	li	s7,20
80003214:	aed10000 	sw	s1,0(s6)
80003218:	00008021 	move	s0,zero
8000321c:	03d19821 	addu	s3,s8,s1
80003220:	02301821 	addu	v1,s1,s0
80003224:	02701021 	addu	v0,s3,s0
80003228:	02003021 	move	a2,s0
8000322c:	00002021 	move	a0,zero
80003230:	26100001 	addiu	s0,s0,1
80003234:	02402821 	move	a1,s2
80003238:	a0600000 	sb	zero,0(v1)
8000323c:	0c000c26 	jal	80003098 <render_char>
80003240:	a0550000 	sb	s5,0(v0)
80003244:	1614fff7 	bne	s0,s4,80003224 <vga_init+0x68>
80003248:	02301821 	addu	v1,s1,s0
8000324c:	26520001 	addiu	s2,s2,1
80003250:	26310028 	addiu	s1,s1,40
80003254:	1657ffef 	bne	s2,s7,80003214 <vga_init+0x58>
80003258:	26d60004 	addiu	s6,s6,4
8000325c:	3c02800d 	lui	v0,0x800d
80003260:	8fbf0034 	lw	ra,52(sp)
80003264:	8fbe0030 	lw	s8,48(sp)
80003268:	8fb7002c 	lw	s7,44(sp)
8000326c:	8fb60028 	lw	s6,40(sp)
80003270:	8fb50024 	lw	s5,36(sp)
80003274:	8fb40020 	lw	s4,32(sp)
80003278:	8fb3001c 	lw	s3,28(sp)
8000327c:	8fb20018 	lw	s2,24(sp)
80003280:	8fb10014 	lw	s1,20(sp)
80003284:	8fb00010 	lw	s0,16(sp)
80003288:	ac4079f4 	sw	zero,31220(v0)
8000328c:	2404005f 	li	a0,95
80003290:	3c02800d 	lui	v0,0x800d
80003294:	00002821 	move	a1,zero
80003298:	00003021 	move	a2,zero
8000329c:	27bd0038 	addiu	sp,sp,56
800032a0:	08000c26 	j	80003098 <render_char>
800032a4:	ac4079f8 	sw	zero,31224(v0)

800032a8 <vga_redraw>:
800032a8:	27bdffc8 	addiu	sp,sp,-56
800032ac:	afb6002c 	sw	s6,44(sp)
800032b0:	afb2001c 	sw	s2,28(sp)
800032b4:	3c16800d 	lui	s6,0x800d
800032b8:	3c12800d 	lui	s2,0x800d
800032bc:	afb70030 	sw	s7,48(sp)
800032c0:	afb50028 	sw	s5,40(sp)
800032c4:	afb40024 	sw	s4,36(sp)
800032c8:	afb10018 	sw	s1,24(sp)
800032cc:	afbf0034 	sw	ra,52(sp)
800032d0:	afb30020 	sw	s3,32(sp)
800032d4:	afb00014 	sw	s0,20(sp)
800032d8:	26d67684 	addiu	s6,s6,30340
800032dc:	265276d4 	addiu	s2,s2,30420
800032e0:	00008821 	move	s1,zero
800032e4:	2415ffff 	li	s5,-1
800032e8:	24140028 	li	s4,40
800032ec:	24170014 	li	s7,20
800032f0:	8ed30000 	lw	s3,0(s6)
800032f4:	00008021 	move	s0,zero
800032f8:	02501021 	addu	v0,s2,s0
800032fc:	a0550000 	sb	s5,0(v0)
80003300:	02701021 	addu	v0,s3,s0
80003304:	90440000 	lbu	a0,0(v0)
80003308:	02003021 	move	a2,s0
8000330c:	02202821 	move	a1,s1
80003310:	0c000c26 	jal	80003098 <render_char>
80003314:	26100001 	addiu	s0,s0,1
80003318:	1614fff8 	bne	s0,s4,800032fc <vga_redraw+0x54>
8000331c:	02501021 	addu	v0,s2,s0
80003320:	26310001 	addiu	s1,s1,1
80003324:	26d60004 	addiu	s6,s6,4
80003328:	1637fff1 	bne	s1,s7,800032f0 <vga_redraw+0x48>
8000332c:	26520028 	addiu	s2,s2,40
80003330:	8fbf0034 	lw	ra,52(sp)
80003334:	8fb70030 	lw	s7,48(sp)
80003338:	8fb6002c 	lw	s6,44(sp)
8000333c:	8fb50028 	lw	s5,40(sp)
80003340:	8fb40024 	lw	s4,36(sp)
80003344:	8fb30020 	lw	s3,32(sp)
80003348:	8fb2001c 	lw	s2,28(sp)
8000334c:	8fb10018 	lw	s1,24(sp)
80003350:	8fb00014 	lw	s0,20(sp)
80003354:	03e00008 	jr	ra
80003358:	27bd0038 	addiu	sp,sp,56

8000335c <vga_putch>:
8000335c:	3c02800d 	lui	v0,0x800d
80003360:	27bdffd0 	addiu	sp,sp,-48
80003364:	8c4379fc 	lw	v1,31228(v0)
80003368:	afb00010 	sw	s0,16(sp)
8000336c:	00808021 	move	s0,a0
80003370:	2404000d 	li	a0,13
80003374:	afbf002c 	sw	ra,44(sp)
80003378:	afb60028 	sw	s6,40(sp)
8000337c:	afb50024 	sw	s5,36(sp)
80003380:	afb40020 	sw	s4,32(sp)
80003384:	afb3001c 	sw	s3,28(sp)
80003388:	afb20018 	sw	s2,24(sp)
8000338c:	afb10014 	sw	s1,20(sp)
80003390:	10640028 	beq	v1,a0,80003434 <vga_putch+0xd8>
80003394:	ac5079fc 	sw	s0,31228(v0)
80003398:	24020008 	li	v0,8
8000339c:	12020032 	beq	s0,v0,80003468 <vga_putch+0x10c>
800033a0:	3c11800d 	lui	s1,0x800d
800033a4:	3c13800d 	lui	s3,0x800d
800033a8:	8e3279f8 	lw	s2,31224(s1)
800033ac:	8e7579f4 	lw	s5,31220(s3)
800033b0:	02403021 	move	a2,s2
800033b4:	02002021 	move	a0,s0
800033b8:	0c000c26 	jal	80003098 <render_char>
800033bc:	02a02821 	move	a1,s5
800033c0:	26460001 	addiu	a2,s2,1
800033c4:	2402000d 	li	v0,13
800033c8:	12020012 	beq	s0,v0,80003414 <vga_putch+0xb8>
800033cc:	ae2679f8 	sw	a2,31224(s1)
800033d0:	2402000a 	li	v0,10
800033d4:	1202000f 	beq	s0,v0,80003414 <vga_putch+0xb8>
800033d8:	24020028 	li	v0,40
800033dc:	10c2000e 	beq	a2,v0,80003418 <vga_putch+0xbc>
800033e0:	26a20001 	addiu	v0,s5,1
800033e4:	2404005f 	li	a0,95
800033e8:	02a02821 	move	a1,s5
800033ec:	8fbf002c 	lw	ra,44(sp)
800033f0:	8fb60028 	lw	s6,40(sp)
800033f4:	8fb50024 	lw	s5,36(sp)
800033f8:	8fb40020 	lw	s4,32(sp)
800033fc:	8fb3001c 	lw	s3,28(sp)
80003400:	8fb20018 	lw	s2,24(sp)
80003404:	8fb10014 	lw	s1,20(sp)
80003408:	8fb00010 	lw	s0,16(sp)
8000340c:	08000c26 	j	80003098 <render_char>
80003410:	27bd0030 	addiu	sp,sp,48
80003414:	26a20001 	addiu	v0,s5,1
80003418:	24030014 	li	v1,20
8000341c:	ae6279f4 	sw	v0,31220(s3)
80003420:	10430022 	beq	v0,v1,800034ac <vga_putch+0x150>
80003424:	ae2079f8 	sw	zero,31224(s1)
80003428:	0040a821 	move	s5,v0
8000342c:	08000cf9 	j	800033e4 <vga_putch+0x88>
80003430:	00003021 	move	a2,zero
80003434:	2403000a 	li	v1,10
80003438:	1603ffd8 	bne	s0,v1,8000339c <vga_putch+0x40>
8000343c:	24020008 	li	v0,8
80003440:	8fbf002c 	lw	ra,44(sp)
80003444:	8fb60028 	lw	s6,40(sp)
80003448:	8fb50024 	lw	s5,36(sp)
8000344c:	8fb40020 	lw	s4,32(sp)
80003450:	8fb3001c 	lw	s3,28(sp)
80003454:	8fb20018 	lw	s2,24(sp)
80003458:	8fb10014 	lw	s1,20(sp)
8000345c:	8fb00010 	lw	s0,16(sp)
80003460:	03e00008 	jr	ra
80003464:	27bd0030 	addiu	sp,sp,48
80003468:	3c12800d 	lui	s2,0x800d
8000346c:	3c02800d 	lui	v0,0x800d
80003470:	8e5079f8 	lw	s0,31224(s2)
80003474:	8c5179f4 	lw	s1,31220(v0)
80003478:	24040020 	li	a0,32
8000347c:	02202821 	move	a1,s1
80003480:	0c000c26 	jal	80003098 <render_char>
80003484:	02003021 	move	a2,s0
80003488:	12000005 	beqz	s0,800034a0 <vga_putch+0x144>
8000348c:	2404005f 	li	a0,95
80003490:	2606ffff 	addiu	a2,s0,-1
80003494:	ae4679f8 	sw	a2,31224(s2)
80003498:	08000cfb 	j	800033ec <vga_putch+0x90>
8000349c:	02202821 	move	a1,s1
800034a0:	00003021 	move	a2,zero
800034a4:	08000cfb 	j	800033ec <vga_putch+0x90>
800034a8:	02202821 	move	a1,s1
800034ac:	3c02800d 	lui	v0,0x800d
800034b0:	24547684 	addiu	s4,v0,30340
800034b4:	8c447684 	lw	a0,30340(v0)
800034b8:	3c02800d 	lui	v0,0x800d
800034bc:	ac5579f4 	sw	s5,31220(v0)
800034c0:	3c02800d 	lui	v0,0x800d
800034c4:	24427688 	addiu	v0,v0,30344
800034c8:	26850050 	addiu	a1,s4,80
800034cc:	8c430000 	lw	v1,0(v0)
800034d0:	00000000 	nop
800034d4:	ac43fffc 	sw	v1,-4(v0)
800034d8:	24420004 	addiu	v0,v0,4
800034dc:	1445fffb 	bne	v0,a1,800034cc <vga_putch+0x170>
800034e0:	00000000 	nop
800034e4:	00151080 	sll	v0,s5,0x2
800034e8:	00541021 	addu	v0,v0,s4
800034ec:	ac440000 	sw	a0,0(v0)
800034f0:	24050028 	li	a1,40
800034f4:	00001021 	move	v0,zero
800034f8:	00821821 	addu	v1,a0,v0
800034fc:	24420001 	addiu	v0,v0,1
80003500:	1445fffd 	bne	v0,a1,800034f8 <vga_putch+0x19c>
80003504:	a0600000 	sb	zero,0(v1)
80003508:	00008821 	move	s1,zero
8000350c:	24130028 	li	s3,40
80003510:	24160014 	li	s6,20
80003514:	8e920000 	lw	s2,0(s4)
80003518:	00008021 	move	s0,zero
8000351c:	02501021 	addu	v0,s2,s0
80003520:	90440000 	lbu	a0,0(v0)
80003524:	02003021 	move	a2,s0
80003528:	02202821 	move	a1,s1
8000352c:	0c000c26 	jal	80003098 <render_char>
80003530:	26100001 	addiu	s0,s0,1
80003534:	1613fffa 	bne	s0,s3,80003520 <vga_putch+0x1c4>
80003538:	02501021 	addu	v0,s2,s0
8000353c:	26310001 	addiu	s1,s1,1
80003540:	1636fff4 	bne	s1,s6,80003514 <vga_putch+0x1b8>
80003544:	26940004 	addiu	s4,s4,4
80003548:	08000cf9 	j	800033e4 <vga_putch+0x88>
8000354c:	00003021 	move	a2,zero

80003550 <trap_in_kernel>:
80003550:	8c820004 	lw	v0,4(a0)
80003554:	00000000 	nop
80003558:	30420010 	andi	v0,v0,0x10
8000355c:	03e00008 	jr	ra
80003560:	2c420001 	sltiu	v0,v0,1

80003564 <print_regs>:
80003564:	27bdffd8 	addiu	sp,sp,-40
80003568:	afb40020 	sw	s4,32(sp)
8000356c:	afb3001c 	sw	s3,28(sp)
80003570:	3c148001 	lui	s4,0x8001
80003574:	3c138001 	lui	s3,0x8001
80003578:	afb20018 	sw	s2,24(sp)
8000357c:	afb10014 	sw	s1,20(sp)
80003580:	afb00010 	sw	s0,16(sp)
80003584:	afbf0024 	sw	ra,36(sp)
80003588:	00808821 	move	s1,a0
8000358c:	00008021 	move	s0,zero
80003590:	26944d48 	addiu	s4,s4,19784
80003594:	26734d94 	addiu	s3,s3,19860
80003598:	2412001e 	li	s2,30
8000359c:	02802021 	move	a0,s4
800035a0:	0c000727 	jal	80001c9c <kprintf>
800035a4:	26100001 	addiu	s0,s0,1
800035a8:	0c000749 	jal	80001d24 <printbase10>
800035ac:	02002021 	move	a0,s0
800035b0:	0c000727 	jal	80001c9c <kprintf>
800035b4:	02602021 	move	a0,s3
800035b8:	8e240000 	lw	a0,0(s1)
800035bc:	0c000734 	jal	80001cd0 <printhex>
800035c0:	26310004 	addiu	s1,s1,4
800035c4:	0c00078a 	jal	80001e28 <kputchar>
800035c8:	2404000a 	li	a0,10
800035cc:	1612fff3 	bne	s0,s2,8000359c <print_regs+0x38>
800035d0:	00000000 	nop
800035d4:	8fbf0024 	lw	ra,36(sp)
800035d8:	8fb40020 	lw	s4,32(sp)
800035dc:	8fb3001c 	lw	s3,28(sp)
800035e0:	8fb20018 	lw	s2,24(sp)
800035e4:	8fb10014 	lw	s1,20(sp)
800035e8:	8fb00010 	lw	s0,16(sp)
800035ec:	03e00008 	jr	ra
800035f0:	27bd0028 	addiu	sp,sp,40

800035f4 <print_trapframe>:
800035f4:	27bdffd8 	addiu	sp,sp,-40
800035f8:	afb10018 	sw	s1,24(sp)
800035fc:	00808821 	move	s1,a0
80003600:	3c048001 	lui	a0,0x8001
80003604:	24844d54 	addiu	a0,a0,19796
80003608:	afbf0024 	sw	ra,36(sp)
8000360c:	afb00014 	sw	s0,20(sp)
80003610:	afb30020 	sw	s3,32(sp)
80003614:	3c108001 	lui	s0,0x8001
80003618:	0c000727 	jal	80001c9c <kprintf>
8000361c:	afb2001c 	sw	s2,28(sp)
80003620:	0c000734 	jal	80001cd0 <printhex>
80003624:	02202021 	move	a0,s1
80003628:	0c000727 	jal	80001c9c <kprintf>
8000362c:	26044480 	addiu	a0,s0,17536
80003630:	0c000d59 	jal	80003564 <print_regs>
80003634:	26240018 	addiu	a0,s1,24
80003638:	3c048001 	lui	a0,0x8001
8000363c:	0c000727 	jal	80001c9c <kprintf>
80003640:	24844d64 	addiu	a0,a0,19812
80003644:	8e240014 	lw	a0,20(s1)
80003648:	0c000734 	jal	80001cd0 <printhex>
8000364c:	00000000 	nop
80003650:	0c000727 	jal	80001c9c <kprintf>
80003654:	26044480 	addiu	a0,s0,17536
80003658:	3c048001 	lui	a0,0x8001
8000365c:	0c000727 	jal	80001c9c <kprintf>
80003660:	24844d6c 	addiu	a0,a0,19820
80003664:	8e240000 	lw	a0,0(s1)
80003668:	0c000734 	jal	80001cd0 <printhex>
8000366c:	00000000 	nop
80003670:	0c000727 	jal	80001c9c <kprintf>
80003674:	26044480 	addiu	a0,s0,17536
80003678:	3c048001 	lui	a0,0x8001
8000367c:	0c000727 	jal	80001c9c <kprintf>
80003680:	24844d78 	addiu	a0,a0,19832
80003684:	8e240004 	lw	a0,4(s1)
80003688:	0c000734 	jal	80001cd0 <printhex>
8000368c:	00000000 	nop
80003690:	0c000727 	jal	80001c9c <kprintf>
80003694:	26044480 	addiu	a0,s0,17536
80003698:	3c048001 	lui	a0,0x8001
8000369c:	0c000727 	jal	80001c9c <kprintf>
800036a0:	24844d84 	addiu	a0,a0,19844
800036a4:	8e240008 	lw	a0,8(s1)
800036a8:	0c000734 	jal	80001cd0 <printhex>
800036ac:	00000000 	nop
800036b0:	0c000727 	jal	80001c9c <kprintf>
800036b4:	26044480 	addiu	a0,s0,17536
800036b8:	3c048001 	lui	a0,0x8001
800036bc:	0c000727 	jal	80001c9c <kprintf>
800036c0:	24844d90 	addiu	a0,a0,19856
800036c4:	8e240090 	lw	a0,144(s1)
800036c8:	0c000734 	jal	80001cd0 <printhex>
800036cc:	00000000 	nop
800036d0:	0c000727 	jal	80001c9c <kprintf>
800036d4:	26044480 	addiu	a0,s0,17536
800036d8:	8e220004 	lw	v0,4(s1)
800036dc:	00000000 	nop
800036e0:	30420010 	andi	v0,v0,0x10
800036e4:	10400028 	beqz	v0,80003788 <print_trapframe+0x194>
800036e8:	00000000 	nop
800036ec:	3c048001 	lui	a0,0x8001
800036f0:	0c000727 	jal	80001c9c <kprintf>
800036f4:	24844d98 	addiu	a0,a0,19864
800036f8:	8e220008 	lw	v0,8(s1)
800036fc:	00000000 	nop
80003700:	3042007c 	andi	v0,v0,0x7c
80003704:	00021082 	srl	v0,v0,0x2
80003708:	2843000d 	slti	v1,v0,13
8000370c:	1060001b 	beqz	v1,8000377c <print_trapframe+0x188>
80003710:	3c038001 	lui	v1,0x8001
80003714:	00021080 	sll	v0,v0,0x2
80003718:	24633f68 	addiu	v1,v1,16232
8000371c:	00431021 	addu	v0,v0,v1
80003720:	8c440000 	lw	a0,0(v0)
80003724:	0c000727 	jal	80001c9c <kprintf>
80003728:	3c138001 	lui	s3,0x8001
8000372c:	0c00078a 	jal	80001e28 <kputchar>
80003730:	2404000a 	li	a0,10
80003734:	00008021 	move	s0,zero
80003738:	26734dc0 	addiu	s3,s3,19904
8000373c:	24120050 	li	s2,80
80003740:	8e250090 	lw	a1,144(s1)
80003744:	02602021 	move	a0,s3
80003748:	02052821 	addu	a1,s0,a1
8000374c:	8ca60000 	lw	a2,0(a1)
80003750:	0c000727 	jal	80001c9c <kprintf>
80003754:	26100004 	addiu	s0,s0,4
80003758:	1612fff9 	bne	s0,s2,80003740 <print_trapframe+0x14c>
8000375c:	00000000 	nop
80003760:	8fbf0024 	lw	ra,36(sp)
80003764:	8fb30020 	lw	s3,32(sp)
80003768:	8fb2001c 	lw	s2,28(sp)
8000376c:	8fb10018 	lw	s1,24(sp)
80003770:	8fb00014 	lw	s0,20(sp)
80003774:	03e00008 	jr	ra
80003778:	27bd0028 	addiu	sp,sp,40
8000377c:	3c048001 	lui	a0,0x8001
80003780:	08000dc9 	j	80003724 <print_trapframe+0x130>
80003784:	24844d4c 	addiu	a0,a0,19788
80003788:	3c048001 	lui	a0,0x8001
8000378c:	0c000727 	jal	80001c9c <kprintf>
80003790:	24844dac 	addiu	a0,a0,19884
80003794:	08000dbe 	j	800036f8 <print_trapframe+0x104>
80003798:	00000000 	nop

8000379c <handle_tlbmiss>:
8000379c:	3c02800d 	lui	v0,0x800d
800037a0:	8c467a00 	lw	a2,31232(v0)
800037a4:	3c03800d 	lui	v1,0x800d
800037a8:	8c637cf4 	lw	v1,31988(v1)
800037ac:	27bdffd8 	addiu	sp,sp,-40
800037b0:	24c60001 	addiu	a2,a2,1
800037b4:	afb30020 	sw	s3,32(sp)
800037b8:	afb2001c 	sw	s2,28(sp)
800037bc:	afb00014 	sw	s0,20(sp)
800037c0:	afbf0024 	sw	ra,36(sp)
800037c4:	afb10018 	sw	s1,24(sp)
800037c8:	00808021 	move	s0,a0
800037cc:	ac467a00 	sw	a2,31232(v0)
800037d0:	8c930004 	lw	s3,4(a0)
800037d4:	106000a6 	beqz	v1,80003a70 <handle_tlbmiss+0x2d4>
800037d8:	00a09021 	move	s2,a1
800037dc:	8c910000 	lw	s1,0(a0)
800037e0:	32730010 	andi	s3,s3,0x10
800037e4:	00602021 	move	a0,v1
800037e8:	02202821 	move	a1,s1
800037ec:	00003021 	move	a2,zero
800037f0:	0c0017f9 	jal	80005fe4 <get_pte>
800037f4:	2e730001 	sltiu	s3,s3,1
800037f8:	10400013 	beqz	v0,80003848 <handle_tlbmiss+0xac>
800037fc:	00000000 	nop
80003800:	8c430000 	lw	v1,0(v0)
80003804:	00000000 	nop
80003808:	1060000f 	beqz	v1,80003848 <handle_tlbmiss+0xac>
8000380c:	00000000 	nop
80003810:	16600051 	bnez	s3,80003958 <handle_tlbmiss+0x1bc>
80003814:	30640004 	andi	a0,v1,0x4
80003818:	14800022 	bnez	a0,800038a4 <handle_tlbmiss+0x108>
8000381c:	00602821 	move	a1,v1
80003820:	0c000d7d 	jal	800035f4 <print_trapframe>
80003824:	02002021 	move	a0,s0
80003828:	8fbf0024 	lw	ra,36(sp)
8000382c:	8fb30020 	lw	s3,32(sp)
80003830:	8fb2001c 	lw	s2,28(sp)
80003834:	8fb10018 	lw	s1,24(sp)
80003838:	8fb00014 	lw	s0,20(sp)
8000383c:	2404fff7 	li	a0,-9
80003840:	080026fb 	j	80009bec <do_exit>
80003844:	27bd0028 	addiu	sp,sp,40
80003848:	3c02800e 	lui	v0,0x800e
8000384c:	8c44a9b8 	lw	a0,-22088(v0)
80003850:	0012282b 	sltu	a1,zero,s2
80003854:	00052840 	sll	a1,a1,0x1
80003858:	10800038 	beqz	a0,8000393c <handle_tlbmiss+0x1a0>
8000385c:	3c02800d 	lui	v0,0x800d
80003860:	8c437d0c 	lw	v1,32012(v0)
80003864:	3c02800d 	lui	v0,0x800d
80003868:	8c427d14 	lw	v0,32020(v0)
8000386c:	00000000 	nop
80003870:	14620085 	bne	v1,v0,80003a88 <handle_tlbmiss+0x2ec>
80003874:	3c068001 	lui	a2,0x8001
80003878:	0c002138 	jal	800084e0 <do_pgfault>
8000387c:	02203021 	move	a2,s1
80003880:	14400065 	bnez	v0,80003a18 <handle_tlbmiss+0x27c>
80003884:	00000000 	nop
80003888:	8fbf0024 	lw	ra,36(sp)
8000388c:	8fb30020 	lw	s3,32(sp)
80003890:	8fb2001c 	lw	s2,28(sp)
80003894:	8fb10018 	lw	s1,24(sp)
80003898:	8fb00014 	lw	s0,20(sp)
8000389c:	03e00008 	jr	ra
800038a0:	27bd0028 	addiu	sp,sp,40
800038a4:	12400004 	beqz	s2,800038b8 <handle_tlbmiss+0x11c>
800038a8:	30660006 	andi	a2,v1,0x6
800038ac:	24040006 	li	a0,6
800038b0:	14c4ffdb 	bne	a2,a0,80003820 <handle_tlbmiss+0x84>
800038b4:	00000000 	nop
800038b8:	32241000 	andi	a0,s1,0x1000
800038bc:	14800062 	bnez	a0,80003a48 <handle_tlbmiss+0x2ac>
800038c0:	00603021 	move	a2,v1
800038c4:	8c490004 	lw	t1,4(v0)
800038c8:	00000000 	nop
800038cc:	01203021 	move	a2,t1
800038d0:	3c04800d 	lui	a0,0x800d
800038d4:	8c827a04 	lw	v0,31236(a0)
800038d8:	30a70001 	andi	a3,a1,0x1
800038dc:	24480001 	addiu	t0,v0,1
800038e0:	ac887a04 	sw	t0,31236(a0)
800038e4:	2404e000 	li	a0,-8192
800038e8:	10e0005f 	beqz	a3,80003a68 <handle_tlbmiss+0x2cc>
800038ec:	02248824 	and	s1,s1,a0
800038f0:	3c048000 	lui	a0,0x8000
800038f4:	00641821 	addu	v1,v1,a0
800038f8:	00031b02 	srl	v1,v1,0xc
800038fc:	00031980 	sll	v1,v1,0x6
80003900:	30a50002 	andi	a1,a1,0x2
80003904:	10a00002 	beqz	a1,80003910 <handle_tlbmiss+0x174>
80003908:	34640013 	ori	a0,v1,0x13
8000390c:	34640017 	ori	a0,v1,0x17
80003910:	30c30001 	andi	v1,a2,0x1
80003914:	10600050 	beqz	v1,80003a58 <handle_tlbmiss+0x2bc>
80003918:	30c60002 	andi	a2,a2,0x2
8000391c:	3c038000 	lui	v1,0x8000
80003920:	01234821 	addu	t1,t1,v1
80003924:	00094b02 	srl	t1,t1,0xc
80003928:	00094980 	sll	t1,t1,0x6
8000392c:	10c00029 	beqz	a2,800039d4 <handle_tlbmiss+0x238>
80003930:	35230013 	ori	v1,t1,0x13
80003934:	08000e75 	j	800039d4 <handle_tlbmiss+0x238>
80003938:	35230017 	ori	v1,t1,0x17
8000393c:	8c427d0c 	lw	v0,32012(v0)
80003940:	00000000 	nop
80003944:	10400055 	beqz	v0,80003a9c <handle_tlbmiss+0x300>
80003948:	00000000 	nop
8000394c:	8c440018 	lw	a0,24(v0)
80003950:	08000e1e 	j	80003878 <handle_tlbmiss+0xdc>
80003954:	00000000 	nop
80003958:	32241000 	andi	a0,s1,0x1000
8000395c:	14800037 	bnez	a0,80003a3c <handle_tlbmiss+0x2a0>
80003960:	00602821 	move	a1,v1
80003964:	8c450004 	lw	a1,4(v0)
80003968:	3c04800d 	lui	a0,0x800d
8000396c:	8c827a04 	lw	v0,31236(a0)
80003970:	30660001 	andi	a2,v1,0x1
80003974:	24470001 	addiu	a3,v0,1
80003978:	ac877a04 	sw	a3,31236(a0)
8000397c:	2404e000 	li	a0,-8192
80003980:	10c00037 	beqz	a2,80003a60 <handle_tlbmiss+0x2c4>
80003984:	02248824 	and	s1,s1,a0
80003988:	3c068000 	lui	a2,0x8000
8000398c:	00663021 	addu	a2,v1,a2
80003990:	00063302 	srl	a2,a2,0xc
80003994:	00063180 	sll	a2,a2,0x6
80003998:	30630002 	andi	v1,v1,0x2
8000399c:	10600002 	beqz	v1,800039a8 <handle_tlbmiss+0x20c>
800039a0:	34c40013 	ori	a0,a2,0x13
800039a4:	34c40017 	ori	a0,a2,0x17
800039a8:	30a30001 	andi	v1,a1,0x1
800039ac:	10600009 	beqz	v1,800039d4 <handle_tlbmiss+0x238>
800039b0:	00001821 	move	v1,zero
800039b4:	3c068000 	lui	a2,0x8000
800039b8:	00a63021 	addu	a2,a1,a2
800039bc:	00063302 	srl	a2,a2,0xc
800039c0:	00063180 	sll	a2,a2,0x6
800039c4:	30a50002 	andi	a1,a1,0x2
800039c8:	10a00002 	beqz	a1,800039d4 <handle_tlbmiss+0x238>
800039cc:	34c30013 	ori	v1,a2,0x13
800039d0:	34c30017 	ori	v1,a2,0x17
800039d4:	40841000 	mtc0	a0,c0_entrylo0
800039d8:	00000000 	nop
800039dc:	40802800 	mtc0	zero,c0_pagemask
800039e0:	00000000 	nop
800039e4:	40831800 	mtc0	v1,c0_entrylo1
800039e8:	00000000 	nop
800039ec:	40915000 	mtc0	s1,c0_entryhi
800039f0:	00000000 	nop
800039f4:	40820000 	mtc0	v0,c0_index
800039f8:	42000002 	tlbwi
800039fc:	8fbf0024 	lw	ra,36(sp)
80003a00:	8fb30020 	lw	s3,32(sp)
80003a04:	8fb2001c 	lw	s2,28(sp)
80003a08:	8fb10018 	lw	s1,24(sp)
80003a0c:	8fb00014 	lw	s0,20(sp)
80003a10:	03e00008 	jr	ra
80003a14:	27bd0028 	addiu	sp,sp,40
80003a18:	0c000d7d 	jal	800035f4 <print_trapframe>
80003a1c:	02002021 	move	a0,s0
80003a20:	1260ff81 	beqz	s3,80003828 <handle_tlbmiss+0x8c>
80003a24:	3c048001 	lui	a0,0x8001
80003a28:	3c068001 	lui	a2,0x8001
80003a2c:	24844dd0 	addiu	a0,a0,19920
80003a30:	240500db 	li	a1,219
80003a34:	0c0009f2 	jal	800027c8 <__panic>
80003a38:	24c64e4c 	addiu	a2,a2,20044
80003a3c:	8c43fffc 	lw	v1,-4(v0)
80003a40:	08000e5b 	j	8000396c <handle_tlbmiss+0x1d0>
80003a44:	3c04800d 	lui	a0,0x800d
80003a48:	8c43fffc 	lw	v1,-4(v0)
80003a4c:	00c04821 	move	t1,a2
80003a50:	08000e34 	j	800038d0 <handle_tlbmiss+0x134>
80003a54:	00602821 	move	a1,v1
80003a58:	08000e75 	j	800039d4 <handle_tlbmiss+0x238>
80003a5c:	00001821 	move	v1,zero
80003a60:	08000e6a 	j	800039a8 <handle_tlbmiss+0x20c>
80003a64:	00002021 	move	a0,zero
80003a68:	08000e44 	j	80003910 <handle_tlbmiss+0x174>
80003a6c:	00002021 	move	a0,zero
80003a70:	3c048001 	lui	a0,0x8001
80003a74:	3c068001 	lui	a2,0x8001
80003a78:	24844dd0 	addiu	a0,a0,19920
80003a7c:	240500b5 	li	a1,181
80003a80:	0c0009f2 	jal	800027c8 <__panic>
80003a84:	24c64de4 	addiu	a2,a2,19940
80003a88:	3c048001 	lui	a0,0x8001
80003a8c:	24844dd0 	addiu	a0,a0,19920
80003a90:	24050099 	li	a1,153
80003a94:	0c0009f2 	jal	800027c8 <__panic>
80003a98:	24c64e0c 	addiu	a2,a2,19980
80003a9c:	0c000d7d 	jal	800035f4 <print_trapframe>
80003aa0:	02002021 	move	a0,s0
80003aa4:	3c048001 	lui	a0,0x8001
80003aa8:	3c068001 	lui	a2,0x8001
80003aac:	24844dd0 	addiu	a0,a0,19920
80003ab0:	240500a0 	li	a1,160
80003ab4:	0c0009f2 	jal	800027c8 <__panic>
80003ab8:	24c64e34 	addiu	a2,a2,20020

80003abc <trap_dispatch>:
80003abc:	8c820008 	lw	v0,8(a0)
80003ac0:	27bdffd0 	addiu	sp,sp,-48
80003ac4:	3043007c 	andi	v1,v0,0x7c
80003ac8:	00031882 	srl	v1,v1,0x2
80003acc:	afb00010 	sw	s0,16(sp)
80003ad0:	00808021 	move	s0,a0
80003ad4:	2c64000b 	sltiu	a0,v1,11
80003ad8:	afbf002c 	sw	ra,44(sp)
80003adc:	afb60028 	sw	s6,40(sp)
80003ae0:	afb50024 	sw	s5,36(sp)
80003ae4:	afb40020 	sw	s4,32(sp)
80003ae8:	afb3001c 	sw	s3,28(sp)
80003aec:	afb20018 	sw	s2,24(sp)
80003af0:	14800009 	bnez	a0,80003b18 <trap_dispatch+0x5c>
80003af4:	afb10014 	sw	s1,20(sp)
80003af8:	0c000d7d 	jal	800035f4 <print_trapframe>
80003afc:	02002021 	move	a0,s0
80003b00:	3c048001 	lui	a0,0x8001
80003b04:	3c068001 	lui	a2,0x8001
80003b08:	24844dd0 	addiu	a0,a0,19920
80003b0c:	24050109 	li	a1,265
80003b10:	0c0009f2 	jal	800027c8 <__panic>
80003b14:	24c64eb8 	addiu	a2,a2,20152
80003b18:	3c048001 	lui	a0,0x8001
80003b1c:	00031880 	sll	v1,v1,0x2
80003b20:	24843f3c 	addiu	a0,a0,16188
80003b24:	00831821 	addu	v1,a0,v1
80003b28:	8c630000 	lw	v1,0(v1)
80003b2c:	00000000 	nop
80003b30:	00600008 	jr	v1
80003b34:	00000000 	nop
80003b38:	0c000d7d 	jal	800035f4 <print_trapframe>
80003b3c:	02002021 	move	a0,s0
80003b40:	3c048001 	lui	a0,0x8001
80003b44:	0c000727 	jal	80001c9c <kprintf>
80003b48:	24844e74 	addiu	a0,a0,20084
80003b4c:	8e020090 	lw	v0,144(s0)
80003b50:	00000000 	nop
80003b54:	24420004 	addiu	v0,v0,4
80003b58:	ae020090 	sw	v0,144(s0)
80003b5c:	8fbf002c 	lw	ra,44(sp)
80003b60:	8fb60028 	lw	s6,40(sp)
80003b64:	8fb50024 	lw	s5,36(sp)
80003b68:	8fb40020 	lw	s4,32(sp)
80003b6c:	8fb3001c 	lw	s3,28(sp)
80003b70:	8fb20018 	lw	s2,24(sp)
80003b74:	8fb10014 	lw	s1,20(sp)
80003b78:	8fb00010 	lw	s0,16(sp)
80003b7c:	03e00008 	jr	ra
80003b80:	27bd0030 	addiu	sp,sp,48
80003b84:	24110001 	li	s1,1
80003b88:	24120001 	li	s2,1
80003b8c:	24140008 	li	s4,8
80003b90:	24130006 	li	s3,6
80003b94:	24150007 	li	s5,7
80003b98:	24160004 	li	s6,4
80003b9c:	26240007 	addiu	a0,s1,7
80003ba0:	00922004 	sllv	a0,s2,a0
80003ba4:	00822024 	and	a0,a0,v0
80003ba8:	1080003d 	beqz	a0,80003ca0 <trap_dispatch+0x1e4>
80003bac:	2623ffff 	addiu	v1,s1,-1
80003bb0:	1073003f 	beq	v1,s3,80003cb0 <trap_dispatch+0x1f4>
80003bb4:	00000000 	nop
80003bb8:	10750047 	beq	v1,s5,80003cd8 <trap_dispatch+0x21c>
80003bbc:	00002021 	move	a0,zero
80003bc0:	10760040 	beq	v1,s6,80003cc4 <trap_dispatch+0x208>
80003bc4:	00000000 	nop
80003bc8:	0c000d7d 	jal	800035f4 <print_trapframe>
80003bcc:	02002021 	move	a0,s0
80003bd0:	3c048001 	lui	a0,0x8001
80003bd4:	3c068001 	lui	a2,0x8001
80003bd8:	24844dd0 	addiu	a0,a0,19920
80003bdc:	24050075 	li	a1,117
80003be0:	0c0009f2 	jal	800027c8 <__panic>
80003be4:	24c64e60 	addiu	a2,a2,20064
80003be8:	02002021 	move	a0,s0
80003bec:	00002821 	move	a1,zero
80003bf0:	8fbf002c 	lw	ra,44(sp)
80003bf4:	8fb60028 	lw	s6,40(sp)
80003bf8:	8fb50024 	lw	s5,36(sp)
80003bfc:	8fb40020 	lw	s4,32(sp)
80003c00:	8fb3001c 	lw	s3,28(sp)
80003c04:	8fb20018 	lw	s2,24(sp)
80003c08:	8fb10014 	lw	s1,20(sp)
80003c0c:	8fb00010 	lw	s0,16(sp)
80003c10:	08000de7 	j	8000379c <handle_tlbmiss>
80003c14:	27bd0030 	addiu	sp,sp,48
80003c18:	02002021 	move	a0,s0
80003c1c:	08000efc 	j	80003bf0 <trap_dispatch+0x134>
80003c20:	24050001 	li	a1,1
80003c24:	8e020004 	lw	v0,4(s0)
80003c28:	00000000 	nop
80003c2c:	30420010 	andi	v0,v0,0x10
80003c30:	10400033 	beqz	v0,80003d00 <trap_dispatch+0x244>
80003c34:	02002021 	move	a0,s0
80003c38:	0c000d7d 	jal	800035f4 <print_trapframe>
80003c3c:	00000000 	nop
80003c40:	8fbf002c 	lw	ra,44(sp)
80003c44:	8fb60028 	lw	s6,40(sp)
80003c48:	8fb50024 	lw	s5,36(sp)
80003c4c:	8fb40020 	lw	s4,32(sp)
80003c50:	8fb3001c 	lw	s3,28(sp)
80003c54:	8fb20018 	lw	s2,24(sp)
80003c58:	8fb10014 	lw	s1,20(sp)
80003c5c:	8fb00010 	lw	s0,16(sp)
80003c60:	2404fff7 	li	a0,-9
80003c64:	080026fb 	j	80009bec <do_exit>
80003c68:	27bd0030 	addiu	sp,sp,48
80003c6c:	8e020090 	lw	v0,144(s0)
80003c70:	8fbf002c 	lw	ra,44(sp)
80003c74:	24420004 	addiu	v0,v0,4
80003c78:	ae020090 	sw	v0,144(s0)
80003c7c:	8fb60028 	lw	s6,40(sp)
80003c80:	8fb50024 	lw	s5,36(sp)
80003c84:	8fb40020 	lw	s4,32(sp)
80003c88:	8fb3001c 	lw	s3,28(sp)
80003c8c:	8fb20018 	lw	s2,24(sp)
80003c90:	8fb10014 	lw	s1,20(sp)
80003c94:	8fb00010 	lw	s0,16(sp)
80003c98:	08002e5a 	j	8000b968 <syscall>
80003c9c:	27bd0030 	addiu	sp,sp,48
80003ca0:	1234ffae 	beq	s1,s4,80003b5c <trap_dispatch+0xa0>
80003ca4:	26310001 	addiu	s1,s1,1
80003ca8:	08000ee8 	j	80003ba0 <trap_dispatch+0xe4>
80003cac:	26240007 	addiu	a0,s1,7
80003cb0:	0c000a4f 	jal	8000293c <keyboard_int_handler>
80003cb4:	00000000 	nop
80003cb8:	8e020008 	lw	v0,8(s0)
80003cbc:	08000ee7 	j	80003b9c <trap_dispatch+0xe0>
80003cc0:	26310001 	addiu	s1,s1,1
80003cc4:	0c000b0d 	jal	80002c34 <serial_int_handler>
80003cc8:	00002021 	move	a0,zero
80003ccc:	8e020008 	lw	v0,8(s0)
80003cd0:	08000ee7 	j	80003b9c <trap_dispatch+0xe0>
80003cd4:	26310001 	addiu	s1,s1,1
80003cd8:	8fbf002c 	lw	ra,44(sp)
80003cdc:	8fb60028 	lw	s6,40(sp)
80003ce0:	8fb50024 	lw	s5,36(sp)
80003ce4:	8fb40020 	lw	s4,32(sp)
80003ce8:	8fb3001c 	lw	s3,28(sp)
80003cec:	8fb20018 	lw	s2,24(sp)
80003cf0:	8fb10014 	lw	s1,20(sp)
80003cf4:	8fb00010 	lw	s0,16(sp)
80003cf8:	08000a2d 	j	800028b4 <clock_int_handler>
80003cfc:	27bd0030 	addiu	sp,sp,48
80003d00:	0c000d7d 	jal	800035f4 <print_trapframe>
80003d04:	00000000 	nop
80003d08:	3c048001 	lui	a0,0x8001
80003d0c:	3c068001 	lui	a2,0x8001
80003d10:	24844dd0 	addiu	a0,a0,19920
80003d14:	24050101 	li	a1,257
80003d18:	0c0009f2 	jal	800027c8 <__panic>
80003d1c:	24c64ea8 	addiu	a2,a2,20136

80003d20 <mips_trap>:
80003d20:	27bdffe0 	addiu	sp,sp,-32
80003d24:	afb00010 	sw	s0,16(sp)
80003d28:	3c10800d 	lui	s0,0x800d
80003d2c:	8e027d0c 	lw	v0,32012(s0)
80003d30:	afbf001c 	sw	ra,28(sp)
80003d34:	afb20018 	sw	s2,24(sp)
80003d38:	10400028 	beqz	v0,80003ddc <mips_trap+0xbc>
80003d3c:	afb10014 	sw	s1,20(sp)
80003d40:	8c52004c 	lw	s2,76(v0)
80003d44:	8c910004 	lw	s1,4(a0)
80003d48:	0c000eaf 	jal	80003abc <trap_dispatch>
80003d4c:	ac44004c 	sw	a0,76(v0)
80003d50:	8e027d0c 	lw	v0,32012(s0)
80003d54:	32310010 	andi	s1,s1,0x10
80003d58:	1220000a 	beqz	s1,80003d84 <mips_trap+0x64>
80003d5c:	ac52004c 	sw	s2,76(v0)
80003d60:	8c430054 	lw	v1,84(v0)
80003d64:	00000000 	nop
80003d68:	30630001 	andi	v1,v1,0x1
80003d6c:	14600011 	bnez	v1,80003db4 <mips_trap+0x94>
80003d70:	00000000 	nop
80003d74:	8c420010 	lw	v0,16(v0)
80003d78:	00000000 	nop
80003d7c:	14400007 	bnez	v0,80003d9c <mips_trap+0x7c>
80003d80:	00000000 	nop
80003d84:	8fbf001c 	lw	ra,28(sp)
80003d88:	8fb20018 	lw	s2,24(sp)
80003d8c:	8fb10014 	lw	s1,20(sp)
80003d90:	8fb00010 	lw	s0,16(sp)
80003d94:	03e00008 	jr	ra
80003d98:	27bd0020 	addiu	sp,sp,32
80003d9c:	8fbf001c 	lw	ra,28(sp)
80003da0:	8fb20018 	lw	s2,24(sp)
80003da4:	8fb10014 	lw	s1,20(sp)
80003da8:	8fb00010 	lw	s0,16(sp)
80003dac:	08002c8a 	j	8000b228 <schedule>
80003db0:	27bd0020 	addiu	sp,sp,32
80003db4:	0c0026fb 	jal	80009bec <do_exit>
80003db8:	2404fff7 	li	a0,-9
80003dbc:	8e027d0c 	lw	v0,32012(s0)
80003dc0:	00000000 	nop
80003dc4:	8c420010 	lw	v0,16(v0)
80003dc8:	00000000 	nop
80003dcc:	1040ffed 	beqz	v0,80003d84 <mips_trap+0x64>
80003dd0:	00000000 	nop
80003dd4:	08000f67 	j	80003d9c <mips_trap+0x7c>
80003dd8:	00000000 	nop
80003ddc:	8fbf001c 	lw	ra,28(sp)
80003de0:	8fb20018 	lw	s2,24(sp)
80003de4:	8fb10014 	lw	s1,20(sp)
80003de8:	8fb00010 	lw	s0,16(sp)
80003dec:	08000eaf 	j	80003abc <trap_dispatch>
80003df0:	27bd0020 	addiu	sp,sp,32

80003df4 <buddy_init>:
80003df4:	3c04800d 	lui	a0,0x800d
80003df8:	3c07800d 	lui	a3,0x800d
80003dfc:	24847a38 	addiu	a0,a0,31288
80003e00:	00001021 	move	v0,zero
80003e04:	24e77a30 	addiu	a3,a3,31280
80003e08:	2406000b 	li	a2,11
80003e0c:	00021880 	sll	v1,v0,0x2
80003e10:	00022900 	sll	a1,v0,0x4
80003e14:	00a31823 	subu	v1,a1,v1
80003e18:	00e31821 	addu	v1,a3,v1
80003e1c:	24420001 	addiu	v0,v0,1
80003e20:	ac630004 	sw	v1,4(v1)
80003e24:	ac630000 	sw	v1,0(v1)
80003e28:	ac800000 	sw	zero,0(a0)
80003e2c:	1446fff7 	bne	v0,a2,80003e0c <buddy_init+0x18>
80003e30:	2484000c 	addiu	a0,a0,12
80003e34:	03e00008 	jr	ra
80003e38:	00000000 	nop

80003e3c <buddy_nr_free_pages>:
80003e3c:	3c04800d 	lui	a0,0x800d
80003e40:	24847a38 	addiu	a0,a0,31288
80003e44:	00001821 	move	v1,zero
80003e48:	00001021 	move	v0,zero
80003e4c:	2406000b 	li	a2,11
80003e50:	8c850000 	lw	a1,0(a0)
80003e54:	2484000c 	addiu	a0,a0,12
80003e58:	00652804 	sllv	a1,a1,v1
80003e5c:	24630001 	addiu	v1,v1,1
80003e60:	1466fffb 	bne	v1,a2,80003e50 <buddy_nr_free_pages+0x14>
80003e64:	00451021 	addu	v0,v0,a1
80003e68:	03e00008 	jr	ra
80003e6c:	00000000 	nop

80003e70 <buddy_init_memmap>:
80003e70:	27bdffc8 	addiu	sp,sp,-56
80003e74:	afb10018 	sw	s1,24(sp)
80003e78:	afb00014 	sw	s0,20(sp)
80003e7c:	afbf0034 	sw	ra,52(sp)
80003e80:	afb70030 	sw	s7,48(sp)
80003e84:	afb6002c 	sw	s6,44(sp)
80003e88:	afb50028 	sw	s5,40(sp)
80003e8c:	afb40024 	sw	s4,36(sp)
80003e90:	afb30020 	sw	s3,32(sp)
80003e94:	afb2001c 	sw	s2,28(sp)
80003e98:	00a08021 	move	s0,a1
80003e9c:	10a00076 	beqz	a1,80004078 <buddy_init_memmap+0x208>
80003ea0:	00808821 	move	s1,a0
80003ea4:	3c14800d 	lui	s4,0x800d
80003ea8:	8e827ab4 	lw	v0,31412(s4)
80003eac:	00000000 	nop
80003eb0:	2843000a 	slti	v1,v0,10
80003eb4:	10600070 	beqz	v1,80004078 <buddy_init_memmap+0x208>
80003eb8:	0005a940 	sll	s5,a1,0x5
80003ebc:	0095a821 	addu	s5,a0,s5
80003ec0:	10950014 	beq	a0,s5,80003f14 <buddy_init_memmap+0xa4>
80003ec4:	3c03800d 	lui	v1,0x800d
80003ec8:	00809021 	move	s2,a0
80003ecc:	40026000 	mfc0	v0,c0_status
80003ed0:	00000000 	nop
80003ed4:	30420001 	andi	v0,v0,0x1
80003ed8:	1440005b 	bnez	v0,80004048 <buddy_init_memmap+0x1d8>
80003edc:	00000000 	nop
80003ee0:	8e530004 	lw	s3,4(s2)
80003ee4:	00000000 	nop
80003ee8:	32730001 	andi	s3,s3,0x1
80003eec:	1260005d 	beqz	s3,80004064 <buddy_init_memmap+0x1f4>
80003ef0:	3c048001 	lui	a0,0x8001
80003ef4:	8e827ab4 	lw	v0,31412(s4)
80003ef8:	ae400008 	sw	zero,8(s2)
80003efc:	ae400004 	sw	zero,4(s2)
80003f00:	ae42000c 	sw	v0,12(s2)
80003f04:	ae400000 	sw	zero,0(s2)
80003f08:	26520020 	addiu	s2,s2,32
80003f0c:	1655ffef 	bne	s2,s5,80003ecc <buddy_init_memmap+0x5c>
80003f10:	3c03800d 	lui	v1,0x800d
80003f14:	00022080 	sll	a0,v0,0x2
80003f18:	24637a08 	addiu	v1,v1,31240
80003f1c:	24420001 	addiu	v0,v0,1
80003f20:	00831821 	addu	v1,a0,v1
80003f24:	ae827ab4 	sw	v0,31412(s4)
80003f28:	3c17800d 	lui	s7,0x800d
80003f2c:	3c14800d 	lui	s4,0x800d
80003f30:	ac710000 	sw	s1,0(v1)
80003f34:	26947ab0 	addiu	s4,s4,31408
80003f38:	24130400 	li	s3,1024
80003f3c:	2415000a 	li	s5,10
80003f40:	26f77a30 	addiu	s7,s7,31280
80003f44:	0213102b 	sltu	v0,s0,s3
80003f48:	14400030 	bnez	v0,8000400c <buddy_init_memmap+0x19c>
80003f4c:	00151100 	sll	v0,s5,0x4
80003f50:	00159080 	sll	s2,s5,0x2
80003f54:	00529023 	subu	s2,v0,s2
80003f58:	0013b140 	sll	s6,s3,0x5
80003f5c:	08000fe9 	j	80003fa4 <buddy_init_memmap+0x134>
80003f60:	02f29021 	addu	s2,s7,s2
80003f64:	8e220004 	lw	v0,4(s1)
80003f68:	26230010 	addiu	v1,s1,16
80003f6c:	34420002 	ori	v0,v0,0x2
80003f70:	ae220004 	sw	v0,4(s1)
80003f74:	8e420004 	lw	v0,4(s2)
80003f78:	ae430004 	sw	v1,4(s2)
80003f7c:	ac430000 	sw	v1,0(v0)
80003f80:	ae220014 	sw	v0,20(s1)
80003f84:	ae320010 	sw	s2,16(s1)
80003f88:	8e830000 	lw	v1,0(s4)
80003f8c:	02138023 	subu	s0,s0,s3
80003f90:	24630001 	addiu	v1,v1,1
80003f94:	0213102b 	sltu	v0,s0,s3
80003f98:	02368821 	addu	s1,s1,s6
80003f9c:	1440001b 	bnez	v0,8000400c <buddy_init_memmap+0x19c>
80003fa0:	ae830000 	sw	v1,0(s4)
80003fa4:	ae350008 	sw	s5,8(s1)
80003fa8:	40026000 	mfc0	v0,c0_status
80003fac:	00000000 	nop
80003fb0:	30420001 	andi	v0,v0,0x1
80003fb4:	1040ffeb 	beqz	v0,80003f64 <buddy_init_memmap+0xf4>
80003fb8:	00000000 	nop
80003fbc:	0c000b7d 	jal	80002df4 <intr_disable>
80003fc0:	00000000 	nop
80003fc4:	8e220004 	lw	v0,4(s1)
80003fc8:	02138023 	subu	s0,s0,s3
80003fcc:	34420002 	ori	v0,v0,0x2
80003fd0:	ae220004 	sw	v0,4(s1)
80003fd4:	0c000b77 	jal	80002ddc <intr_enable>
80003fd8:	00000000 	nop
80003fdc:	8e420004 	lw	v0,4(s2)
80003fe0:	26230010 	addiu	v1,s1,16
80003fe4:	ac430000 	sw	v1,0(v0)
80003fe8:	ae430004 	sw	v1,4(s2)
80003fec:	ae320010 	sw	s2,16(s1)
80003ff0:	ae220014 	sw	v0,20(s1)
80003ff4:	8e830000 	lw	v1,0(s4)
80003ff8:	0213102b 	sltu	v0,s0,s3
80003ffc:	24630001 	addiu	v1,v1,1
80004000:	02368821 	addu	s1,s1,s6
80004004:	1040ffe7 	beqz	v0,80003fa4 <buddy_init_memmap+0x134>
80004008:	ae830000 	sw	v1,0(s4)
8000400c:	26b5ffff 	addiu	s5,s5,-1
80004010:	00139842 	srl	s3,s3,0x1
80004014:	1600ffcb 	bnez	s0,80003f44 <buddy_init_memmap+0xd4>
80004018:	2694fff4 	addiu	s4,s4,-12
8000401c:	8fbf0034 	lw	ra,52(sp)
80004020:	8fb70030 	lw	s7,48(sp)
80004024:	8fb6002c 	lw	s6,44(sp)
80004028:	8fb50028 	lw	s5,40(sp)
8000402c:	8fb40024 	lw	s4,36(sp)
80004030:	8fb30020 	lw	s3,32(sp)
80004034:	8fb2001c 	lw	s2,28(sp)
80004038:	8fb10018 	lw	s1,24(sp)
8000403c:	8fb00014 	lw	s0,20(sp)
80004040:	03e00008 	jr	ra
80004044:	27bd0038 	addiu	sp,sp,56
80004048:	0c000b7d 	jal	80002df4 <intr_disable>
8000404c:	00000000 	nop
80004050:	8e530004 	lw	s3,4(s2)
80004054:	0c000b77 	jal	80002ddc <intr_enable>
80004058:	32730001 	andi	s3,s3,0x1
8000405c:	08000fbb 	j	80003eec <buddy_init_memmap+0x7c>
80004060:	00000000 	nop
80004064:	3c068001 	lui	a2,0x8001
80004068:	24844fdc 	addiu	a0,a0,20444
8000406c:	2405003b 	li	a1,59
80004070:	0c0009f2 	jal	800027c8 <__panic>
80004074:	24c65024 	addiu	a2,a2,20516
80004078:	3c048001 	lui	a0,0x8001
8000407c:	3c068001 	lui	a2,0x8001
80004080:	24844fdc 	addiu	a0,a0,20444
80004084:	24050038 	li	a1,56
80004088:	0c0009f2 	jal	800027c8 <__panic>
8000408c:	24c64ff0 	addiu	a2,a2,20464

80004090 <buddy_alloc_pages>:
80004090:	27bdffc0 	addiu	sp,sp,-64
80004094:	afbf003c 	sw	ra,60(sp)
80004098:	afbe0038 	sw	s8,56(sp)
8000409c:	afb70034 	sw	s7,52(sp)
800040a0:	afb60030 	sw	s6,48(sp)
800040a4:	afb5002c 	sw	s5,44(sp)
800040a8:	afb40028 	sw	s4,40(sp)
800040ac:	afb30024 	sw	s3,36(sp)
800040b0:	afb20020 	sw	s2,32(sp)
800040b4:	afb1001c 	sw	s1,28(sp)
800040b8:	afb00018 	sw	s0,24(sp)
800040bc:	10800089 	beqz	a0,800042e4 <buddy_alloc_pages+0x254>
800040c0:	00803821 	move	a3,a0
800040c4:	2c820002 	sltiu	v0,a0,2
800040c8:	14400083 	bnez	v0,800042d8 <buddy_alloc_pages+0x248>
800040cc:	24020002 	li	v0,2
800040d0:	24120001 	li	s2,1
800040d4:	2404000b 	li	a0,11
800040d8:	0047182b 	sltu	v1,v0,a3
800040dc:	1060000a 	beqz	v1,80004108 <buddy_alloc_pages+0x78>
800040e0:	24110001 	li	s1,1
800040e4:	26520001 	addiu	s2,s2,1
800040e8:	1644fffb 	bne	s2,a0,800040d8 <buddy_alloc_pages+0x48>
800040ec:	00021040 	sll	v0,v0,0x1
800040f0:	3c048001 	lui	a0,0x8001
800040f4:	3c068001 	lui	a2,0x8001
800040f8:	24844fdc 	addiu	a0,a0,20444
800040fc:	24050058 	li	a1,88
80004100:	0c0009f2 	jal	800027c8 <__panic>
80004104:	24c65060 	addiu	a2,a2,20576
80004108:	02518804 	sllv	s1,s1,s2
8000410c:	3c17800d 	lui	s7,0x800d
80004110:	02401021 	move	v0,s2
80004114:	26f77a30 	addiu	s7,s7,31280
80004118:	2405000b 	li	a1,11
8000411c:	00021880 	sll	v1,v0,0x2
80004120:	00022100 	sll	a0,v0,0x4
80004124:	00831823 	subu	v1,a0,v1
80004128:	02e31821 	addu	v1,s7,v1
8000412c:	8c750004 	lw	s5,4(v1)
80004130:	00000000 	nop
80004134:	14750011 	bne	v1,s5,8000417c <buddy_alloc_pages+0xec>
80004138:	0242302b 	sltu	a2,s2,v0
8000413c:	24420001 	addiu	v0,v0,1
80004140:	1445fff6 	bne	v0,a1,8000411c <buddy_alloc_pages+0x8c>
80004144:	00008021 	move	s0,zero
80004148:	8fbf003c 	lw	ra,60(sp)
8000414c:	02001021 	move	v0,s0
80004150:	8fbe0038 	lw	s8,56(sp)
80004154:	8fb70034 	lw	s7,52(sp)
80004158:	8fb60030 	lw	s6,48(sp)
8000415c:	8fb5002c 	lw	s5,44(sp)
80004160:	8fb40028 	lw	s4,40(sp)
80004164:	8fb30024 	lw	s3,36(sp)
80004168:	8fb20020 	lw	s2,32(sp)
8000416c:	8fb1001c 	lw	s1,28(sp)
80004170:	8fb00018 	lw	s0,24(sp)
80004174:	03e00008 	jr	ra
80004178:	27bd0040 	addiu	sp,sp,64
8000417c:	8c680008 	lw	t0,8(v1)
80004180:	8ea50000 	lw	a1,0(s5)
80004184:	8ea40004 	lw	a0,4(s5)
80004188:	2508ffff 	addiu	t0,t0,-1
8000418c:	ac680008 	sw	t0,8(v1)
80004190:	26b0fff0 	addiu	s0,s5,-16
80004194:	aca40004 	sw	a0,4(a1)
80004198:	10c00032 	beqz	a2,80004264 <buddy_alloc_pages+0x1d4>
8000419c:	ac850000 	sw	a1,0(a0)
800041a0:	2454ffff 	addiu	s4,v0,-1
800041a4:	00141880 	sll	v1,s4,0x2
800041a8:	0014b100 	sll	s6,s4,0x4
800041ac:	02c3b023 	subu	s6,s6,v1
800041b0:	26d60008 	addiu	s6,s6,8
800041b4:	241e0001 	li	s8,1
800041b8:	005ef004 	sllv	s8,s8,v0
800041bc:	08001085 	j	80004214 <buddy_alloc_pages+0x184>
800041c0:	02f6b021 	addu	s6,s7,s6
800041c4:	8e620004 	lw	v0,4(s3)
800041c8:	00000000 	nop
800041cc:	34420002 	ori	v0,v0,0x2
800041d0:	ae620004 	sw	v0,4(s3)
800041d4:	8ec30000 	lw	v1,0(s6)
800041d8:	00142080 	sll	a0,s4,0x2
800041dc:	00141100 	sll	v0,s4,0x4
800041e0:	24630001 	addiu	v1,v1,1
800041e4:	00441023 	subu	v0,v0,a0
800041e8:	aec30000 	sw	v1,0(s6)
800041ec:	02e21021 	addu	v0,s7,v0
800041f0:	8c430004 	lw	v1,4(v0)
800041f4:	26640010 	addiu	a0,s3,16
800041f8:	ac640000 	sw	a0,0(v1)
800041fc:	ac440004 	sw	a0,4(v0)
80004200:	ae620010 	sw	v0,16(s3)
80004204:	ae630014 	sw	v1,20(s3)
80004208:	12920016 	beq	s4,s2,80004264 <buddy_alloc_pages+0x1d4>
8000420c:	26d6fff4 	addiu	s6,s6,-12
80004210:	2694ffff 	addiu	s4,s4,-1
80004214:	001ef042 	srl	s8,s8,0x1
80004218:	001e9940 	sll	s3,s8,0x5
8000421c:	02139821 	addu	s3,s0,s3
80004220:	ae740008 	sw	s4,8(s3)
80004224:	40026000 	mfc0	v0,c0_status
80004228:	00000000 	nop
8000422c:	30420001 	andi	v0,v0,0x1
80004230:	1040ffe4 	beqz	v0,800041c4 <buddy_alloc_pages+0x134>
80004234:	00000000 	nop
80004238:	0c000b7d 	jal	80002df4 <intr_disable>
8000423c:	afa70010 	sw	a3,16(sp)
80004240:	8e620004 	lw	v0,4(s3)
80004244:	00000000 	nop
80004248:	34420002 	ori	v0,v0,0x2
8000424c:	ae620004 	sw	v0,4(s3)
80004250:	0c000b77 	jal	80002ddc <intr_enable>
80004254:	00000000 	nop
80004258:	8fa70010 	lw	a3,16(sp)
8000425c:	08001075 	j	800041d4 <buddy_alloc_pages+0x144>
80004260:	00000000 	nop
80004264:	40026000 	mfc0	v0,c0_status
80004268:	00000000 	nop
8000426c:	30420001 	andi	v0,v0,0x1
80004270:	1440000e 	bnez	v0,800042ac <buddy_alloc_pages+0x21c>
80004274:	00000000 	nop
80004278:	8ea3fff4 	lw	v1,-12(s5)
8000427c:	2402fffd 	li	v0,-3
80004280:	00621024 	and	v0,v1,v0
80004284:	aea2fff4 	sw	v0,-12(s5)
80004288:	1200ffaf 	beqz	s0,80004148 <buddy_alloc_pages+0xb8>
8000428c:	00000000 	nop
80004290:	10f1ffad 	beq	a3,s1,80004148 <buddy_alloc_pages+0xb8>
80004294:	00072140 	sll	a0,a3,0x5
80004298:	02042021 	addu	a0,s0,a0
8000429c:	0c0017bc 	jal	80005ef0 <free_pages>
800042a0:	02272823 	subu	a1,s1,a3
800042a4:	08001052 	j	80004148 <buddy_alloc_pages+0xb8>
800042a8:	00000000 	nop
800042ac:	0c000b7d 	jal	80002df4 <intr_disable>
800042b0:	afa70010 	sw	a3,16(sp)
800042b4:	8ea3fff4 	lw	v1,-12(s5)
800042b8:	2402fffd 	li	v0,-3
800042bc:	00621024 	and	v0,v1,v0
800042c0:	aea2fff4 	sw	v0,-12(s5)
800042c4:	0c000b77 	jal	80002ddc <intr_enable>
800042c8:	00000000 	nop
800042cc:	8fa70010 	lw	a3,16(sp)
800042d0:	080010a2 	j	80004288 <buddy_alloc_pages+0x1f8>
800042d4:	00000000 	nop
800042d8:	24110001 	li	s1,1
800042dc:	08001043 	j	8000410c <buddy_alloc_pages+0x7c>
800042e0:	00009021 	move	s2,zero
800042e4:	3c048001 	lui	a0,0x8001
800042e8:	3c068001 	lui	a2,0x8001
800042ec:	24844fdc 	addiu	a0,a0,20444
800042f0:	2405007b 	li	a1,123
800042f4:	0c0009f2 	jal	800027c8 <__panic>
800042f8:	24c65048 	addiu	a2,a2,20552

800042fc <buddy_check>:
800042fc:	27bdff38 	addiu	sp,sp,-200
80004300:	afb400b0 	sw	s4,176(sp)
80004304:	3c14800d 	lui	s4,0x800d
80004308:	afbe00c0 	sw	s8,192(sp)
8000430c:	afb500b4 	sw	s5,180(sp)
80004310:	afb100a4 	sw	s1,164(sp)
80004314:	afb000a0 	sw	s0,160(sp)
80004318:	afbf00c4 	sw	ra,196(sp)
8000431c:	afb700bc 	sw	s7,188(sp)
80004320:	afb600b8 	sw	s6,184(sp)
80004324:	afb300ac 	sw	s3,172(sp)
80004328:	afb200a8 	sw	s2,168(sp)
8000432c:	00008021 	move	s0,zero
80004330:	00008821 	move	s1,zero
80004334:	0000a821 	move	s5,zero
80004338:	26947a30 	addiu	s4,s4,31280
8000433c:	241e000b 	li	s8,11
80004340:	0015b080 	sll	s6,s5,0x2
80004344:	00151100 	sll	v0,s5,0x4
80004348:	0056b023 	subu	s6,v0,s6
8000434c:	0296b021 	addu	s6,s4,s6
80004350:	8ed20004 	lw	s2,4(s6)
80004354:	00000000 	nop
80004358:	12d20015 	beq	s6,s2,800043b0 <buddy_check+0xb4>
8000435c:	24020001 	li	v0,1
80004360:	02a2b804 	sllv	s7,v0,s5
80004364:	40026000 	mfc0	v0,c0_status
80004368:	00000000 	nop
8000436c:	30420001 	andi	v0,v0,0x1
80004370:	1440013f 	bnez	v0,80004870 <buddy_check+0x574>
80004374:	00000000 	nop
80004378:	8e53fff4 	lw	s3,-12(s2)
8000437c:	00000000 	nop
80004380:	00139842 	srl	s3,s3,0x1
80004384:	32730001 	andi	s3,s3,0x1
80004388:	12600142 	beqz	s3,80004894 <buddy_check+0x598>
8000438c:	3c048001 	lui	a0,0x8001
80004390:	8e42fff8 	lw	v0,-8(s2)
80004394:	00000000 	nop
80004398:	1455013e 	bne	v0,s5,80004894 <buddy_check+0x598>
8000439c:	3c048001 	lui	a0,0x8001
800043a0:	8e520004 	lw	s2,4(s2)
800043a4:	26310001 	addiu	s1,s1,1
800043a8:	16d2ffee 	bne	s6,s2,80004364 <buddy_check+0x68>
800043ac:	02178021 	addu	s0,s0,s7
800043b0:	26b50001 	addiu	s5,s5,1
800043b4:	16beffe2 	bne	s5,s8,80004340 <buddy_check+0x44>
800043b8:	00000000 	nop
800043bc:	0c0017dd 	jal	80005f74 <nr_free_pages>
800043c0:	00000000 	nop
800043c4:	160201a8 	bne	s0,v0,80004a68 <buddy_check+0x76c>
800043c8:	3c048001 	lui	a0,0x8001
800043cc:	0c00179c 	jal	80005e70 <alloc_pages>
800043d0:	24040008 	li	a0,8
800043d4:	24040008 	li	a0,8
800043d8:	0c00179c 	jal	80005e70 <alloc_pages>
800043dc:	0040a821 	move	s5,v0
800043e0:	12a0019b 	beqz	s5,80004a50 <buddy_check+0x754>
800043e4:	0040b821 	move	s7,v0
800043e8:	8ea3000c 	lw	v1,12(s5)
800043ec:	3c02800d 	lui	v0,0x800d
800043f0:	00031880 	sll	v1,v1,0x2
800043f4:	24427a08 	addiu	v0,v0,31240
800043f8:	00621021 	addu	v0,v1,v0
800043fc:	8c420000 	lw	v0,0(v0)
80004400:	00000000 	nop
80004404:	02a21023 	subu	v0,s5,v0
80004408:	00021143 	sra	v0,v0,0x5
8000440c:	30420007 	andi	v0,v0,0x7
80004410:	1440018a 	bnez	v0,80004a3c <buddy_check+0x740>
80004414:	3c048001 	lui	a0,0x8001
80004418:	40026000 	mfc0	v0,c0_status
8000441c:	00000000 	nop
80004420:	30420001 	andi	v0,v0,0x1
80004424:	14400120 	bnez	v0,800048a8 <buddy_check+0x5ac>
80004428:	00000000 	nop
8000442c:	8eb20004 	lw	s2,4(s5)
80004430:	00000000 	nop
80004434:	00129042 	srl	s2,s2,0x1
80004438:	32520001 	andi	s2,s2,0x1
8000443c:	1640018f 	bnez	s2,80004a7c <buddy_check+0x780>
80004440:	27b2003c 	addiu	s2,sp,60
80004444:	27b30010 	addiu	s3,sp,16
80004448:	3c02800d 	lui	v0,0x800d
8000444c:	24427a38 	addiu	v0,v0,31288
80004450:	02603021 	move	a2,s3
80004454:	02402821 	move	a1,s2
80004458:	00001821 	move	v1,zero
8000445c:	2409000b 	li	t1,11
80004460:	00033900 	sll	a3,v1,0x4
80004464:	00032080 	sll	a0,v1,0x2
80004468:	00e42023 	subu	a0,a3,a0
8000446c:	02842021 	addu	a0,s4,a0
80004470:	8c48fff8 	lw	t0,-8(v0)
80004474:	8c47fffc 	lw	a3,-4(v0)
80004478:	ac840004 	sw	a0,4(a0)
8000447c:	ac840000 	sw	a0,0(a0)
80004480:	8c440000 	lw	a0,0(v0)
80004484:	24630001 	addiu	v1,v1,1
80004488:	aca80000 	sw	t0,0(a1)
8000448c:	aca70004 	sw	a3,4(a1)
80004490:	acc40000 	sw	a0,0(a2)
80004494:	ac400000 	sw	zero,0(v0)
80004498:	24a50008 	addiu	a1,a1,8
8000449c:	2442000c 	addiu	v0,v0,12
800044a0:	1469ffef 	bne	v1,t1,80004460 <buddy_check+0x164>
800044a4:	24c60004 	addiu	a2,a2,4
800044a8:	0c0017dd 	jal	80005f74 <nr_free_pages>
800044ac:	00000000 	nop
800044b0:	14400178 	bnez	v0,80004a94 <buddy_check+0x798>
800044b4:	3c048001 	lui	a0,0x8001
800044b8:	0c00179c 	jal	80005e70 <alloc_pages>
800044bc:	24040001 	li	a0,1
800044c0:	14400179 	bnez	v0,80004aa8 <buddy_check+0x7ac>
800044c4:	02a02021 	move	a0,s5
800044c8:	0c0017bc 	jal	80005ef0 <free_pages>
800044cc:	24050008 	li	a1,8
800044d0:	0c0017dd 	jal	80005f74 <nr_free_pages>
800044d4:	00000000 	nop
800044d8:	24030008 	li	v1,8
800044dc:	14430178 	bne	v0,v1,80004ac0 <buddy_check+0x7c4>
800044e0:	3c048001 	lui	a0,0x8001
800044e4:	40026000 	mfc0	v0,c0_status
800044e8:	00000000 	nop
800044ec:	30420001 	andi	v0,v0,0x1
800044f0:	1440013a 	bnez	v0,800049dc <buddy_check+0x6e0>
800044f4:	00000000 	nop
800044f8:	8eb60004 	lw	s6,4(s5)
800044fc:	00000000 	nop
80004500:	0016b042 	srl	s6,s6,0x1
80004504:	32d60001 	andi	s6,s6,0x1
80004508:	12c00172 	beqz	s6,80004ad4 <buddy_check+0x7d8>
8000450c:	24020003 	li	v0,3
80004510:	8ea30008 	lw	v1,8(s5)
80004514:	00000000 	nop
80004518:	1462016f 	bne	v1,v0,80004ad8 <buddy_check+0x7dc>
8000451c:	3c048001 	lui	a0,0x8001
80004520:	0c00179c 	jal	80005e70 <alloc_pages>
80004524:	24040006 	li	a0,6
80004528:	10400170 	beqz	v0,80004aec <buddy_check+0x7f0>
8000452c:	0040a821 	move	s5,v0
80004530:	40026000 	mfc0	v0,c0_status
80004534:	00000000 	nop
80004538:	30420001 	andi	v0,v0,0x1
8000453c:	1440011e 	bnez	v0,800049b8 <buddy_check+0x6bc>
80004540:	00000000 	nop
80004544:	8eb60004 	lw	s6,4(s5)
80004548:	00000000 	nop
8000454c:	0016b042 	srl	s6,s6,0x1
80004550:	32d60001 	andi	s6,s6,0x1
80004554:	16c00166 	bnez	s6,80004af0 <buddy_check+0x7f4>
80004558:	3c048001 	lui	a0,0x8001
8000455c:	0c0017dd 	jal	80005f74 <nr_free_pages>
80004560:	00000000 	nop
80004564:	24030002 	li	v1,2
80004568:	14430161 	bne	v0,v1,80004af0 <buddy_check+0x7f4>
8000456c:	3c048001 	lui	a0,0x8001
80004570:	0c00179c 	jal	80005e70 <alloc_pages>
80004574:	24040002 	li	a0,2
80004578:	10400162 	beqz	v0,80004b04 <buddy_check+0x808>
8000457c:	0040b021 	move	s6,v0
80004580:	26a200c0 	addiu	v0,s5,192
80004584:	16c20160 	bne	s6,v0,80004b08 <buddy_check+0x80c>
80004588:	3c048001 	lui	a0,0x8001
8000458c:	0c0017dd 	jal	80005f74 <nr_free_pages>
80004590:	00000000 	nop
80004594:	14400161 	bnez	v0,80004b1c <buddy_check+0x820>
80004598:	02a02021 	move	a0,s5
8000459c:	0c0017bc 	jal	80005ef0 <free_pages>
800045a0:	24050003 	li	a1,3
800045a4:	40026000 	mfc0	v0,c0_status
800045a8:	00000000 	nop
800045ac:	30420001 	andi	v0,v0,0x1
800045b0:	144000f8 	bnez	v0,80004994 <buddy_check+0x698>
800045b4:	00000000 	nop
800045b8:	8ebe0004 	lw	s8,4(s5)
800045bc:	00000000 	nop
800045c0:	001ef042 	srl	s8,s8,0x1
800045c4:	33de0001 	andi	s8,s8,0x1
800045c8:	13c0015a 	beqz	s8,80004b34 <buddy_check+0x838>
800045cc:	24020001 	li	v0,1
800045d0:	8ea30008 	lw	v1,8(s5)
800045d4:	00000000 	nop
800045d8:	14620157 	bne	v1,v0,80004b38 <buddy_check+0x83c>
800045dc:	3c048001 	lui	a0,0x8001
800045e0:	40026000 	mfc0	v0,c0_status
800045e4:	00000000 	nop
800045e8:	30420001 	andi	v0,v0,0x1
800045ec:	144000e0 	bnez	v0,80004970 <buddy_check+0x674>
800045f0:	00000000 	nop
800045f4:	8ebe0044 	lw	s8,68(s5)
800045f8:	00000000 	nop
800045fc:	001ef042 	srl	s8,s8,0x1
80004600:	33de0001 	andi	s8,s8,0x1
80004604:	13c00152 	beqz	s8,80004b50 <buddy_check+0x854>
80004608:	3c048001 	lui	a0,0x8001
8000460c:	8ea20048 	lw	v0,72(s5)
80004610:	00000000 	nop
80004614:	1440014d 	bnez	v0,80004b4c <buddy_check+0x850>
80004618:	26a40060 	addiu	a0,s5,96
8000461c:	0c0017bc 	jal	80005ef0 <free_pages>
80004620:	24050003 	li	a1,3
80004624:	02c02021 	move	a0,s6
80004628:	0c0017bc 	jal	80005ef0 <free_pages>
8000462c:	24050002 	li	a1,2
80004630:	40026000 	mfc0	v0,c0_status
80004634:	00000000 	nop
80004638:	30420001 	andi	v0,v0,0x1
8000463c:	144000c3 	bnez	v0,8000494c <buddy_check+0x650>
80004640:	00000000 	nop
80004644:	8eb60004 	lw	s6,4(s5)
80004648:	00000000 	nop
8000464c:	0016b042 	srl	s6,s6,0x1
80004650:	32d60001 	andi	s6,s6,0x1
80004654:	12c00143 	beqz	s6,80004b64 <buddy_check+0x868>
80004658:	24020003 	li	v0,3
8000465c:	8ea30008 	lw	v1,8(s5)
80004660:	00000000 	nop
80004664:	14620140 	bne	v1,v0,80004b68 <buddy_check+0x86c>
80004668:	3c048001 	lui	a0,0x8001
8000466c:	0c00179c 	jal	80005e70 <alloc_pages>
80004670:	24040006 	li	a0,6
80004674:	10400141 	beqz	v0,80004b7c <buddy_check+0x880>
80004678:	0040a821 	move	s5,v0
8000467c:	0c00179c 	jal	80005e70 <alloc_pages>
80004680:	24040002 	li	a0,2
80004684:	10400143 	beqz	v0,80004b94 <buddy_check+0x898>
80004688:	26a40080 	addiu	a0,s5,128
8000468c:	24050002 	li	a1,2
80004690:	0c0017bc 	jal	80005ef0 <free_pages>
80004694:	afa20098 	sw	v0,152(sp)
80004698:	8fa20098 	lw	v0,152(sp)
8000469c:	24050002 	li	a1,2
800046a0:	0c0017bc 	jal	80005ef0 <free_pages>
800046a4:	00402021 	move	a0,v0
800046a8:	40026000 	mfc0	v0,c0_status
800046ac:	00000000 	nop
800046b0:	30420001 	andi	v0,v0,0x1
800046b4:	1440009c 	bnez	v0,80004928 <buddy_check+0x62c>
800046b8:	00000000 	nop
800046bc:	8eb60084 	lw	s6,132(s5)
800046c0:	00000000 	nop
800046c4:	0016b042 	srl	s6,s6,0x1
800046c8:	32d60001 	andi	s6,s6,0x1
800046cc:	12c00137 	beqz	s6,80004bac <buddy_check+0x8b0>
800046d0:	24020002 	li	v0,2
800046d4:	8ea30088 	lw	v1,136(s5)
800046d8:	00000000 	nop
800046dc:	14620133 	bne	v1,v0,80004bac <buddy_check+0x8b0>
800046e0:	02a02021 	move	a0,s5
800046e4:	0c0017bc 	jal	80005ef0 <free_pages>
800046e8:	24050004 	li	a1,4
800046ec:	40026000 	mfc0	v0,c0_status
800046f0:	00000000 	nop
800046f4:	30420001 	andi	v0,v0,0x1
800046f8:	14400082 	bnez	v0,80004904 <buddy_check+0x608>
800046fc:	00000000 	nop
80004700:	8eb60004 	lw	s6,4(s5)
80004704:	00000000 	nop
80004708:	0016b042 	srl	s6,s6,0x1
8000470c:	32d60001 	andi	s6,s6,0x1
80004710:	12c0012c 	beqz	s6,80004bc4 <buddy_check+0x8c8>
80004714:	24020003 	li	v0,3
80004718:	8ea30008 	lw	v1,8(s5)
8000471c:	00000000 	nop
80004720:	14620129 	bne	v1,v0,80004bc8 <buddy_check+0x8cc>
80004724:	3c048001 	lui	a0,0x8001
80004728:	0c00179c 	jal	80005e70 <alloc_pages>
8000472c:	24040008 	li	a0,8
80004730:	1040012a 	beqz	v0,80004bdc <buddy_check+0x8e0>
80004734:	0040a821 	move	s5,v0
80004738:	0c00179c 	jal	80005e70 <alloc_pages>
8000473c:	24040001 	li	a0,1
80004740:	1440012d 	bnez	v0,80004bf8 <buddy_check+0x8fc>
80004744:	3c048001 	lui	a0,0x8001
80004748:	0c0017dd 	jal	80005f74 <nr_free_pages>
8000474c:	00000000 	nop
80004750:	14400128 	bnez	v0,80004bf4 <buddy_check+0x8f8>
80004754:	02801021 	move	v0,s4
80004758:	26860084 	addiu	a2,s4,132
8000475c:	8e450000 	lw	a1,0(s2)
80004760:	8e440004 	lw	a0,4(s2)
80004764:	8e630000 	lw	v1,0(s3)
80004768:	ac450000 	sw	a1,0(v0)
8000476c:	ac440004 	sw	a0,4(v0)
80004770:	ac430008 	sw	v1,8(v0)
80004774:	2442000c 	addiu	v0,v0,12
80004778:	26520008 	addiu	s2,s2,8
8000477c:	1446fff7 	bne	v0,a2,8000475c <buddy_check+0x460>
80004780:	26730004 	addiu	s3,s3,4
80004784:	24050008 	li	a1,8
80004788:	0c0017bc 	jal	80005ef0 <free_pages>
8000478c:	02a02021 	move	a0,s5
80004790:	02e02021 	move	a0,s7
80004794:	0c0017bc 	jal	80005ef0 <free_pages>
80004798:	24050008 	li	a1,8
8000479c:	0c0017dd 	jal	80005f74 <nr_free_pages>
800047a0:	00000000 	nop
800047a4:	16020096 	bne	s0,v0,80004a00 <buddy_check+0x704>
800047a8:	0000a821 	move	s5,zero
800047ac:	241e000b 	li	s8,11
800047b0:	0015b080 	sll	s6,s5,0x2
800047b4:	00151100 	sll	v0,s5,0x4
800047b8:	0056b023 	subu	s6,v0,s6
800047bc:	0296b021 	addu	s6,s4,s6
800047c0:	8ed20004 	lw	s2,4(s6)
800047c4:	00000000 	nop
800047c8:	12d20016 	beq	s6,s2,80004824 <buddy_check+0x528>
800047cc:	24020001 	li	v0,1
800047d0:	02a2b804 	sllv	s7,v0,s5
800047d4:	0017b823 	negu	s7,s7
800047d8:	40026000 	mfc0	v0,c0_status
800047dc:	00000000 	nop
800047e0:	30420001 	andi	v0,v0,0x1
800047e4:	14400039 	bnez	v0,800048cc <buddy_check+0x5d0>
800047e8:	00000000 	nop
800047ec:	8e53fff4 	lw	s3,-12(s2)
800047f0:	00000000 	nop
800047f4:	00139842 	srl	s3,s3,0x1
800047f8:	32730001 	andi	s3,s3,0x1
800047fc:	1260003c 	beqz	s3,800048f0 <buddy_check+0x5f4>
80004800:	3c048001 	lui	a0,0x8001
80004804:	8e42fff8 	lw	v0,-8(s2)
80004808:	00000000 	nop
8000480c:	14550038 	bne	v0,s5,800048f0 <buddy_check+0x5f4>
80004810:	3c048001 	lui	a0,0x8001
80004814:	8e520004 	lw	s2,4(s2)
80004818:	2631ffff 	addiu	s1,s1,-1
8000481c:	16d2ffee 	bne	s6,s2,800047d8 <buddy_check+0x4dc>
80004820:	02178021 	addu	s0,s0,s7
80004824:	26b50001 	addiu	s5,s5,1
80004828:	16beffe1 	bne	s5,s8,800047b0 <buddy_check+0x4b4>
8000482c:	00000000 	nop
80004830:	16200079 	bnez	s1,80004a18 <buddy_check+0x71c>
80004834:	3c048001 	lui	a0,0x8001
80004838:	1600007c 	bnez	s0,80004a2c <buddy_check+0x730>
8000483c:	3c068001 	lui	a2,0x8001
80004840:	8fbf00c4 	lw	ra,196(sp)
80004844:	8fbe00c0 	lw	s8,192(sp)
80004848:	8fb700bc 	lw	s7,188(sp)
8000484c:	8fb600b8 	lw	s6,184(sp)
80004850:	8fb500b4 	lw	s5,180(sp)
80004854:	8fb400b0 	lw	s4,176(sp)
80004858:	8fb300ac 	lw	s3,172(sp)
8000485c:	8fb200a8 	lw	s2,168(sp)
80004860:	8fb100a4 	lw	s1,164(sp)
80004864:	8fb000a0 	lw	s0,160(sp)
80004868:	03e00008 	jr	ra
8000486c:	27bd00c8 	addiu	sp,sp,200
80004870:	0c000b7d 	jal	80002df4 <intr_disable>
80004874:	00000000 	nop
80004878:	8e53fff4 	lw	s3,-12(s2)
8000487c:	00000000 	nop
80004880:	00139842 	srl	s3,s3,0x1
80004884:	0c000b77 	jal	80002ddc <intr_enable>
80004888:	32730001 	andi	s3,s3,0x1
8000488c:	1660fec0 	bnez	s3,80004390 <buddy_check+0x94>
80004890:	3c048001 	lui	a0,0x8001
80004894:	3c068001 	lui	a2,0x8001
80004898:	24844fdc 	addiu	a0,a0,20444
8000489c:	240500ee 	li	a1,238
800048a0:	0c0009f2 	jal	800027c8 <__panic>
800048a4:	24c65078 	addiu	a2,a2,20600
800048a8:	0c000b7d 	jal	80002df4 <intr_disable>
800048ac:	00000000 	nop
800048b0:	8eb20004 	lw	s2,4(s5)
800048b4:	00000000 	nop
800048b8:	00129042 	srl	s2,s2,0x1
800048bc:	0c000b77 	jal	80002ddc <intr_enable>
800048c0:	32520001 	andi	s2,s2,0x1
800048c4:	0800110f 	j	8000443c <buddy_check+0x140>
800048c8:	00000000 	nop
800048cc:	0c000b7d 	jal	80002df4 <intr_disable>
800048d0:	00000000 	nop
800048d4:	8e53fff4 	lw	s3,-12(s2)
800048d8:	00000000 	nop
800048dc:	00139842 	srl	s3,s3,0x1
800048e0:	0c000b77 	jal	80002ddc <intr_enable>
800048e4:	32730001 	andi	s3,s3,0x1
800048e8:	1660ffc6 	bnez	s3,80004804 <buddy_check+0x508>
800048ec:	3c048001 	lui	a0,0x8001
800048f0:	3c068001 	lui	a2,0x8001
800048f4:	24844fdc 	addiu	a0,a0,20444
800048f8:	24050133 	li	a1,307
800048fc:	0c0009f2 	jal	800027c8 <__panic>
80004900:	24c65078 	addiu	a2,a2,20600
80004904:	0c000b7d 	jal	80002df4 <intr_disable>
80004908:	00000000 	nop
8000490c:	8eb60004 	lw	s6,4(s5)
80004910:	00000000 	nop
80004914:	0016b042 	srl	s6,s6,0x1
80004918:	0c000b77 	jal	80002ddc <intr_enable>
8000491c:	32d60001 	andi	s6,s6,0x1
80004920:	080011c4 	j	80004710 <buddy_check+0x414>
80004924:	00000000 	nop
80004928:	0c000b7d 	jal	80002df4 <intr_disable>
8000492c:	00000000 	nop
80004930:	8eb60084 	lw	s6,132(s5)
80004934:	00000000 	nop
80004938:	0016b042 	srl	s6,s6,0x1
8000493c:	0c000b77 	jal	80002ddc <intr_enable>
80004940:	32d60001 	andi	s6,s6,0x1
80004944:	080011b3 	j	800046cc <buddy_check+0x3d0>
80004948:	00000000 	nop
8000494c:	0c000b7d 	jal	80002df4 <intr_disable>
80004950:	00000000 	nop
80004954:	8eb60004 	lw	s6,4(s5)
80004958:	00000000 	nop
8000495c:	0016b042 	srl	s6,s6,0x1
80004960:	0c000b77 	jal	80002ddc <intr_enable>
80004964:	32d60001 	andi	s6,s6,0x1
80004968:	08001195 	j	80004654 <buddy_check+0x358>
8000496c:	00000000 	nop
80004970:	0c000b7d 	jal	80002df4 <intr_disable>
80004974:	00000000 	nop
80004978:	8ebe0044 	lw	s8,68(s5)
8000497c:	00000000 	nop
80004980:	001ef042 	srl	s8,s8,0x1
80004984:	0c000b77 	jal	80002ddc <intr_enable>
80004988:	33de0001 	andi	s8,s8,0x1
8000498c:	08001181 	j	80004604 <buddy_check+0x308>
80004990:	00000000 	nop
80004994:	0c000b7d 	jal	80002df4 <intr_disable>
80004998:	00000000 	nop
8000499c:	8ebe0004 	lw	s8,4(s5)
800049a0:	00000000 	nop
800049a4:	001ef042 	srl	s8,s8,0x1
800049a8:	0c000b77 	jal	80002ddc <intr_enable>
800049ac:	33de0001 	andi	s8,s8,0x1
800049b0:	08001172 	j	800045c8 <buddy_check+0x2cc>
800049b4:	00000000 	nop
800049b8:	0c000b7d 	jal	80002df4 <intr_disable>
800049bc:	00000000 	nop
800049c0:	8eb60004 	lw	s6,4(s5)
800049c4:	00000000 	nop
800049c8:	0016b042 	srl	s6,s6,0x1
800049cc:	0c000b77 	jal	80002ddc <intr_enable>
800049d0:	32d60001 	andi	s6,s6,0x1
800049d4:	08001155 	j	80004554 <buddy_check+0x258>
800049d8:	00000000 	nop
800049dc:	0c000b7d 	jal	80002df4 <intr_disable>
800049e0:	00000000 	nop
800049e4:	8eb60004 	lw	s6,4(s5)
800049e8:	00000000 	nop
800049ec:	0016b042 	srl	s6,s6,0x1
800049f0:	0c000b77 	jal	80002ddc <intr_enable>
800049f4:	32d60001 	andi	s6,s6,0x1
800049f8:	08001142 	j	80004508 <buddy_check+0x20c>
800049fc:	00000000 	nop
80004a00:	3c048001 	lui	a0,0x8001
80004a04:	3c068001 	lui	a2,0x8001
80004a08:	24844fdc 	addiu	a0,a0,20444
80004a0c:	2405012d 	li	a1,301
80004a10:	0c0009f2 	jal	800027c8 <__panic>
80004a14:	24c650b0 	addiu	a2,a2,20656
80004a18:	3c068001 	lui	a2,0x8001
80004a1c:	24844fdc 	addiu	a0,a0,20444
80004a20:	24050137 	li	a1,311
80004a24:	0c0009f2 	jal	800027c8 <__panic>
80004a28:	24c6541c 	addiu	a2,a2,21532
80004a2c:	24844fdc 	addiu	a0,a0,20444
80004a30:	24050138 	li	a1,312
80004a34:	0c0009f2 	jal	800027c8 <__panic>
80004a38:	24c6543c 	addiu	a2,a2,21564
80004a3c:	3c068001 	lui	a2,0x8001
80004a40:	24844fdc 	addiu	a0,a0,20444
80004a44:	240500f7 	li	a1,247
80004a48:	0c0009f2 	jal	800027c8 <__panic>
80004a4c:	24c650fc 	addiu	a2,a2,20732
80004a50:	3c048001 	lui	a0,0x8001
80004a54:	3c068001 	lui	a2,0x8001
80004a58:	24844fdc 	addiu	a0,a0,20444
80004a5c:	240500f6 	li	a1,246
80004a60:	0c0009f2 	jal	800027c8 <__panic>
80004a64:	24c650dc 	addiu	a2,a2,20700
80004a68:	3c068001 	lui	a2,0x8001
80004a6c:	24844fdc 	addiu	a0,a0,20444
80004a70:	240500f2 	li	a1,242
80004a74:	0c0009f2 	jal	800027c8 <__panic>
80004a78:	24c650b0 	addiu	a2,a2,20656
80004a7c:	3c048001 	lui	a0,0x8001
80004a80:	3c068001 	lui	a2,0x8001
80004a84:	24844fdc 	addiu	a0,a0,20444
80004a88:	240500f8 	li	a1,248
80004a8c:	0c0009f2 	jal	800027c8 <__panic>
80004a90:	24c65128 	addiu	a2,a2,20776
80004a94:	3c068001 	lui	a2,0x8001
80004a98:	24844fdc 	addiu	a0,a0,20444
80004a9c:	24050105 	li	a1,261
80004aa0:	0c0009f2 	jal	800027c8 <__panic>
80004aa4:	24c6514c 	addiu	a2,a2,20812
80004aa8:	3c048001 	lui	a0,0x8001
80004aac:	3c068001 	lui	a2,0x8001
80004ab0:	24844fdc 	addiu	a0,a0,20444
80004ab4:	24050106 	li	a1,262
80004ab8:	0c0009f2 	jal	800027c8 <__panic>
80004abc:	24c65174 	addiu	a2,a2,20852
80004ac0:	3c068001 	lui	a2,0x8001
80004ac4:	24844fdc 	addiu	a0,a0,20444
80004ac8:	24050108 	li	a1,264
80004acc:	0c0009f2 	jal	800027c8 <__panic>
80004ad0:	24c6519c 	addiu	a2,a2,20892
80004ad4:	3c048001 	lui	a0,0x8001
80004ad8:	3c068001 	lui	a2,0x8001
80004adc:	24844fdc 	addiu	a0,a0,20444
80004ae0:	24050109 	li	a1,265
80004ae4:	0c0009f2 	jal	800027c8 <__panic>
80004ae8:	24c651c4 	addiu	a2,a2,20932
80004aec:	3c048001 	lui	a0,0x8001
80004af0:	3c068001 	lui	a2,0x8001
80004af4:	24844fdc 	addiu	a0,a0,20444
80004af8:	2405010a 	li	a1,266
80004afc:	0c0009f2 	jal	800027c8 <__panic>
80004b00:	24c651fc 	addiu	a2,a2,20988
80004b04:	3c048001 	lui	a0,0x8001
80004b08:	3c068001 	lui	a2,0x8001
80004b0c:	24844fdc 	addiu	a0,a0,20444
80004b10:	2405010c 	li	a1,268
80004b14:	0c0009f2 	jal	800027c8 <__panic>
80004b18:	24c6525c 	addiu	a2,a2,21084
80004b1c:	3c048001 	lui	a0,0x8001
80004b20:	3c068001 	lui	a2,0x8001
80004b24:	24844fdc 	addiu	a0,a0,20444
80004b28:	2405010d 	li	a1,269
80004b2c:	0c0009f2 	jal	800027c8 <__panic>
80004b30:	24c6514c 	addiu	a2,a2,20812
80004b34:	3c048001 	lui	a0,0x8001
80004b38:	3c068001 	lui	a2,0x8001
80004b3c:	24844fdc 	addiu	a0,a0,20444
80004b40:	24050110 	li	a1,272
80004b44:	0c0009f2 	jal	800027c8 <__panic>
80004b48:	24c6529c 	addiu	a2,a2,21148
80004b4c:	3c048001 	lui	a0,0x8001
80004b50:	3c068001 	lui	a2,0x8001
80004b54:	24844fdc 	addiu	a0,a0,20444
80004b58:	24050111 	li	a1,273
80004b5c:	0c0009f2 	jal	800027c8 <__panic>
80004b60:	24c652d4 	addiu	a2,a2,21204
80004b64:	3c048001 	lui	a0,0x8001
80004b68:	3c068001 	lui	a2,0x8001
80004b6c:	24844fdc 	addiu	a0,a0,20444
80004b70:	24050116 	li	a1,278
80004b74:	0c0009f2 	jal	800027c8 <__panic>
80004b78:	24c651c4 	addiu	a2,a2,20932
80004b7c:	3c048001 	lui	a0,0x8001
80004b80:	3c068001 	lui	a2,0x8001
80004b84:	24844fdc 	addiu	a0,a0,20444
80004b88:	24050118 	li	a1,280
80004b8c:	0c0009f2 	jal	800027c8 <__panic>
80004b90:	24c65314 	addiu	a2,a2,21268
80004b94:	3c048001 	lui	a0,0x8001
80004b98:	3c068001 	lui	a2,0x8001
80004b9c:	24844fdc 	addiu	a0,a0,20444
80004ba0:	24050119 	li	a1,281
80004ba4:	0c0009f2 	jal	800027c8 <__panic>
80004ba8:	24c65344 	addiu	a2,a2,21316
80004bac:	3c048001 	lui	a0,0x8001
80004bb0:	3c068001 	lui	a2,0x8001
80004bb4:	24844fdc 	addiu	a0,a0,20444
80004bb8:	2405011e 	li	a1,286
80004bbc:	0c0009f2 	jal	800027c8 <__panic>
80004bc0:	24c65374 	addiu	a2,a2,21364
80004bc4:	3c048001 	lui	a0,0x8001
80004bc8:	3c068001 	lui	a2,0x8001
80004bcc:	24844fdc 	addiu	a0,a0,20444
80004bd0:	24050120 	li	a1,288
80004bd4:	0c0009f2 	jal	800027c8 <__panic>
80004bd8:	24c651c4 	addiu	a2,a2,20932
80004bdc:	3c048001 	lui	a0,0x8001
80004be0:	3c068001 	lui	a2,0x8001
80004be4:	24844fdc 	addiu	a0,a0,20444
80004be8:	24050122 	li	a1,290
80004bec:	0c0009f2 	jal	800027c8 <__panic>
80004bf0:	24c653ac 	addiu	a2,a2,21420
80004bf4:	3c048001 	lui	a0,0x8001
80004bf8:	3c068001 	lui	a2,0x8001
80004bfc:	24844fdc 	addiu	a0,a0,20444
80004c00:	24050123 	li	a1,291
80004c04:	0c0009f2 	jal	800027c8 <__panic>
80004c08:	24c653dc 	addiu	a2,a2,21468

80004c0c <buddy_free_pages_sub>:
80004c0c:	27bdffb0 	addiu	sp,sp,-80
80004c10:	afb00028 	sw	s0,40(sp)
80004c14:	8c90000c 	lw	s0,12(a0)
80004c18:	afb30034 	sw	s3,52(sp)
80004c1c:	3c13800d 	lui	s3,0x800d
80004c20:	afb20030 	sw	s2,48(sp)
80004c24:	26737a08 	addiu	s3,s3,31240
80004c28:	00109080 	sll	s2,s0,0x2
80004c2c:	02721021 	addu	v0,s3,s2
80004c30:	8c420000 	lw	v0,0(v0)
80004c34:	afb70044 	sw	s7,68(sp)
80004c38:	24170001 	li	s7,1
80004c3c:	afb5003c 	sw	s5,60(sp)
80004c40:	00b7b804 	sllv	s7,s7,a1
80004c44:	0082a823 	subu	s5,a0,v0
80004c48:	0015a943 	sra	s5,s5,0x5
80004c4c:	26e3ffff 	addiu	v1,s7,-1
80004c50:	00751824 	and	v1,v1,s5
80004c54:	afb40038 	sw	s4,56(sp)
80004c58:	afb1002c 	sw	s1,44(sp)
80004c5c:	afbf004c 	sw	ra,76(sp)
80004c60:	afbe0048 	sw	s8,72(sp)
80004c64:	afb60040 	sw	s6,64(sp)
80004c68:	00808821 	move	s1,a0
80004c6c:	14600108 	bnez	v1,80005090 <buddy_free_pages_sub+0x484>
80004c70:	00a0a021 	move	s4,a1
80004c74:	24160020 	li	s6,32
80004c78:	00b6b004 	sllv	s6,s6,a1
80004c7c:	0096b021 	addu	s6,a0,s6
80004c80:	10960021 	beq	a0,s6,80004d08 <buddy_free_pages_sub+0xfc>
80004c84:	2e83000a 	sltiu	v1,s4,10
80004c88:	00808021 	move	s0,a0
80004c8c:	40026000 	mfc0	v0,c0_status
80004c90:	00000000 	nop
80004c94:	30420001 	andi	v0,v0,0x1
80004c98:	14400051 	bnez	v0,80004de0 <buddy_free_pages_sub+0x1d4>
80004c9c:	00000000 	nop
80004ca0:	8e120004 	lw	s2,4(s0)
80004ca4:	00000000 	nop
80004ca8:	32520001 	andi	s2,s2,0x1
80004cac:	164000f3 	bnez	s2,8000507c <buddy_free_pages_sub+0x470>
80004cb0:	3c048001 	lui	a0,0x8001
80004cb4:	40026000 	mfc0	v0,c0_status
80004cb8:	00000000 	nop
80004cbc:	30420001 	andi	v0,v0,0x1
80004cc0:	1440004e 	bnez	v0,80004dfc <buddy_free_pages_sub+0x1f0>
80004cc4:	00000000 	nop
80004cc8:	8e120004 	lw	s2,4(s0)
80004ccc:	00000000 	nop
80004cd0:	00129042 	srl	s2,s2,0x1
80004cd4:	32520001 	andi	s2,s2,0x1
80004cd8:	164000e8 	bnez	s2,8000507c <buddy_free_pages_sub+0x470>
80004cdc:	3c048001 	lui	a0,0x8001
80004ce0:	ae000004 	sw	zero,4(s0)
80004ce4:	ae000000 	sw	zero,0(s0)
80004ce8:	26100020 	addiu	s0,s0,32
80004cec:	1616ffe7 	bne	s0,s6,80004c8c <buddy_free_pages_sub+0x80>
80004cf0:	2e83000a 	sltiu	v1,s4,10
80004cf4:	8e30000c 	lw	s0,12(s1)
80004cf8:	00000000 	nop
80004cfc:	00109080 	sll	s2,s0,0x2
80004d00:	02721021 	addu	v0,s3,s2
80004d04:	8c420000 	lw	v0,0(v0)
80004d08:	1060000c 	beqz	v1,80004d3c <buddy_free_pages_sub+0x130>
80004d0c:	02b7b026 	xor	s6,s5,s7
80004d10:	3c1e800e 	lui	s8,0x800e
80004d14:	00168940 	sll	s1,s6,0x5
80004d18:	8fc3a9b4 	lw	v1,-22092(s8)
80004d1c:	00518821 	addu	s1,v0,s1
80004d20:	3c17800d 	lui	s7,0x800d
80004d24:	02231823 	subu	v1,s1,v1
80004d28:	8ee47cfc 	lw	a0,31996(s7)
80004d2c:	00031943 	sra	v1,v1,0x5
80004d30:	0064182b 	sltu	v1,v1,a0
80004d34:	1460003a 	bnez	v1,80004e20 <buddy_free_pages_sub+0x214>
80004d38:	00000000 	nop
80004d3c:	3c03800d 	lui	v1,0x800d
80004d40:	24637a30 	addiu	v1,v1,31280
80004d44:	afa30010 	sw	v1,16(sp)
80004d48:	0015a940 	sll	s5,s5,0x5
80004d4c:	0055a821 	addu	s5,v0,s5
80004d50:	aeb40008 	sw	s4,8(s5)
80004d54:	40026000 	mfc0	v0,c0_status
80004d58:	00000000 	nop
80004d5c:	30420001 	andi	v0,v0,0x1
80004d60:	14400052 	bnez	v0,80004eac <buddy_free_pages_sub+0x2a0>
80004d64:	00000000 	nop
80004d68:	8ea20004 	lw	v0,4(s5)
80004d6c:	00000000 	nop
80004d70:	34420002 	ori	v0,v0,0x2
80004d74:	aea20004 	sw	v0,4(s5)
80004d78:	00141080 	sll	v0,s4,0x2
80004d7c:	0014a100 	sll	s4,s4,0x4
80004d80:	0282a023 	subu	s4,s4,v0
80004d84:	8fa20010 	lw	v0,16(sp)
80004d88:	8fbf004c 	lw	ra,76(sp)
80004d8c:	0054a021 	addu	s4,v0,s4
80004d90:	8e840008 	lw	a0,8(s4)
80004d94:	8e820004 	lw	v0,4(s4)
80004d98:	26a30010 	addiu	v1,s5,16
80004d9c:	24840001 	addiu	a0,a0,1
80004da0:	ae840008 	sw	a0,8(s4)
80004da4:	ae830004 	sw	v1,4(s4)
80004da8:	ac430000 	sw	v1,0(v0)
80004dac:	aea20014 	sw	v0,20(s5)
80004db0:	aeb40010 	sw	s4,16(s5)
80004db4:	8fbe0048 	lw	s8,72(sp)
80004db8:	8fb70044 	lw	s7,68(sp)
80004dbc:	8fb60040 	lw	s6,64(sp)
80004dc0:	8fb5003c 	lw	s5,60(sp)
80004dc4:	8fb40038 	lw	s4,56(sp)
80004dc8:	8fb30034 	lw	s3,52(sp)
80004dcc:	8fb20030 	lw	s2,48(sp)
80004dd0:	8fb1002c 	lw	s1,44(sp)
80004dd4:	8fb00028 	lw	s0,40(sp)
80004dd8:	03e00008 	jr	ra
80004ddc:	27bd0050 	addiu	sp,sp,80
80004de0:	0c000b7d 	jal	80002df4 <intr_disable>
80004de4:	00000000 	nop
80004de8:	8e120004 	lw	s2,4(s0)
80004dec:	0c000b77 	jal	80002ddc <intr_enable>
80004df0:	32520001 	andi	s2,s2,0x1
80004df4:	0800132b 	j	80004cac <buddy_free_pages_sub+0xa0>
80004df8:	00000000 	nop
80004dfc:	0c000b7d 	jal	80002df4 <intr_disable>
80004e00:	00000000 	nop
80004e04:	8e120004 	lw	s2,4(s0)
80004e08:	00000000 	nop
80004e0c:	00129042 	srl	s2,s2,0x1
80004e10:	0c000b77 	jal	80002ddc <intr_enable>
80004e14:	32520001 	andi	s2,s2,0x1
80004e18:	08001336 	j	80004cd8 <buddy_free_pages_sub+0xcc>
80004e1c:	00000000 	nop
80004e20:	8e23000c 	lw	v1,12(s1)
80004e24:	00000000 	nop
80004e28:	1603ffc5 	bne	s0,v1,80004d40 <buddy_free_pages_sub+0x134>
80004e2c:	3c03800d 	lui	v1,0x800d
80004e30:	00141080 	sll	v0,s4,0x2
80004e34:	00142100 	sll	a0,s4,0x4
80004e38:	00822023 	subu	a0,a0,v0
80004e3c:	3c02800d 	lui	v0,0x800d
80004e40:	24427a30 	addiu	v0,v0,31280
80004e44:	24840008 	addiu	a0,a0,8
80004e48:	afa20010 	sw	v0,16(sp)
80004e4c:	00442021 	addu	a0,v0,a0
80004e50:	2403000a 	li	v1,10
80004e54:	24060001 	li	a2,1
80004e58:	02722821 	addu	a1,s3,s2
80004e5c:	40026000 	mfc0	v0,c0_status
80004e60:	00000000 	nop
80004e64:	30420001 	andi	v0,v0,0x1
80004e68:	1440001a 	bnez	v0,80004ed4 <buddy_free_pages_sub+0x2c8>
80004e6c:	00000000 	nop
80004e70:	8e220004 	lw	v0,4(s1)
80004e74:	00000000 	nop
80004e78:	30420001 	andi	v0,v0,0x1
80004e7c:	10400026 	beqz	v0,80004f18 <buddy_free_pages_sub+0x30c>
80004e80:	00000000 	nop
80004e84:	02729021 	addu	s2,s3,s2
80004e88:	8e420000 	lw	v0,0(s2)
80004e8c:	0015a940 	sll	s5,s5,0x5
80004e90:	0055a821 	addu	s5,v0,s5
80004e94:	aeb40008 	sw	s4,8(s5)
80004e98:	40026000 	mfc0	v0,c0_status
80004e9c:	00000000 	nop
80004ea0:	30420001 	andi	v0,v0,0x1
80004ea4:	1040ffb0 	beqz	v0,80004d68 <buddy_free_pages_sub+0x15c>
80004ea8:	00000000 	nop
80004eac:	0c000b7d 	jal	80002df4 <intr_disable>
80004eb0:	00000000 	nop
80004eb4:	8ea20004 	lw	v0,4(s5)
80004eb8:	00000000 	nop
80004ebc:	34420002 	ori	v0,v0,0x2
80004ec0:	aea20004 	sw	v0,4(s5)
80004ec4:	0c000b77 	jal	80002ddc <intr_enable>
80004ec8:	00000000 	nop
80004ecc:	0800135f 	j	80004d7c <buddy_free_pages_sub+0x170>
80004ed0:	00141080 	sll	v0,s4,0x2
80004ed4:	afa3001c 	sw	v1,28(sp)
80004ed8:	afa40018 	sw	a0,24(sp)
80004edc:	afa50024 	sw	a1,36(sp)
80004ee0:	0c000b7d 	jal	80002df4 <intr_disable>
80004ee4:	afa60020 	sw	a2,32(sp)
80004ee8:	8e220004 	lw	v0,4(s1)
80004eec:	00000000 	nop
80004ef0:	30420001 	andi	v0,v0,0x1
80004ef4:	0c000b77 	jal	80002ddc <intr_enable>
80004ef8:	afa20014 	sw	v0,20(sp)
80004efc:	8fa20014 	lw	v0,20(sp)
80004f00:	8fa3001c 	lw	v1,28(sp)
80004f04:	8fa40018 	lw	a0,24(sp)
80004f08:	8fa50024 	lw	a1,36(sp)
80004f0c:	8fa60020 	lw	a2,32(sp)
80004f10:	1440ffdc 	bnez	v0,80004e84 <buddy_free_pages_sub+0x278>
80004f14:	00000000 	nop
80004f18:	40026000 	mfc0	v0,c0_status
80004f1c:	00000000 	nop
80004f20:	30420001 	andi	v0,v0,0x1
80004f24:	14400032 	bnez	v0,80004ff0 <buddy_free_pages_sub+0x3e4>
80004f28:	00000000 	nop
80004f2c:	8e220004 	lw	v0,4(s1)
80004f30:	00000000 	nop
80004f34:	00021042 	srl	v0,v0,0x1
80004f38:	30420001 	andi	v0,v0,0x1
80004f3c:	1040ffd1 	beqz	v0,80004e84 <buddy_free_pages_sub+0x278>
80004f40:	00000000 	nop
80004f44:	8e220008 	lw	v0,8(s1)
80004f48:	00000000 	nop
80004f4c:	1682ffcd 	bne	s4,v0,80004e84 <buddy_free_pages_sub+0x278>
80004f50:	00000000 	nop
80004f54:	8c820000 	lw	v0,0(a0)
80004f58:	00000000 	nop
80004f5c:	2442ffff 	addiu	v0,v0,-1
80004f60:	ac820000 	sw	v0,0(a0)
80004f64:	8e270010 	lw	a3,16(s1)
80004f68:	8e220014 	lw	v0,20(s1)
80004f6c:	00000000 	nop
80004f70:	ace20004 	sw	v0,4(a3)
80004f74:	ac470000 	sw	a3,0(v0)
80004f78:	40026000 	mfc0	v0,c0_status
80004f7c:	00000000 	nop
80004f80:	30420001 	andi	v0,v0,0x1
80004f84:	1440002c 	bnez	v0,80005038 <buddy_free_pages_sub+0x42c>
80004f88:	00000000 	nop
80004f8c:	8e220004 	lw	v0,4(s1)
80004f90:	2407fffd 	li	a3,-3
80004f94:	00471024 	and	v0,v0,a3
80004f98:	ae220004 	sw	v0,4(s1)
80004f9c:	26940001 	addiu	s4,s4,1
80004fa0:	1283ffb8 	beq	s4,v1,80004e84 <buddy_free_pages_sub+0x278>
80004fa4:	02b6a824 	and	s5,s5,s6
80004fa8:	0286b004 	sllv	s6,a2,s4
80004fac:	02d5b026 	xor	s6,s6,s5
80004fb0:	8ca20000 	lw	v0,0(a1)
80004fb4:	00168940 	sll	s1,s6,0x5
80004fb8:	8fc7a9b4 	lw	a3,-22092(s8)
80004fbc:	00518821 	addu	s1,v0,s1
80004fc0:	02273823 	subu	a3,s1,a3
80004fc4:	8ee87cfc 	lw	t0,31996(s7)
80004fc8:	00073943 	sra	a3,a3,0x5
80004fcc:	00e8382b 	sltu	a3,a3,t0
80004fd0:	10e0ff5d 	beqz	a3,80004d48 <buddy_free_pages_sub+0x13c>
80004fd4:	00000000 	nop
80004fd8:	8e27000c 	lw	a3,12(s1)
80004fdc:	00000000 	nop
80004fe0:	1607ff59 	bne	s0,a3,80004d48 <buddy_free_pages_sub+0x13c>
80004fe4:	2484000c 	addiu	a0,a0,12
80004fe8:	08001397 	j	80004e5c <buddy_free_pages_sub+0x250>
80004fec:	00000000 	nop
80004ff0:	afa3001c 	sw	v1,28(sp)
80004ff4:	afa40018 	sw	a0,24(sp)
80004ff8:	afa50024 	sw	a1,36(sp)
80004ffc:	0c000b7d 	jal	80002df4 <intr_disable>
80005000:	afa60020 	sw	a2,32(sp)
80005004:	8e220004 	lw	v0,4(s1)
80005008:	00000000 	nop
8000500c:	00021042 	srl	v0,v0,0x1
80005010:	30420001 	andi	v0,v0,0x1
80005014:	0c000b77 	jal	80002ddc <intr_enable>
80005018:	afa20014 	sw	v0,20(sp)
8000501c:	8fa20014 	lw	v0,20(sp)
80005020:	8fa3001c 	lw	v1,28(sp)
80005024:	8fa40018 	lw	a0,24(sp)
80005028:	8fa50024 	lw	a1,36(sp)
8000502c:	8fa60020 	lw	a2,32(sp)
80005030:	080013cf 	j	80004f3c <buddy_free_pages_sub+0x330>
80005034:	00000000 	nop
80005038:	afa3001c 	sw	v1,28(sp)
8000503c:	afa40018 	sw	a0,24(sp)
80005040:	afa50024 	sw	a1,36(sp)
80005044:	0c000b7d 	jal	80002df4 <intr_disable>
80005048:	afa60020 	sw	a2,32(sp)
8000504c:	8e220004 	lw	v0,4(s1)
80005050:	2407fffd 	li	a3,-3
80005054:	00471024 	and	v0,v0,a3
80005058:	ae220004 	sw	v0,4(s1)
8000505c:	0c000b77 	jal	80002ddc <intr_enable>
80005060:	26940001 	addiu	s4,s4,1
80005064:	8fa3001c 	lw	v1,28(sp)
80005068:	8fa40018 	lw	a0,24(sp)
8000506c:	8fa50024 	lw	a1,36(sp)
80005070:	8fa60020 	lw	a2,32(sp)
80005074:	080013e8 	j	80004fa0 <buddy_free_pages_sub+0x394>
80005078:	00000000 	nop
8000507c:	3c068001 	lui	a2,0x8001
80005080:	24844fdc 	addiu	a0,a0,20444
80005084:	240500a4 	li	a1,164
80005088:	0c0009f2 	jal	800027c8 <__panic>
8000508c:	24c65494 	addiu	a2,a2,21652
80005090:	3c048001 	lui	a0,0x8001
80005094:	3c068001 	lui	a2,0x8001
80005098:	24844fdc 	addiu	a0,a0,20444
8000509c:	240500a1 	li	a1,161
800050a0:	0c0009f2 	jal	800027c8 <__panic>
800050a4:	24c6545c 	addiu	a2,a2,21596

800050a8 <buddy_free_pages>:
800050a8:	27bdffd0 	addiu	sp,sp,-48
800050ac:	afb30020 	sw	s3,32(sp)
800050b0:	afb2001c 	sw	s2,28(sp)
800050b4:	afbf002c 	sw	ra,44(sp)
800050b8:	afb50028 	sw	s5,40(sp)
800050bc:	afb40024 	sw	s4,36(sp)
800050c0:	afb10018 	sw	s1,24(sp)
800050c4:	afb00014 	sw	s0,20(sp)
800050c8:	00a09021 	move	s2,a1
800050cc:	10a0004b 	beqz	a1,800051fc <buddy_free_pages+0x154>
800050d0:	00809821 	move	s3,a0
800050d4:	24020001 	li	v0,1
800050d8:	10a2003e 	beq	a1,v0,800051d4 <buddy_free_pages+0x12c>
800050dc:	3c14800d 	lui	s4,0x800d
800050e0:	24100001 	li	s0,1
800050e4:	00008821 	move	s1,zero
800050e8:	26947a08 	addiu	s4,s4,31240
800050ec:	08001443 	j	8000510c <buddy_free_pages+0x64>
800050f0:	2415000b 	li	s5,11
800050f4:	00108040 	sll	s0,s0,0x1
800050f8:	0250102b 	sltu	v0,s2,s0
800050fc:	14400017 	bnez	v0,8000515c <buddy_free_pages+0xb4>
80005100:	26310001 	addiu	s1,s1,1
80005104:	1235002e 	beq	s1,s5,800051c0 <buddy_free_pages+0x118>
80005108:	3c048001 	lui	a0,0x8001
8000510c:	8e62000c 	lw	v0,12(s3)
80005110:	00000000 	nop
80005114:	00021080 	sll	v0,v0,0x2
80005118:	02821021 	addu	v0,s4,v0
8000511c:	8c420000 	lw	v0,0(v0)
80005120:	00000000 	nop
80005124:	02621023 	subu	v0,s3,v0
80005128:	00021143 	sra	v0,v0,0x5
8000512c:	00501024 	and	v0,v0,s0
80005130:	1040fff0 	beqz	v0,800050f4 <buddy_free_pages+0x4c>
80005134:	02602021 	move	a0,s3
80005138:	02202821 	move	a1,s1
8000513c:	0c001303 	jal	80004c0c <buddy_free_pages_sub>
80005140:	02509023 	subu	s2,s2,s0
80005144:	00101140 	sll	v0,s0,0x5
80005148:	00108040 	sll	s0,s0,0x1
8000514c:	02629821 	addu	s3,s3,v0
80005150:	0250102b 	sltu	v0,s2,s0
80005154:	1040ffeb 	beqz	v0,80005104 <buddy_free_pages+0x5c>
80005158:	26310001 	addiu	s1,s1,1
8000515c:	1240000f 	beqz	s2,8000519c <buddy_free_pages+0xf4>
80005160:	00000000 	nop
80005164:	0250102b 	sltu	v0,s2,s0
80005168:	10400006 	beqz	v0,80005184 <buddy_free_pages+0xdc>
8000516c:	02602021 	move	a0,s3
80005170:	00108042 	srl	s0,s0,0x1
80005174:	0250102b 	sltu	v0,s2,s0
80005178:	1440fffd 	bnez	v0,80005170 <buddy_free_pages+0xc8>
8000517c:	2631ffff 	addiu	s1,s1,-1
80005180:	02602021 	move	a0,s3
80005184:	0c001303 	jal	80004c0c <buddy_free_pages_sub>
80005188:	02202821 	move	a1,s1
8000518c:	02509023 	subu	s2,s2,s0
80005190:	00101140 	sll	v0,s0,0x5
80005194:	1640fff3 	bnez	s2,80005164 <buddy_free_pages+0xbc>
80005198:	02629821 	addu	s3,s3,v0
8000519c:	8fbf002c 	lw	ra,44(sp)
800051a0:	8fb50028 	lw	s5,40(sp)
800051a4:	8fb40024 	lw	s4,36(sp)
800051a8:	8fb30020 	lw	s3,32(sp)
800051ac:	8fb2001c 	lw	s2,28(sp)
800051b0:	8fb10018 	lw	s1,24(sp)
800051b4:	8fb00014 	lw	s0,20(sp)
800051b8:	03e00008 	jr	ra
800051bc:	27bd0030 	addiu	sp,sp,48
800051c0:	3c068001 	lui	a2,0x8001
800051c4:	24844fdc 	addiu	a0,a0,20444
800051c8:	240500c6 	li	a1,198
800051cc:	0c0009f2 	jal	800027c8 <__panic>
800051d0:	24c654cc 	addiu	a2,a2,21708
800051d4:	8fbf002c 	lw	ra,44(sp)
800051d8:	8fb50028 	lw	s5,40(sp)
800051dc:	8fb40024 	lw	s4,36(sp)
800051e0:	8fb30020 	lw	s3,32(sp)
800051e4:	8fb2001c 	lw	s2,28(sp)
800051e8:	8fb10018 	lw	s1,24(sp)
800051ec:	8fb00014 	lw	s0,20(sp)
800051f0:	00002821 	move	a1,zero
800051f4:	08001303 	j	80004c0c <buddy_free_pages_sub>
800051f8:	27bd0030 	addiu	sp,sp,48
800051fc:	3c048001 	lui	a0,0x8001
80005200:	3c068001 	lui	a2,0x8001
80005204:	24844fdc 	addiu	a0,a0,20444
80005208:	240500bf 	li	a1,191
8000520c:	0c0009f2 	jal	800027c8 <__panic>
80005210:	24c65048 	addiu	a2,a2,20552

80005214 <kmem_cache_alloc>:
80005214:	27bdffc0 	addiu	sp,sp,-64
80005218:	afbe0038 	sw	s8,56(sp)
8000521c:	afb70034 	sw	s7,52(sp)
80005220:	afb60030 	sw	s6,48(sp)
80005224:	afb5002c 	sw	s5,44(sp)
80005228:	afb40028 	sw	s4,40(sp)
8000522c:	afb20020 	sw	s2,32(sp)
80005230:	afbf003c 	sw	ra,60(sp)
80005234:	afb30024 	sw	s3,36(sp)
80005238:	afb1001c 	sw	s1,28(sp)
8000523c:	afb00018 	sw	s0,24(sp)
80005240:	00809021 	move	s2,a0
80005244:	24940008 	addiu	s4,a0,8
80005248:	3c17800e 	lui	s7,0x800e
8000524c:	3c168000 	lui	s6,0x8000
80005250:	3c15800d 	lui	s5,0x800d
80005254:	241effff 	li	s8,-1
80005258:	40026000 	mfc0	v0,c0_status
8000525c:	00000000 	nop
80005260:	30420001 	andi	v0,v0,0x1
80005264:	14400065 	bnez	v0,800053fc <kmem_cache_alloc+0x1e8>
80005268:	00000000 	nop
8000526c:	8e43000c 	lw	v1,12(s2)
80005270:	00000000 	nop
80005274:	16830067 	bne	s4,v1,80005414 <kmem_cache_alloc+0x200>
80005278:	00002021 	move	a0,zero
8000527c:	10800003 	beqz	a0,8000528c <kmem_cache_alloc+0x78>
80005280:	00000000 	nop
80005284:	0c000b77 	jal	80002ddc <intr_enable>
80005288:	00000000 	nop
8000528c:	8e440024 	lw	a0,36(s2)
80005290:	24130001 	li	s3,1
80005294:	0c00179c 	jal	80005e70 <alloc_pages>
80005298:	00932004 	sllv	a0,s3,a0
8000529c:	1040007f 	beqz	v0,8000549c <kmem_cache_alloc+0x288>
800052a0:	00408821 	move	s1,v0
800052a4:	8ef0a9b4 	lw	s0,-22092(s7)
800052a8:	8ea27cfc 	lw	v0,31996(s5)
800052ac:	02308023 	subu	s0,s1,s0
800052b0:	00108143 	sra	s0,s0,0x5
800052b4:	00108300 	sll	s0,s0,0xc
800052b8:	00101b02 	srl	v1,s0,0xc
800052bc:	0062102b 	sltu	v0,v1,v0
800052c0:	10400095 	beqz	v0,80005518 <kmem_cache_alloc+0x304>
800052c4:	02168021 	addu	s0,s0,s6
800052c8:	8e420020 	lw	v0,32(s2)
800052cc:	00000000 	nop
800052d0:	10400006 	beqz	v0,800052ec <kmem_cache_alloc+0xd8>
800052d4:	02001021 	move	v0,s0
800052d8:	8e440028 	lw	a0,40(s2)
800052dc:	0c001485 	jal	80005214 <kmem_cache_alloc>
800052e0:	00000000 	nop
800052e4:	1040007a 	beqz	v0,800054d0 <kmem_cache_alloc+0x2bc>
800052e8:	02202021 	move	a0,s1
800052ec:	8e43001c 	lw	v1,28(s2)
800052f0:	8e440024 	lw	a0,36(s2)
800052f4:	02038021 	addu	s0,s0,v1
800052f8:	ac500008 	sw	s0,8(v0)
800052fc:	24100001 	li	s0,1
80005300:	ac40000c 	sw	zero,12(v0)
80005304:	ac430010 	sw	v1,16(v0)
80005308:	080014ca 	j	80005328 <kmem_cache_alloc+0x114>
8000530c:	00908004 	sllv	s0,s0,a0
80005310:	8e230004 	lw	v1,4(s1)
80005314:	2610ffff 	addiu	s0,s0,-1
80005318:	34630004 	ori	v1,v1,0x4
8000531c:	ae230004 	sw	v1,4(s1)
80005320:	12000013 	beqz	s0,80005370 <kmem_cache_alloc+0x15c>
80005324:	26310020 	addiu	s1,s1,32
80005328:	ae320014 	sw	s2,20(s1)
8000532c:	ae220010 	sw	v0,16(s1)
80005330:	40036000 	mfc0	v1,c0_status
80005334:	00000000 	nop
80005338:	30630001 	andi	v1,v1,0x1
8000533c:	1060fff4 	beqz	v1,80005310 <kmem_cache_alloc+0xfc>
80005340:	00000000 	nop
80005344:	0c000b7d 	jal	80002df4 <intr_disable>
80005348:	afa20010 	sw	v0,16(sp)
8000534c:	8e230004 	lw	v1,4(s1)
80005350:	2610ffff 	addiu	s0,s0,-1
80005354:	34630004 	ori	v1,v1,0x4
80005358:	ae230004 	sw	v1,4(s1)
8000535c:	0c000b77 	jal	80002ddc <intr_enable>
80005360:	26310020 	addiu	s1,s1,32
80005364:	8fa20010 	lw	v0,16(sp)
80005368:	1600ffef 	bnez	s0,80005328 <kmem_cache_alloc+0x114>
8000536c:	00000000 	nop
80005370:	8e440018 	lw	a0,24(s2)
80005374:	00000000 	nop
80005378:	1080000c 	beqz	a0,800053ac <kmem_cache_alloc+0x198>
8000537c:	00001821 	move	v1,zero
80005380:	00002821 	move	a1,zero
80005384:	24a50006 	addiu	a1,a1,6
80005388:	00052880 	sll	a1,a1,0x2
8000538c:	24630001 	addiu	v1,v1,1
80005390:	00452821 	addu	a1,v0,a1
80005394:	aca30000 	sw	v1,0(a1)
80005398:	8e440018 	lw	a0,24(s2)
8000539c:	00000000 	nop
800053a0:	0064302b 	sltu	a2,v1,a0
800053a4:	14c0fff7 	bnez	a2,80005384 <kmem_cache_alloc+0x170>
800053a8:	00602821 	move	a1,v1
800053ac:	24840005 	addiu	a0,a0,5
800053b0:	00042080 	sll	a0,a0,0x2
800053b4:	00442021 	addu	a0,v0,a0
800053b8:	ac9e0000 	sw	s8,0(a0)
800053bc:	ac400014 	sw	zero,20(v0)
800053c0:	40036000 	mfc0	v1,c0_status
800053c4:	00000000 	nop
800053c8:	30630001 	andi	v1,v1,0x1
800053cc:	14600028 	bnez	v1,80005470 <kmem_cache_alloc+0x25c>
800053d0:	00000000 	nop
800053d4:	8e43000c 	lw	v1,12(s2)
800053d8:	ae42000c 	sw	v0,12(s2)
800053dc:	ac620000 	sw	v0,0(v1)
800053e0:	ac430004 	sw	v1,4(v0)
800053e4:	ac540000 	sw	s4,0(v0)
800053e8:	40026000 	mfc0	v0,c0_status
800053ec:	00000000 	nop
800053f0:	30420001 	andi	v0,v0,0x1
800053f4:	1040ff9d 	beqz	v0,8000526c <kmem_cache_alloc+0x58>
800053f8:	00000000 	nop
800053fc:	0c000b7d 	jal	80002df4 <intr_disable>
80005400:	00000000 	nop
80005404:	8e43000c 	lw	v1,12(s2)
80005408:	00000000 	nop
8000540c:	1283ff9b 	beq	s4,v1,8000527c <kmem_cache_alloc+0x68>
80005410:	24040001 	li	a0,1
80005414:	8e420010 	lw	v0,16(s2)
80005418:	8c650014 	lw	a1,20(v1)
8000541c:	8c66000c 	lw	a2,12(v1)
80005420:	00a20018 	mult	a1,v0
80005424:	24a50006 	addiu	a1,a1,6
80005428:	24c60001 	addiu	a2,a2,1
8000542c:	00052880 	sll	a1,a1,0x2
80005430:	ac66000c 	sw	a2,12(v1)
80005434:	00652821 	addu	a1,v1,a1
80005438:	8c620008 	lw	v0,8(v1)
8000543c:	8ca50000 	lw	a1,0(a1)
80005440:	00003012 	mflo	a2
80005444:	00461021 	addu	v0,v0,a2
80005448:	2406ffff 	li	a2,-1
8000544c:	10a60025 	beq	a1,a2,800054e4 <kmem_cache_alloc+0x2d0>
80005450:	ac650014 	sw	a1,20(v1)
80005454:	10800012 	beqz	a0,800054a0 <kmem_cache_alloc+0x28c>
80005458:	00000000 	nop
8000545c:	0c000b77 	jal	80002ddc <intr_enable>
80005460:	afa20010 	sw	v0,16(sp)
80005464:	8fa20010 	lw	v0,16(sp)
80005468:	08001528 	j	800054a0 <kmem_cache_alloc+0x28c>
8000546c:	00000000 	nop
80005470:	0c000b7d 	jal	80002df4 <intr_disable>
80005474:	afa20010 	sw	v0,16(sp)
80005478:	8fa20010 	lw	v0,16(sp)
8000547c:	8e43000c 	lw	v1,12(s2)
80005480:	ae42000c 	sw	v0,12(s2)
80005484:	ac620000 	sw	v0,0(v1)
80005488:	ac430004 	sw	v1,4(v0)
8000548c:	0c000b77 	jal	80002ddc <intr_enable>
80005490:	ac540000 	sw	s4,0(v0)
80005494:	08001496 	j	80005258 <kmem_cache_alloc+0x44>
80005498:	00000000 	nop
8000549c:	00001021 	move	v0,zero
800054a0:	8fbf003c 	lw	ra,60(sp)
800054a4:	8fbe0038 	lw	s8,56(sp)
800054a8:	8fb70034 	lw	s7,52(sp)
800054ac:	8fb60030 	lw	s6,48(sp)
800054b0:	8fb5002c 	lw	s5,44(sp)
800054b4:	8fb40028 	lw	s4,40(sp)
800054b8:	8fb30024 	lw	s3,36(sp)
800054bc:	8fb20020 	lw	s2,32(sp)
800054c0:	8fb1001c 	lw	s1,28(sp)
800054c4:	8fb00018 	lw	s0,24(sp)
800054c8:	03e00008 	jr	ra
800054cc:	27bd0040 	addiu	sp,sp,64
800054d0:	8e450024 	lw	a1,36(s2)
800054d4:	0c0017bc 	jal	80005ef0 <free_pages>
800054d8:	00b32804 	sllv	a1,s3,a1
800054dc:	08001528 	j	800054a0 <kmem_cache_alloc+0x28c>
800054e0:	00001021 	move	v0,zero
800054e4:	8c670000 	lw	a3,0(v1)
800054e8:	8c660004 	lw	a2,4(v1)
800054ec:	00000000 	nop
800054f0:	ace60004 	sw	a2,4(a3)
800054f4:	8e450004 	lw	a1,4(s2)
800054f8:	acc70000 	sw	a3,0(a2)
800054fc:	ae430004 	sw	v1,4(s2)
80005500:	aca30000 	sw	v1,0(a1)
80005504:	ac650004 	sw	a1,4(v1)
80005508:	1080ffe5 	beqz	a0,800054a0 <kmem_cache_alloc+0x28c>
8000550c:	ac720000 	sw	s2,0(v1)
80005510:	08001517 	j	8000545c <kmem_cache_alloc+0x248>
80005514:	00000000 	nop
80005518:	3c048001 	lui	a0,0x8001
8000551c:	3c068001 	lui	a2,0x8001
80005520:	24845508 	addiu	a0,a0,21768
80005524:	24050069 	li	a1,105
80005528:	24c65518 	addiu	a2,a2,21784
8000552c:	0c0009f2 	jal	800027c8 <__panic>
80005530:	02003821 	move	a3,s0

80005534 <kmem_cache_free>:
80005534:	27bdffc8 	addiu	sp,sp,-56
80005538:	afb2001c 	sw	s2,28(sp)
8000553c:	afb00014 	sw	s0,20(sp)
80005540:	afbf0034 	sw	ra,52(sp)
80005544:	afb70030 	sw	s7,48(sp)
80005548:	afb6002c 	sw	s6,44(sp)
8000554c:	afb50028 	sw	s5,40(sp)
80005550:	afb40024 	sw	s4,36(sp)
80005554:	afb30020 	sw	s3,32(sp)
80005558:	afb10018 	sw	s1,24(sp)
8000555c:	00a08021 	move	s0,a1
80005560:	04a100bf 	bgez	a1,80005860 <kmem_cache_free+0x32c>
80005564:	00809021 	move	s2,a0
80005568:	3c15800d 	lui	s5,0x800d
8000556c:	3c028000 	lui	v0,0x8000
80005570:	00a21021 	addu	v0,a1,v0
80005574:	8ea37cfc 	lw	v1,31996(s5)
80005578:	00021302 	srl	v0,v0,0xc
8000557c:	0043182b 	sltu	v1,v0,v1
80005580:	106000ab 	beqz	v1,80005830 <kmem_cache_free+0x2fc>
80005584:	3c14800e 	lui	s4,0x800e
80005588:	8e91a9b4 	lw	s1,-22092(s4)
8000558c:	00021140 	sll	v0,v0,0x5
80005590:	02228821 	addu	s1,s1,v0
80005594:	40026000 	mfc0	v0,c0_status
80005598:	00000000 	nop
8000559c:	30420001 	andi	v0,v0,0x1
800055a0:	14400044 	bnez	v0,800056b4 <kmem_cache_free+0x180>
800055a4:	00000000 	nop
800055a8:	8e330004 	lw	s3,4(s1)
800055ac:	00000000 	nop
800055b0:	00139882 	srl	s3,s3,0x2
800055b4:	32730001 	andi	s3,s3,0x1
800055b8:	126000a3 	beqz	s3,80005848 <kmem_cache_free+0x314>
800055bc:	3c048001 	lui	a0,0x8001
800055c0:	40026000 	mfc0	v0,c0_status
800055c4:	00000000 	nop
800055c8:	30420001 	andi	v0,v0,0x1
800055cc:	14400042 	bnez	v0,800056d8 <kmem_cache_free+0x1a4>
800055d0:	00000000 	nop
800055d4:	00009821 	move	s3,zero
800055d8:	8e310010 	lw	s1,16(s1)
800055dc:	8e420014 	lw	v0,20(s2)
800055e0:	8e230008 	lw	v1,8(s1)
800055e4:	8e240014 	lw	a0,20(s1)
800055e8:	02038023 	subu	s0,s0,v1
800055ec:	00508007 	srav	s0,s0,v0
800055f0:	26020006 	addiu	v0,s0,6
800055f4:	00021080 	sll	v0,v0,0x2
800055f8:	02221021 	addu	v0,s1,v0
800055fc:	ac440000 	sw	a0,0(v0)
80005600:	8e22000c 	lw	v0,12(s1)
80005604:	ae300014 	sw	s0,20(s1)
80005608:	2442ffff 	addiu	v0,v0,-1
8000560c:	10400036 	beqz	v0,800056e8 <kmem_cache_free+0x1b4>
80005610:	ae22000c 	sw	v0,12(s1)
80005614:	8e430018 	lw	v1,24(s2)
80005618:	00000000 	nop
8000561c:	2463ffff 	addiu	v1,v1,-1
80005620:	1043000e 	beq	v0,v1,8000565c <kmem_cache_free+0x128>
80005624:	26450008 	addiu	a1,s2,8
80005628:	16600017 	bnez	s3,80005688 <kmem_cache_free+0x154>
8000562c:	00000000 	nop
80005630:	8fbf0034 	lw	ra,52(sp)
80005634:	8fb70030 	lw	s7,48(sp)
80005638:	8fb6002c 	lw	s6,44(sp)
8000563c:	8fb50028 	lw	s5,40(sp)
80005640:	8fb40024 	lw	s4,36(sp)
80005644:	8fb30020 	lw	s3,32(sp)
80005648:	8fb2001c 	lw	s2,28(sp)
8000564c:	8fb10018 	lw	s1,24(sp)
80005650:	8fb00014 	lw	s0,20(sp)
80005654:	03e00008 	jr	ra
80005658:	27bd0038 	addiu	sp,sp,56
8000565c:	8e240000 	lw	a0,0(s1)
80005660:	8e230004 	lw	v1,4(s1)
80005664:	00000000 	nop
80005668:	ac830004 	sw	v1,4(a0)
8000566c:	8e42000c 	lw	v0,12(s2)
80005670:	ac640000 	sw	a0,0(v1)
80005674:	ae51000c 	sw	s1,12(s2)
80005678:	ac510000 	sw	s1,0(v0)
8000567c:	ae220004 	sw	v0,4(s1)
80005680:	1260ffeb 	beqz	s3,80005630 <kmem_cache_free+0xfc>
80005684:	ae250000 	sw	a1,0(s1)
80005688:	8fbf0034 	lw	ra,52(sp)
8000568c:	8fb70030 	lw	s7,48(sp)
80005690:	8fb6002c 	lw	s6,44(sp)
80005694:	8fb50028 	lw	s5,40(sp)
80005698:	8fb40024 	lw	s4,36(sp)
8000569c:	8fb30020 	lw	s3,32(sp)
800056a0:	8fb2001c 	lw	s2,28(sp)
800056a4:	8fb10018 	lw	s1,24(sp)
800056a8:	8fb00014 	lw	s0,20(sp)
800056ac:	08000b77 	j	80002ddc <intr_enable>
800056b0:	27bd0038 	addiu	sp,sp,56
800056b4:	0c000b7d 	jal	80002df4 <intr_disable>
800056b8:	00000000 	nop
800056bc:	8e330004 	lw	s3,4(s1)
800056c0:	00000000 	nop
800056c4:	00139882 	srl	s3,s3,0x2
800056c8:	0c000b77 	jal	80002ddc <intr_enable>
800056cc:	32730001 	andi	s3,s3,0x1
800056d0:	0800156e 	j	800055b8 <kmem_cache_free+0x84>
800056d4:	00000000 	nop
800056d8:	0c000b7d 	jal	80002df4 <intr_disable>
800056dc:	24130001 	li	s3,1
800056e0:	08001576 	j	800055d8 <kmem_cache_free+0xa4>
800056e4:	00000000 	nop
800056e8:	8e270010 	lw	a3,16(s1)
800056ec:	8e240000 	lw	a0,0(s1)
800056f0:	8e220004 	lw	v0,4(s1)
800056f4:	00673823 	subu	a3,v1,a3
800056f8:	ac820004 	sw	v0,4(a0)
800056fc:	04e1005f 	bgez	a3,8000587c <kmem_cache_free+0x348>
80005700:	ac440000 	sw	a0,0(v0)
80005704:	3c178000 	lui	s7,0x8000
80005708:	00f73821 	addu	a3,a3,s7
8000570c:	8ea27cfc 	lw	v0,31996(s5)
80005710:	00073b02 	srl	a3,a3,0xc
80005714:	00e2102b 	sltu	v0,a3,v0
80005718:	10400045 	beqz	v0,80005830 <kmem_cache_free+0x2fc>
8000571c:	00073940 	sll	a3,a3,0x5
80005720:	8e97a9b4 	lw	s7,-22092(s4)
80005724:	8e420024 	lw	v0,36(s2)
80005728:	02e7b821 	addu	s7,s7,a3
8000572c:	24140001 	li	s4,1
80005730:	0054a004 	sllv	s4,s4,v0
80005734:	02e08021 	move	s0,s7
80005738:	2416fffb 	li	s6,-5
8000573c:	40026000 	mfc0	v0,c0_status
80005740:	00000000 	nop
80005744:	30420001 	andi	v0,v0,0x1
80005748:	14400021 	bnez	v0,800057d0 <kmem_cache_free+0x29c>
8000574c:	00000000 	nop
80005750:	8e150004 	lw	s5,4(s0)
80005754:	00000000 	nop
80005758:	0015a882 	srl	s5,s5,0x2
8000575c:	32b50001 	andi	s5,s5,0x1
80005760:	12a0002e 	beqz	s5,8000581c <kmem_cache_free+0x2e8>
80005764:	3c068001 	lui	a2,0x8001
80005768:	40026000 	mfc0	v0,c0_status
8000576c:	00000000 	nop
80005770:	30420001 	andi	v0,v0,0x1
80005774:	1440001f 	bnez	v0,800057f4 <kmem_cache_free+0x2c0>
80005778:	00000000 	nop
8000577c:	8e020004 	lw	v0,4(s0)
80005780:	00000000 	nop
80005784:	00561024 	and	v0,v0,s6
80005788:	ae020004 	sw	v0,4(s0)
8000578c:	2694ffff 	addiu	s4,s4,-1
80005790:	1680ffea 	bnez	s4,8000573c <kmem_cache_free+0x208>
80005794:	26100020 	addiu	s0,s0,32
80005798:	8e420024 	lw	v0,36(s2)
8000579c:	24050001 	li	a1,1
800057a0:	00452804 	sllv	a1,a1,v0
800057a4:	0c0017bc 	jal	80005ef0 <free_pages>
800057a8:	02e02021 	move	a0,s7
800057ac:	8e420020 	lw	v0,32(s2)
800057b0:	00000000 	nop
800057b4:	1040ff9c 	beqz	v0,80005628 <kmem_cache_free+0xf4>
800057b8:	00000000 	nop
800057bc:	8e440028 	lw	a0,40(s2)
800057c0:	0c00154d 	jal	80005534 <kmem_cache_free>
800057c4:	02202821 	move	a1,s1
800057c8:	0800158a 	j	80005628 <kmem_cache_free+0xf4>
800057cc:	00000000 	nop
800057d0:	0c000b7d 	jal	80002df4 <intr_disable>
800057d4:	00000000 	nop
800057d8:	8e150004 	lw	s5,4(s0)
800057dc:	00000000 	nop
800057e0:	0015a882 	srl	s5,s5,0x2
800057e4:	0c000b77 	jal	80002ddc <intr_enable>
800057e8:	32b50001 	andi	s5,s5,0x1
800057ec:	080015d8 	j	80005760 <kmem_cache_free+0x22c>
800057f0:	00000000 	nop
800057f4:	0c000b7d 	jal	80002df4 <intr_disable>
800057f8:	00000000 	nop
800057fc:	8e020004 	lw	v0,4(s0)
80005800:	00000000 	nop
80005804:	00561024 	and	v0,v0,s6
80005808:	ae020004 	sw	v0,4(s0)
8000580c:	0c000b77 	jal	80002ddc <intr_enable>
80005810:	2694ffff 	addiu	s4,s4,-1
80005814:	080015e4 	j	80005790 <kmem_cache_free+0x25c>
80005818:	00000000 	nop
8000581c:	3c048001 	lui	a0,0x8001
80005820:	24845580 	addiu	a0,a0,21888
80005824:	240501ba 	li	a1,442
80005828:	0c0009f2 	jal	800027c8 <__panic>
8000582c:	24c655ac 	addiu	a2,a2,21932
80005830:	3c048001 	lui	a0,0x8001
80005834:	3c068001 	lui	a2,0x8001
80005838:	24845508 	addiu	a0,a0,21768
8000583c:	24050062 	li	a1,98
80005840:	0c0009f2 	jal	800027c8 <__panic>
80005844:	24c65560 	addiu	a2,a2,21856
80005848:	3c068001 	lui	a2,0x8001
8000584c:	24845580 	addiu	a0,a0,21888
80005850:	240501e8 	li	a1,488
80005854:	24c65594 	addiu	a2,a2,21908
80005858:	0c0009f2 	jal	800027c8 <__panic>
8000585c:	02003821 	move	a3,s0
80005860:	3c048001 	lui	a0,0x8001
80005864:	3c068001 	lui	a2,0x8001
80005868:	24845508 	addiu	a0,a0,21768
8000586c:	2405006e 	li	a1,110
80005870:	24c6553c 	addiu	a2,a2,21820
80005874:	0c0009f2 	jal	800027c8 <__panic>
80005878:	02003821 	move	a3,s0
8000587c:	3c048001 	lui	a0,0x8001
80005880:	3c068001 	lui	a2,0x8001
80005884:	24845508 	addiu	a0,a0,21768
80005888:	2405006e 	li	a1,110
8000588c:	0c0009f2 	jal	800027c8 <__panic>
80005890:	24c6553c 	addiu	a2,a2,21820

80005894 <kmalloc_init>:
80005894:	27bdffd0 	addiu	sp,sp,-48
80005898:	afb3001c 	sw	s3,28(sp)
8000589c:	3c0d800d 	lui	t5,0x800d
800058a0:	3c138001 	lui	s3,0x8001
800058a4:	afb20018 	sw	s2,24(sp)
800058a8:	afb10014 	sw	s1,20(sp)
800058ac:	afb00010 	sw	s0,16(sp)
800058b0:	afbf002c 	sw	ra,44(sp)
800058b4:	afb60028 	sw	s6,40(sp)
800058b8:	afb50024 	sw	s5,36(sp)
800058bc:	afb40020 	sw	s4,32(sp)
800058c0:	00004821 	move	t1,zero
800058c4:	25ad7ab8 	addiu	t5,t5,31416
800058c8:	240f0001 	li	t7,1
800058cc:	240a0012 	li	t2,18
800058d0:	26733fb8 	addiu	s3,s3,16312
800058d4:	24121000 	li	s2,4096
800058d8:	2411ffff 	li	s1,-1
800058dc:	2410000b 	li	s0,11
800058e0:	2419000d 	li	t9,13
800058e4:	25270005 	addiu	a3,t1,5
800058e8:	00091880 	sll	v1,t1,0x2
800058ec:	00091100 	sll	v0,t1,0x4
800058f0:	00ef3804 	sllv	a3,t7,a3
800058f4:	00431023 	subu	v0,v0,v1
800058f8:	24e7000f 	addiu	a3,a3,15
800058fc:	00491023 	subu	v0,v0,t1
80005900:	00073902 	srl	a3,a3,0x4
80005904:	00073900 	sll	a3,a3,0x4
80005908:	00021080 	sll	v0,v0,0x2
8000590c:	01a21021 	addu	v0,t5,v0
80005910:	2cec0200 	sltiu	t4,a3,512
80005914:	24430008 	addiu	v1,v0,8
80005918:	398c0001 	xori	t4,t4,0x1
8000591c:	2ce40021 	sltiu	a0,a3,33
80005920:	ac420004 	sw	v0,4(v0)
80005924:	ac420000 	sw	v0,0(v0)
80005928:	ac43000c 	sw	v1,12(v0)
8000592c:	ac430008 	sw	v1,8(v0)
80005930:	ac470010 	sw	a3,16(v0)
80005934:	14800059 	bnez	a0,80005a9c <kmalloc_init+0x208>
80005938:	ac4c0020 	sw	t4,32(v0)
8000593c:	24040040 	li	a0,64
80005940:	24030006 	li	v1,6
80005944:	0087282b 	sltu	a1,a0,a3
80005948:	10a0000a 	beqz	a1,80005974 <kmalloc_init+0xe0>
8000594c:	0060c021 	move	t8,v1
80005950:	24630001 	addiu	v1,v1,1
80005954:	146afffb 	bne	v1,t2,80005944 <kmalloc_init+0xb0>
80005958:	00042040 	sll	a0,a0,0x1
8000595c:	3c048001 	lui	a0,0x8001
80005960:	3c068001 	lui	a2,0x8001
80005964:	24845580 	addiu	a0,a0,21888
80005968:	24050104 	li	a1,260
8000596c:	0c0009f2 	jal	800027c8 <__panic>
80005970:	24c65060 	addiu	a2,a2,20576
80005974:	006f2804 	sllv	a1,t7,v1
80005978:	246efffb 	addiu	t6,v1,-5
8000597c:	24a7ffe8 	addiu	a3,a1,-24
80005980:	000e7080 	sll	t6,t6,0x2
80005984:	ac430014 	sw	v1,20(v0)
80005988:	00073882 	srl	a3,a3,0x2
8000598c:	026e7021 	addu	t6,s3,t6
80005990:	00005821 	move	t3,zero
80005994:	1180001a 	beqz	t4,80005a00 <kmalloc_init+0x16c>
80005998:	01724004 	sllv	t0,s2,t3
8000599c:	03083006 	srlv	a2,t0,t8
800059a0:	00002021 	move	a0,zero
800059a4:	10c0000d 	beqz	a2,800059dc <kmalloc_init+0x148>
800059a8:	00000000 	nop
800059ac:	11800004 	beqz	t4,800059c0 <kmalloc_init+0x12c>
800059b0:	00c50018 	mult	a2,a1
800059b4:	00e6182b 	sltu	v1,a3,a2
800059b8:	14600033 	bnez	v1,80005a88 <kmalloc_init+0x1f4>
800059bc:	00000000 	nop
800059c0:	00001812 	mflo	v1
800059c4:	01031823 	subu	v1,t0,v1
800059c8:	00642023 	subu	a0,v1,a0
800059cc:	000418c0 	sll	v1,a0,0x3
800059d0:	0103402b 	sltu	t0,t0,v1
800059d4:	11000035 	beqz	t0,80005aac <kmalloc_init+0x218>
800059d8:	00000000 	nop
800059dc:	256b0001 	addiu	t3,t3,1
800059e0:	1570ffec 	bne	t3,s0,80005994 <kmalloc_init+0x100>
800059e4:	25ce0020 	addiu	t6,t6,32
800059e8:	3c048001 	lui	a0,0x8001
800059ec:	3c068001 	lui	a2,0x8001
800059f0:	24845580 	addiu	a0,a0,21888
800059f4:	240500f8 	li	a1,248
800059f8:	0c0009f2 	jal	800027c8 <__panic>
800059fc:	24c65614 	addiu	a2,a2,22036
80005a00:	8dc60000 	lw	a2,0(t6)
80005a04:	00000000 	nop
80005a08:	00c50018 	mult	a2,a1
80005a0c:	00062080 	sll	a0,a2,0x2
80005a10:	24840027 	addiu	a0,a0,39
80005a14:	00042102 	srl	a0,a0,0x4
80005a18:	00042100 	sll	a0,a0,0x4
80005a1c:	00001812 	mflo	v1
80005a20:	00831821 	addu	v1,a0,v1
80005a24:	0103182b 	sltu	v1,t0,v1
80005a28:	10600010 	beqz	v1,80005a6c <kmalloc_init+0x1d8>
80005a2c:	00000000 	nop
80005a30:	24c3ffff 	addiu	v1,a2,-1
80005a34:	00650018 	mult	v1,a1
80005a38:	00063080 	sll	a2,a2,0x2
80005a3c:	0000a812 	mflo	s5
80005a40:	08001693 	j	80005a4c <kmalloc_init+0x1b8>
80005a44:	24d40023 	addiu	s4,a2,35
80005a48:	2463ffff 	addiu	v1,v1,-1
80005a4c:	00142102 	srl	a0,s4,0x4
80005a50:	00042100 	sll	a0,a0,0x4
80005a54:	02a4b021 	addu	s6,s5,a0
80005a58:	0116b02b 	sltu	s6,t0,s6
80005a5c:	00603021 	move	a2,v1
80005a60:	2694fffc 	addiu	s4,s4,-4
80005a64:	16c0fff8 	bnez	s6,80005a48 <kmalloc_init+0x1b4>
80005a68:	02a5a823 	subu	s5,s5,a1
80005a6c:	14d1ffcd 	bne	a2,s1,800059a4 <kmalloc_init+0x110>
80005a70:	00000000 	nop
80005a74:	3c048001 	lui	a0,0x8001
80005a78:	0c000727 	jal	80001c9c <kprintf>
80005a7c:	248455cc 	addiu	a0,a0,21964
80005a80:	080016a0 	j	80005a80 <kmalloc_init+0x1ec>
80005a84:	00000000 	nop
80005a88:	3c048001 	lui	a0,0x8001
80005a8c:	0c000727 	jal	80001c9c <kprintf>
80005a90:	248455d8 	addiu	a0,a0,21976
80005a94:	080016a5 	j	80005a94 <kmalloc_init+0x200>
80005a98:	00000000 	nop
80005a9c:	24050020 	li	a1,32
80005aa0:	24180005 	li	t8,5
80005aa4:	0800165e 	j	80005978 <kmalloc_init+0xe4>
80005aa8:	24030005 	li	v1,5
80005aac:	00063880 	sll	a3,a2,0x2
80005ab0:	24e70027 	addiu	a3,a3,39
80005ab4:	00073902 	srl	a3,a3,0x4
80005ab8:	ac460018 	sw	a2,24(v0)
80005abc:	ac4b0024 	sw	t3,36(v0)
80005ac0:	11800005 	beqz	t4,80005ad8 <kmalloc_init+0x244>
80005ac4:	00073900 	sll	a3,a3,0x4
80005ac8:	0087202b 	sltu	a0,a0,a3
80005acc:	14800011 	bnez	a0,80005b14 <kmalloc_init+0x280>
80005ad0:	2ce30021 	sltiu	v1,a3,33
80005ad4:	ac400020 	sw	zero,32(v0)
80005ad8:	ac47001c 	sw	a3,28(v0)
80005adc:	25290001 	addiu	t1,t1,1
80005ae0:	1539ff80 	bne	t1,t9,800058e4 <kmalloc_init+0x50>
80005ae4:	3c048001 	lui	a0,0x8001
80005ae8:	8fbf002c 	lw	ra,44(sp)
80005aec:	8fb60028 	lw	s6,40(sp)
80005af0:	8fb50024 	lw	s5,36(sp)
80005af4:	8fb40020 	lw	s4,32(sp)
80005af8:	8fb3001c 	lw	s3,28(sp)
80005afc:	8fb20018 	lw	s2,24(sp)
80005b00:	8fb10014 	lw	s1,20(sp)
80005b04:	8fb00010 	lw	s0,16(sp)
80005b08:	24845634 	addiu	a0,a0,22068
80005b0c:	08000727 	j	80001c9c <kprintf>
80005b10:	27bd0030 	addiu	sp,sp,48
80005b14:	1460000b 	bnez	v1,80005b44 <kmalloc_init+0x2b0>
80005b18:	ac40001c 	sw	zero,28(v0)
80005b1c:	24040040 	li	a0,64
80005b20:	24030006 	li	v1,6
80005b24:	0087282b 	sltu	a1,a0,a3
80005b28:	10a00009 	beqz	a1,80005b50 <kmalloc_init+0x2bc>
80005b2c:	00032900 	sll	a1,v1,0x4
80005b30:	24630001 	addiu	v1,v1,1
80005b34:	146afffb 	bne	v1,t2,80005b24 <kmalloc_init+0x290>
80005b38:	00042040 	sll	a0,a0,0x1
80005b3c:	08001658 	j	80005960 <kmalloc_init+0xcc>
80005b40:	3c048001 	lui	a0,0x8001
80005b44:	01a01821 	move	v1,t5
80005b48:	080016b7 	j	80005adc <kmalloc_init+0x248>
80005b4c:	ac430028 	sw	v1,40(v0)
80005b50:	00032080 	sll	a0,v1,0x2
80005b54:	00a42023 	subu	a0,a1,a0
80005b58:	00831823 	subu	v1,a0,v1
80005b5c:	00031880 	sll	v1,v1,0x2
80005b60:	2463ff24 	addiu	v1,v1,-220
80005b64:	080016d2 	j	80005b48 <kmalloc_init+0x2b4>
80005b68:	01a31821 	addu	v1,t5,v1

80005b6c <kallocated>:
80005b6c:	27bdffe0 	addiu	sp,sp,-32
80005b70:	afbf001c 	sw	ra,28(sp)
80005b74:	40026000 	mfc0	v0,c0_status
80005b78:	00000000 	nop
80005b7c:	30420001 	andi	v0,v0,0x1
80005b80:	14400031 	bnez	v0,80005c48 <kallocated+0xdc>
80005b84:	00000000 	nop
80005b88:	00004821 	move	t1,zero
80005b8c:	3c08800d 	lui	t0,0x800d
80005b90:	00001021 	move	v0,zero
80005b94:	00003021 	move	a2,zero
80005b98:	25087ab8 	addiu	t0,t0,31416
80005b9c:	2407000d 	li	a3,13
80005ba0:	00061900 	sll	v1,a2,0x4
80005ba4:	00062080 	sll	a0,a2,0x2
80005ba8:	00642023 	subu	a0,v1,a0
80005bac:	00862023 	subu	a0,a0,a2
80005bb0:	00042080 	sll	a0,a0,0x2
80005bb4:	01042021 	addu	a0,t0,a0
80005bb8:	8c830004 	lw	v1,4(a0)
80005bbc:	00000000 	nop
80005bc0:	1083000a 	beq	a0,v1,80005bec <kallocated+0x80>
80005bc4:	00000000 	nop
80005bc8:	8c850018 	lw	a1,24(a0)
80005bcc:	8c8a0010 	lw	t2,16(a0)
80005bd0:	00000000 	nop
80005bd4:	01450018 	mult	t2,a1
80005bd8:	00002812 	mflo	a1
80005bdc:	8c630004 	lw	v1,4(v1)
80005be0:	00000000 	nop
80005be4:	1483fffd 	bne	a0,v1,80005bdc <kallocated+0x70>
80005be8:	00451021 	addu	v0,v0,a1
80005bec:	8c83000c 	lw	v1,12(a0)
80005bf0:	24850008 	addiu	a1,a0,8
80005bf4:	10a30008 	beq	a1,v1,80005c18 <kallocated+0xac>
80005bf8:	00000000 	nop
80005bfc:	8c840010 	lw	a0,16(a0)
80005c00:	8c6a000c 	lw	t2,12(v1)
80005c04:	8c630004 	lw	v1,4(v1)
80005c08:	008a0018 	mult	a0,t2
80005c0c:	00005012 	mflo	t2
80005c10:	14a3fffb 	bne	a1,v1,80005c00 <kallocated+0x94>
80005c14:	004a1021 	addu	v0,v0,t2
80005c18:	24c60001 	addiu	a2,a2,1
80005c1c:	14c7ffe0 	bne	a2,a3,80005ba0 <kallocated+0x34>
80005c20:	00000000 	nop
80005c24:	11200004 	beqz	t1,80005c38 <kallocated+0xcc>
80005c28:	00000000 	nop
80005c2c:	0c000b77 	jal	80002ddc <intr_enable>
80005c30:	afa20010 	sw	v0,16(sp)
80005c34:	8fa20010 	lw	v0,16(sp)
80005c38:	8fbf001c 	lw	ra,28(sp)
80005c3c:	00000000 	nop
80005c40:	03e00008 	jr	ra
80005c44:	27bd0020 	addiu	sp,sp,32
80005c48:	0c000b7d 	jal	80002df4 <intr_disable>
80005c4c:	00000000 	nop
80005c50:	080016e3 	j	80005b8c <kallocated+0x20>
80005c54:	24090001 	li	t1,1

80005c58 <kmalloc>:
80005c58:	27bdffe8 	addiu	sp,sp,-24
80005c5c:	afbf0014 	sw	ra,20(sp)
80005c60:	10800021 	beqz	a0,80005ce8 <kmalloc+0x90>
80005c64:	00803821 	move	a3,a0
80005c68:	2c820021 	sltiu	v0,a0,33
80005c6c:	1440001b 	bnez	v0,80005cdc <kmalloc+0x84>
80005c70:	24030040 	li	v1,64
80005c74:	24020006 	li	v0,6
80005c78:	24050012 	li	a1,18
80005c7c:	0067202b 	sltu	a0,v1,a3
80005c80:	1080000a 	beqz	a0,80005cac <kmalloc+0x54>
80005c84:	00000000 	nop
80005c88:	24420001 	addiu	v0,v0,1
80005c8c:	1445fffb 	bne	v0,a1,80005c7c <kmalloc+0x24>
80005c90:	00031840 	sll	v1,v1,0x1
80005c94:	3c048001 	lui	a0,0x8001
80005c98:	3c068001 	lui	a2,0x8001
80005c9c:	24845580 	addiu	a0,a0,21888
80005ca0:	24050104 	li	a1,260
80005ca4:	0c0009f2 	jal	800027c8 <__panic>
80005ca8:	24c65060 	addiu	a2,a2,20576
80005cac:	00022100 	sll	a0,v0,0x4
80005cb0:	00021880 	sll	v1,v0,0x2
80005cb4:	00831823 	subu	v1,a0,v1
80005cb8:	00621023 	subu	v0,v1,v0
80005cbc:	00021080 	sll	v0,v0,0x2
80005cc0:	3c04800d 	lui	a0,0x800d
80005cc4:	2442ff24 	addiu	v0,v0,-220
80005cc8:	24847ab8 	addiu	a0,a0,31416
80005ccc:	00822021 	addu	a0,a0,v0
80005cd0:	8fbf0014 	lw	ra,20(sp)
80005cd4:	08001485 	j	80005214 <kmem_cache_alloc>
80005cd8:	27bd0018 	addiu	sp,sp,24
80005cdc:	3c04800d 	lui	a0,0x800d
80005ce0:	08001734 	j	80005cd0 <kmalloc+0x78>
80005ce4:	24847ab8 	addiu	a0,a0,31416
80005ce8:	3c048001 	lui	a0,0x8001
80005cec:	3c068001 	lui	a2,0x8001
80005cf0:	24845580 	addiu	a0,a0,21888
80005cf4:	240501a8 	li	a1,424
80005cf8:	0c0009f2 	jal	800027c8 <__panic>
80005cfc:	24c65650 	addiu	a2,a2,22096

80005d00 <kfree>:
80005d00:	27bdffe8 	addiu	sp,sp,-24
80005d04:	afbf0014 	sw	ra,20(sp)
80005d08:	04810011 	bgez	a0,80005d50 <kfree+0x50>
80005d0c:	00803821 	move	a3,a0
80005d10:	3c028000 	lui	v0,0x8000
80005d14:	3c03800d 	lui	v1,0x800d
80005d18:	00821021 	addu	v0,a0,v0
80005d1c:	8c637cfc 	lw	v1,31996(v1)
80005d20:	00021302 	srl	v0,v0,0xc
80005d24:	0043182b 	sltu	v1,v0,v1
80005d28:	1060000f 	beqz	v1,80005d68 <kfree+0x68>
80005d2c:	3c03800e 	lui	v1,0x800e
80005d30:	8c63a9b4 	lw	v1,-22092(v1)
80005d34:	00021140 	sll	v0,v0,0x5
80005d38:	00621021 	addu	v0,v1,v0
80005d3c:	8fbf0014 	lw	ra,20(sp)
80005d40:	8c440014 	lw	a0,20(v0)
80005d44:	00e02821 	move	a1,a3
80005d48:	0800154d 	j	80005534 <kmem_cache_free>
80005d4c:	27bd0018 	addiu	sp,sp,24
80005d50:	3c048001 	lui	a0,0x8001
80005d54:	3c068001 	lui	a2,0x8001
80005d58:	24845508 	addiu	a0,a0,21768
80005d5c:	2405006e 	li	a1,110
80005d60:	0c0009f2 	jal	800027c8 <__panic>
80005d64:	24c6553c 	addiu	a2,a2,21820
80005d68:	3c048001 	lui	a0,0x8001
80005d6c:	3c068001 	lui	a2,0x8001
80005d70:	24845508 	addiu	a0,a0,21768
80005d74:	24050062 	li	a1,98
80005d78:	0c0009f2 	jal	800027c8 <__panic>
80005d7c:	24c65560 	addiu	a2,a2,21856

80005d80 <get_pgtable_items.isra.0.part.1.constprop.5>:
80005d80:	2c820400 	sltiu	v0,a0,1024
80005d84:	10400035 	beqz	v0,80005e5c <get_pgtable_items.isra.0.part.1.constprop.5+0xdc>
80005d88:	00044080 	sll	t0,a0,0x2
80005d8c:	00a84021 	addu	t0,a1,t0
80005d90:	8d020000 	lw	v0,0(t0)
80005d94:	00000000 	nop
80005d98:	30420001 	andi	v0,v0,0x1
80005d9c:	14400011 	bnez	v0,80005de4 <get_pgtable_items.isra.0.part.1.constprop.5+0x64>
80005da0:	24820001 	addiu	v0,a0,1
80005da4:	00021880 	sll	v1,v0,0x2
80005da8:	00a31821 	addu	v1,a1,v1
80005dac:	08001773 	j	80005dcc <get_pgtable_items.isra.0.part.1.constprop.5+0x4c>
80005db0:	240a0400 	li	t2,1024
80005db4:	8c690000 	lw	t1,0(v1)
80005db8:	00000000 	nop
80005dbc:	31290001 	andi	t1,t1,0x1
80005dc0:	15200008 	bnez	t1,80005de4 <get_pgtable_items.isra.0.part.1.constprop.5+0x64>
80005dc4:	24630004 	addiu	v1,v1,4
80005dc8:	24420001 	addiu	v0,v0,1
80005dcc:	00604021 	move	t0,v1
80005dd0:	144afff8 	bne	v0,t2,80005db4 <get_pgtable_items.isra.0.part.1.constprop.5+0x34>
80005dd4:	00402021 	move	a0,v0
80005dd8:	00001021 	move	v0,zero
80005ddc:	03e00008 	jr	ra
80005de0:	00000000 	nop
80005de4:	10c00002 	beqz	a2,80005df0 <get_pgtable_items.isra.0.part.1.constprop.5+0x70>
80005de8:	00000000 	nop
80005dec:	acc40000 	sw	a0,0(a2)
80005df0:	8d020000 	lw	v0,0(t0)
80005df4:	24830001 	addiu	v1,a0,1
80005df8:	24060400 	li	a2,1024
80005dfc:	10660013 	beq	v1,a2,80005e4c <get_pgtable_items.isra.0.part.1.constprop.5+0xcc>
80005e00:	30420007 	andi	v0,v0,0x7
80005e04:	00033080 	sll	a2,v1,0x2
80005e08:	00a63021 	addu	a2,a1,a2
80005e0c:	8cc60000 	lw	a2,0(a2)
80005e10:	00000000 	nop
80005e14:	30c60007 	andi	a2,a2,0x7
80005e18:	14c2000c 	bne	a2,v0,80005e4c <get_pgtable_items.isra.0.part.1.constprop.5+0xcc>
80005e1c:	00042080 	sll	a0,a0,0x2
80005e20:	00a42821 	addu	a1,a1,a0
80005e24:	08001790 	j	80005e40 <get_pgtable_items.isra.0.part.1.constprop.5+0xc0>
80005e28:	24080400 	li	t0,1024
80005e2c:	8ca40008 	lw	a0,8(a1)
80005e30:	00000000 	nop
80005e34:	30840007 	andi	a0,a0,0x7
80005e38:	14860004 	bne	a0,a2,80005e4c <get_pgtable_items.isra.0.part.1.constprop.5+0xcc>
80005e3c:	24a50004 	addiu	a1,a1,4
80005e40:	24630001 	addiu	v1,v1,1
80005e44:	1468fff9 	bne	v1,t0,80005e2c <get_pgtable_items.isra.0.part.1.constprop.5+0xac>
80005e48:	00000000 	nop
80005e4c:	10e0ffe3 	beqz	a3,80005ddc <get_pgtable_items.isra.0.part.1.constprop.5+0x5c>
80005e50:	00000000 	nop
80005e54:	03e00008 	jr	ra
80005e58:	ace30000 	sw	v1,0(a3)
80005e5c:	03e00008 	jr	ra
80005e60:	00001021 	move	v0,zero

80005e64 <lcr3>:
80005e64:	3c02800d 	lui	v0,0x800d
80005e68:	03e00008 	jr	ra
80005e6c:	ac447cf4 	sw	a0,31988(v0)

80005e70 <alloc_pages>:
80005e70:	27bdffe0 	addiu	sp,sp,-32
80005e74:	afb00018 	sw	s0,24(sp)
80005e78:	afbf001c 	sw	ra,28(sp)
80005e7c:	00808021 	move	s0,a0
80005e80:	40026000 	mfc0	v0,c0_status
80005e84:	00000000 	nop
80005e88:	30420001 	andi	v0,v0,0x1
80005e8c:	14400008 	bnez	v0,80005eb0 <alloc_pages+0x40>
80005e90:	3c02800e 	lui	v0,0x800e
80005e94:	8c42a9ac 	lw	v0,-22100(v0)
80005e98:	8fbf001c 	lw	ra,28(sp)
80005e9c:	8fb00018 	lw	s0,24(sp)
80005ea0:	8c59000c 	lw	t9,12(v0)
80005ea4:	00000000 	nop
80005ea8:	03200008 	jr	t9
80005eac:	27bd0020 	addiu	sp,sp,32
80005eb0:	0c000b7d 	jal	80002df4 <intr_disable>
80005eb4:	00000000 	nop
80005eb8:	3c02800e 	lui	v0,0x800e
80005ebc:	8c42a9ac 	lw	v0,-22100(v0)
80005ec0:	00000000 	nop
80005ec4:	8c42000c 	lw	v0,12(v0)
80005ec8:	00000000 	nop
80005ecc:	0040f809 	jalr	v0
80005ed0:	02002021 	move	a0,s0
80005ed4:	0c000b77 	jal	80002ddc <intr_enable>
80005ed8:	afa20010 	sw	v0,16(sp)
80005edc:	8fbf001c 	lw	ra,28(sp)
80005ee0:	8fa20010 	lw	v0,16(sp)
80005ee4:	8fb00018 	lw	s0,24(sp)
80005ee8:	03e00008 	jr	ra
80005eec:	27bd0020 	addiu	sp,sp,32

80005ef0 <free_pages>:
80005ef0:	27bdffe0 	addiu	sp,sp,-32
80005ef4:	afb10018 	sw	s1,24(sp)
80005ef8:	afb00014 	sw	s0,20(sp)
80005efc:	afbf001c 	sw	ra,28(sp)
80005f00:	00808821 	move	s1,a0
80005f04:	00a08021 	move	s0,a1
80005f08:	40026000 	mfc0	v0,c0_status
80005f0c:	00000000 	nop
80005f10:	30420001 	andi	v0,v0,0x1
80005f14:	14400009 	bnez	v0,80005f3c <free_pages+0x4c>
80005f18:	3c02800e 	lui	v0,0x800e
80005f1c:	8c42a9ac 	lw	v0,-22100(v0)
80005f20:	8fbf001c 	lw	ra,28(sp)
80005f24:	8fb10018 	lw	s1,24(sp)
80005f28:	8fb00014 	lw	s0,20(sp)
80005f2c:	8c590010 	lw	t9,16(v0)
80005f30:	00000000 	nop
80005f34:	03200008 	jr	t9
80005f38:	27bd0020 	addiu	sp,sp,32
80005f3c:	0c000b7d 	jal	80002df4 <intr_disable>
80005f40:	00000000 	nop
80005f44:	3c02800e 	lui	v0,0x800e
80005f48:	8c42a9ac 	lw	v0,-22100(v0)
80005f4c:	02202021 	move	a0,s1
80005f50:	8c420010 	lw	v0,16(v0)
80005f54:	00000000 	nop
80005f58:	0040f809 	jalr	v0
80005f5c:	02002821 	move	a1,s0
80005f60:	8fbf001c 	lw	ra,28(sp)
80005f64:	8fb10018 	lw	s1,24(sp)
80005f68:	8fb00014 	lw	s0,20(sp)
80005f6c:	08000b77 	j	80002ddc <intr_enable>
80005f70:	27bd0020 	addiu	sp,sp,32

80005f74 <nr_free_pages>:
80005f74:	27bdffe0 	addiu	sp,sp,-32
80005f78:	afbf001c 	sw	ra,28(sp)
80005f7c:	40026000 	mfc0	v0,c0_status
80005f80:	00000000 	nop
80005f84:	30420001 	andi	v0,v0,0x1
80005f88:	14400007 	bnez	v0,80005fa8 <nr_free_pages+0x34>
80005f8c:	3c02800e 	lui	v0,0x800e
80005f90:	8c42a9ac 	lw	v0,-22100(v0)
80005f94:	8fbf001c 	lw	ra,28(sp)
80005f98:	8c590014 	lw	t9,20(v0)
80005f9c:	00000000 	nop
80005fa0:	03200008 	jr	t9
80005fa4:	27bd0020 	addiu	sp,sp,32
80005fa8:	0c000b7d 	jal	80002df4 <intr_disable>
80005fac:	00000000 	nop
80005fb0:	3c02800e 	lui	v0,0x800e
80005fb4:	8c42a9ac 	lw	v0,-22100(v0)
80005fb8:	00000000 	nop
80005fbc:	8c420014 	lw	v0,20(v0)
80005fc0:	00000000 	nop
80005fc4:	0040f809 	jalr	v0
80005fc8:	00000000 	nop
80005fcc:	0c000b77 	jal	80002ddc <intr_enable>
80005fd0:	afa20010 	sw	v0,16(sp)
80005fd4:	8fbf001c 	lw	ra,28(sp)
80005fd8:	8fa20010 	lw	v0,16(sp)
80005fdc:	03e00008 	jr	ra
80005fe0:	27bd0020 	addiu	sp,sp,32

80005fe4 <get_pte>:
80005fe4:	27bdffd0 	addiu	sp,sp,-48
80005fe8:	afb10020 	sw	s1,32(sp)
80005fec:	00058d82 	srl	s1,a1,0x16
80005ff0:	00118880 	sll	s1,s1,0x2
80005ff4:	00918821 	addu	s1,a0,s1
80005ff8:	afb30028 	sw	s3,40(sp)
80005ffc:	8e330000 	lw	s3,0(s1)
80006000:	afb0001c 	sw	s0,28(sp)
80006004:	32620001 	andi	v0,s3,0x1
80006008:	afbf002c 	sw	ra,44(sp)
8000600c:	afb20024 	sw	s2,36(sp)
80006010:	10400015 	beqz	v0,80006068 <get_pte+0x84>
80006014:	00a08021 	move	s0,a1
80006018:	3c12800d 	lui	s2,0x800d
8000601c:	2402f000 	li	v0,-4096
80006020:	00108282 	srl	s0,s0,0xa
80006024:	02629824 	and	s3,s3,v0
80006028:	32100ffc 	andi	s0,s0,0xffc
8000602c:	02701021 	addu	v0,s3,s0
80006030:	3c038000 	lui	v1,0x8000
80006034:	00431821 	addu	v1,v0,v1
80006038:	8e447cfc 	lw	a0,31996(s2)
8000603c:	00031b02 	srl	v1,v1,0xc
80006040:	0064182b 	sltu	v1,v1,a0
80006044:	10600042 	beqz	v1,80006150 <get_pte+0x16c>
80006048:	00000000 	nop
8000604c:	8fbf002c 	lw	ra,44(sp)
80006050:	8fb30028 	lw	s3,40(sp)
80006054:	8fb20024 	lw	s2,36(sp)
80006058:	8fb10020 	lw	s1,32(sp)
8000605c:	8fb0001c 	lw	s0,28(sp)
80006060:	03e00008 	jr	ra
80006064:	27bd0030 	addiu	sp,sp,48
80006068:	10c00024 	beqz	a2,800060fc <get_pte+0x118>
8000606c:	00000000 	nop
80006070:	0c00179c 	jal	80005e70 <alloc_pages>
80006074:	24040001 	li	a0,1
80006078:	10400020 	beqz	v0,800060fc <get_pte+0x118>
8000607c:	00000000 	nop
80006080:	40036000 	mfc0	v1,c0_status
80006084:	00000000 	nop
80006088:	30630001 	andi	v1,v1,0x1
8000608c:	14600023 	bnez	v1,8000611c <get_pte+0x138>
80006090:	00000000 	nop
80006094:	8c430000 	lw	v1,0(v0)
80006098:	00000000 	nop
8000609c:	24630001 	addiu	v1,v1,1
800060a0:	ac430000 	sw	v1,0(v0)
800060a4:	3c03800e 	lui	v1,0x800e
800060a8:	8c73a9b4 	lw	s3,-22092(v1)
800060ac:	3c12800d 	lui	s2,0x800d
800060b0:	00539823 	subu	s3,v0,s3
800060b4:	00139943 	sra	s3,s3,0x5
800060b8:	00139b00 	sll	s3,s3,0xc
800060bc:	8e437cfc 	lw	v1,31996(s2)
800060c0:	00132302 	srl	a0,s3,0xc
800060c4:	8c420000 	lw	v0,0(v0)
800060c8:	0083182b 	sltu	v1,a0,v1
800060cc:	3c028000 	lui	v0,0x8000
800060d0:	10600026 	beqz	v1,8000616c <get_pte+0x188>
800060d4:	02629821 	addu	s3,s3,v0
800060d8:	02602021 	move	a0,s3
800060dc:	00002821 	move	a1,zero
800060e0:	0c00083d 	jal	800020f4 <memset>
800060e4:	24061000 	li	a2,4096
800060e8:	06610027 	bgez	s3,80006188 <get_pte+0x1a4>
800060ec:	3c048001 	lui	a0,0x8001
800060f0:	36730007 	ori	s3,s3,0x7
800060f4:	08001807 	j	8000601c <get_pte+0x38>
800060f8:	ae330000 	sw	s3,0(s1)
800060fc:	8fbf002c 	lw	ra,44(sp)
80006100:	00001021 	move	v0,zero
80006104:	8fb30028 	lw	s3,40(sp)
80006108:	8fb20024 	lw	s2,36(sp)
8000610c:	8fb10020 	lw	s1,32(sp)
80006110:	8fb0001c 	lw	s0,28(sp)
80006114:	03e00008 	jr	ra
80006118:	27bd0030 	addiu	sp,sp,48
8000611c:	0c000b7d 	jal	80002df4 <intr_disable>
80006120:	afa20010 	sw	v0,16(sp)
80006124:	8fa20010 	lw	v0,16(sp)
80006128:	00000000 	nop
8000612c:	8c430000 	lw	v1,0(v0)
80006130:	00000000 	nop
80006134:	24630001 	addiu	v1,v1,1
80006138:	ac430000 	sw	v1,0(v0)
8000613c:	0c000b77 	jal	80002ddc <intr_enable>
80006140:	00000000 	nop
80006144:	8fa20010 	lw	v0,16(sp)
80006148:	0800182a 	j	800060a8 <get_pte+0xc4>
8000614c:	3c03800e 	lui	v1,0x800e
80006150:	3c048001 	lui	a0,0x8001
80006154:	3c068001 	lui	a2,0x8001
80006158:	24845690 	addiu	a0,a0,22160
8000615c:	240500f1 	li	a1,241
80006160:	24c65518 	addiu	a2,a2,21784
80006164:	0c0009f2 	jal	800027c8 <__panic>
80006168:	00403821 	move	a3,v0
8000616c:	3c048001 	lui	a0,0x8001
80006170:	3c068001 	lui	a2,0x8001
80006174:	24845508 	addiu	a0,a0,21768
80006178:	24050069 	li	a1,105
8000617c:	24c65518 	addiu	a2,a2,21784
80006180:	0c0009f2 	jal	800027c8 <__panic>
80006184:	02603821 	move	a3,s3
80006188:	3c068001 	lui	a2,0x8001
8000618c:	24845690 	addiu	a0,a0,22160
80006190:	240500ee 	li	a1,238
80006194:	24c6553c 	addiu	a2,a2,21820
80006198:	0c0009f2 	jal	800027c8 <__panic>
8000619c:	02603821 	move	a3,s3

800061a0 <get_page>:
800061a0:	27bdffe8 	addiu	sp,sp,-24
800061a4:	afb00010 	sw	s0,16(sp)
800061a8:	00c08021 	move	s0,a2
800061ac:	afbf0014 	sw	ra,20(sp)
800061b0:	0c0017f9 	jal	80005fe4 <get_pte>
800061b4:	00003021 	move	a2,zero
800061b8:	12000002 	beqz	s0,800061c4 <get_page+0x24>
800061bc:	00000000 	nop
800061c0:	ae020000 	sw	v0,0(s0)
800061c4:	10400014 	beqz	v0,80006218 <get_page+0x78>
800061c8:	00000000 	nop
800061cc:	8c420000 	lw	v0,0(v0)
800061d0:	00000000 	nop
800061d4:	30430001 	andi	v1,v0,0x1
800061d8:	1060000f 	beqz	v1,80006218 <get_page+0x78>
800061dc:	3c038000 	lui	v1,0x8000
800061e0:	00431021 	addu	v0,v0,v1
800061e4:	3c03800d 	lui	v1,0x800d
800061e8:	8c637cfc 	lw	v1,31996(v1)
800061ec:	00021302 	srl	v0,v0,0xc
800061f0:	0043182b 	sltu	v1,v0,v1
800061f4:	1060000d 	beqz	v1,8000622c <get_page+0x8c>
800061f8:	3c03800e 	lui	v1,0x800e
800061fc:	8c63a9b4 	lw	v1,-22092(v1)
80006200:	8fbf0014 	lw	ra,20(sp)
80006204:	00021140 	sll	v0,v0,0x5
80006208:	00621021 	addu	v0,v1,v0
8000620c:	8fb00010 	lw	s0,16(sp)
80006210:	03e00008 	jr	ra
80006214:	27bd0018 	addiu	sp,sp,24
80006218:	8fbf0014 	lw	ra,20(sp)
8000621c:	00001021 	move	v0,zero
80006220:	8fb00010 	lw	s0,16(sp)
80006224:	03e00008 	jr	ra
80006228:	27bd0018 	addiu	sp,sp,24
8000622c:	0c004d2f 	jal	800134bc <pa2page.part.2>
80006230:	00000000 	nop

80006234 <page_remove>:
80006234:	27bdffe0 	addiu	sp,sp,-32
80006238:	00003021 	move	a2,zero
8000623c:	afbf001c 	sw	ra,28(sp)
80006240:	0c0017f9 	jal	80005fe4 <get_pte>
80006244:	afb00018 	sw	s0,24(sp)
80006248:	10400029 	beqz	v0,800062f0 <page_remove+0xbc>
8000624c:	00000000 	nop
80006250:	8c430000 	lw	v1,0(v0)
80006254:	00000000 	nop
80006258:	30640001 	andi	a0,v1,0x1
8000625c:	14800005 	bnez	a0,80006274 <page_remove+0x40>
80006260:	2404f000 	li	a0,-4096
80006264:	8fbf001c 	lw	ra,28(sp)
80006268:	8fb00018 	lw	s0,24(sp)
8000626c:	08001ea4 	j	80007a90 <tlb_invalidate_all>
80006270:	27bd0020 	addiu	sp,sp,32
80006274:	00641824 	and	v1,v1,a0
80006278:	3c048000 	lui	a0,0x8000
8000627c:	00641821 	addu	v1,v1,a0
80006280:	3c04800d 	lui	a0,0x800d
80006284:	8c847cfc 	lw	a0,31996(a0)
80006288:	00031b02 	srl	v1,v1,0xc
8000628c:	0064202b 	sltu	a0,v1,a0
80006290:	1080002c 	beqz	a0,80006344 <page_remove+0x110>
80006294:	3c04800e 	lui	a0,0x800e
80006298:	8c90a9b4 	lw	s0,-22092(a0)
8000629c:	00031940 	sll	v1,v1,0x5
800062a0:	02038021 	addu	s0,s0,v1
800062a4:	40036000 	mfc0	v1,c0_status
800062a8:	00000000 	nop
800062ac:	30630001 	andi	v1,v1,0x1
800062b0:	14600013 	bnez	v1,80006300 <page_remove+0xcc>
800062b4:	00000000 	nop
800062b8:	8e030000 	lw	v1,0(s0)
800062bc:	00000000 	nop
800062c0:	2463ffff 	addiu	v1,v1,-1
800062c4:	ae030000 	sw	v1,0(s0)
800062c8:	8e030000 	lw	v1,0(s0)
800062cc:	8e030000 	lw	v1,0(s0)
800062d0:	00000000 	nop
800062d4:	10600015 	beqz	v1,8000632c <page_remove+0xf8>
800062d8:	02002021 	move	a0,s0
800062dc:	ac400000 	sw	zero,0(v0)
800062e0:	8fbf001c 	lw	ra,28(sp)
800062e4:	8fb00018 	lw	s0,24(sp)
800062e8:	08001ea4 	j	80007a90 <tlb_invalidate_all>
800062ec:	27bd0020 	addiu	sp,sp,32
800062f0:	8fbf001c 	lw	ra,28(sp)
800062f4:	8fb00018 	lw	s0,24(sp)
800062f8:	03e00008 	jr	ra
800062fc:	27bd0020 	addiu	sp,sp,32
80006300:	0c000b7d 	jal	80002df4 <intr_disable>
80006304:	afa20010 	sw	v0,16(sp)
80006308:	8e030000 	lw	v1,0(s0)
8000630c:	00000000 	nop
80006310:	2463ffff 	addiu	v1,v1,-1
80006314:	ae030000 	sw	v1,0(s0)
80006318:	0c000b77 	jal	80002ddc <intr_enable>
8000631c:	00000000 	nop
80006320:	8fa20010 	lw	v0,16(sp)
80006324:	080018b2 	j	800062c8 <page_remove+0x94>
80006328:	00000000 	nop
8000632c:	24050001 	li	a1,1
80006330:	0c0017bc 	jal	80005ef0 <free_pages>
80006334:	afa20010 	sw	v0,16(sp)
80006338:	8fa20010 	lw	v0,16(sp)
8000633c:	080018b8 	j	800062e0 <page_remove+0xac>
80006340:	ac400000 	sw	zero,0(v0)
80006344:	0c004d2f 	jal	800134bc <pa2page.part.2>
80006348:	00000000 	nop

8000634c <page_insert>:
8000634c:	27bdffd0 	addiu	sp,sp,-48
80006350:	afb10014 	sw	s1,20(sp)
80006354:	00c08821 	move	s1,a2
80006358:	afb00010 	sw	s0,16(sp)
8000635c:	24060001 	li	a2,1
80006360:	00a08021 	move	s0,a1
80006364:	02202821 	move	a1,s1
80006368:	afb40020 	sw	s4,32(sp)
8000636c:	afb3001c 	sw	s3,28(sp)
80006370:	afb20018 	sw	s2,24(sp)
80006374:	afbf002c 	sw	ra,44(sp)
80006378:	afb60028 	sw	s6,40(sp)
8000637c:	afb50024 	sw	s5,36(sp)
80006380:	00809021 	move	s2,a0
80006384:	0c0017f9 	jal	80005fe4 <get_pte>
80006388:	00e09821 	move	s3,a3
8000638c:	10400070 	beqz	v0,80006550 <page_insert+0x204>
80006390:	0040a021 	move	s4,v0
80006394:	40026000 	mfc0	v0,c0_status
80006398:	00000000 	nop
8000639c:	30420001 	andi	v0,v0,0x1
800063a0:	14400023 	bnez	v0,80006430 <page_insert+0xe4>
800063a4:	00000000 	nop
800063a8:	8e020000 	lw	v0,0(s0)
800063ac:	00000000 	nop
800063b0:	24420001 	addiu	v0,v0,1
800063b4:	ae020000 	sw	v0,0(s0)
800063b8:	8e820000 	lw	v0,0(s4)
800063bc:	8e030000 	lw	v1,0(s0)
800063c0:	30430001 	andi	v1,v0,0x1
800063c4:	14600027 	bnez	v1,80006464 <page_insert+0x118>
800063c8:	2416f000 	li	s6,-4096
800063cc:	3c02800e 	lui	v0,0x800e
800063d0:	8c42a9b4 	lw	v0,-22092(v0)
800063d4:	00000000 	nop
800063d8:	02021023 	subu	v0,s0,v0
800063dc:	00021143 	sra	v0,v0,0x5
800063e0:	3c038000 	lui	v1,0x8000
800063e4:	00021300 	sll	v0,v0,0xc
800063e8:	00431021 	addu	v0,v0,v1
800063ec:	36730001 	ori	s3,s3,0x1
800063f0:	02629825 	or	s3,s3,v0
800063f4:	ae930000 	sw	s3,0(s4)
800063f8:	02402021 	move	a0,s2
800063fc:	0c001eb7 	jal	80007adc <tlb_invalidate>
80006400:	02202821 	move	a1,s1
80006404:	00001021 	move	v0,zero
80006408:	8fbf002c 	lw	ra,44(sp)
8000640c:	8fb60028 	lw	s6,40(sp)
80006410:	8fb50024 	lw	s5,36(sp)
80006414:	8fb40020 	lw	s4,32(sp)
80006418:	8fb3001c 	lw	s3,28(sp)
8000641c:	8fb20018 	lw	s2,24(sp)
80006420:	8fb10014 	lw	s1,20(sp)
80006424:	8fb00010 	lw	s0,16(sp)
80006428:	03e00008 	jr	ra
8000642c:	27bd0030 	addiu	sp,sp,48
80006430:	0c000b7d 	jal	80002df4 <intr_disable>
80006434:	00000000 	nop
80006438:	8e020000 	lw	v0,0(s0)
8000643c:	00000000 	nop
80006440:	24420001 	addiu	v0,v0,1
80006444:	ae020000 	sw	v0,0(s0)
80006448:	0c000b77 	jal	80002ddc <intr_enable>
8000644c:	00000000 	nop
80006450:	8e820000 	lw	v0,0(s4)
80006454:	8e030000 	lw	v1,0(s0)
80006458:	30430001 	andi	v1,v0,0x1
8000645c:	1060ffdb 	beqz	v1,800063cc <page_insert+0x80>
80006460:	2416f000 	li	s6,-4096
80006464:	0056b024 	and	s6,v0,s6
80006468:	3c038000 	lui	v1,0x8000
8000646c:	3c02800d 	lui	v0,0x800d
80006470:	02c3b021 	addu	s6,s6,v1
80006474:	8c427cfc 	lw	v0,31996(v0)
80006478:	0016b302 	srl	s6,s6,0xc
8000647c:	02c2102b 	sltu	v0,s6,v0
80006480:	10400041 	beqz	v0,80006588 <page_insert+0x23c>
80006484:	3c15800e 	lui	s5,0x800e
80006488:	8ea2a9b4 	lw	v0,-22092(s5)
8000648c:	0016b140 	sll	s6,s6,0x5
80006490:	0056b021 	addu	s6,v0,s6
80006494:	1216001e 	beq	s0,s6,80006510 <page_insert+0x1c4>
80006498:	00000000 	nop
8000649c:	40026000 	mfc0	v0,c0_status
800064a0:	00000000 	nop
800064a4:	30420001 	andi	v0,v0,0x1
800064a8:	1440000f 	bnez	v0,800064e8 <page_insert+0x19c>
800064ac:	00000000 	nop
800064b0:	8ec20000 	lw	v0,0(s6)
800064b4:	00000000 	nop
800064b8:	2442ffff 	addiu	v0,v0,-1
800064bc:	aec20000 	sw	v0,0(s6)
800064c0:	8ec20000 	lw	v0,0(s6)
800064c4:	8ec20000 	lw	v0,0(s6)
800064c8:	00000000 	nop
800064cc:	1040001c 	beqz	v0,80006540 <page_insert+0x1f4>
800064d0:	02c02021 	move	a0,s6
800064d4:	0c001ea4 	jal	80007a90 <tlb_invalidate_all>
800064d8:	ae800000 	sw	zero,0(s4)
800064dc:	8ea2a9b4 	lw	v0,-22092(s5)
800064e0:	080018f7 	j	800063dc <page_insert+0x90>
800064e4:	02021023 	subu	v0,s0,v0
800064e8:	0c000b7d 	jal	80002df4 <intr_disable>
800064ec:	00000000 	nop
800064f0:	8ec20000 	lw	v0,0(s6)
800064f4:	00000000 	nop
800064f8:	2442ffff 	addiu	v0,v0,-1
800064fc:	aec20000 	sw	v0,0(s6)
80006500:	0c000b77 	jal	80002ddc <intr_enable>
80006504:	00000000 	nop
80006508:	08001930 	j	800064c0 <page_insert+0x174>
8000650c:	00000000 	nop
80006510:	40036000 	mfc0	v1,c0_status
80006514:	00000000 	nop
80006518:	30630001 	andi	v1,v1,0x1
8000651c:	1460000e 	bnez	v1,80006558 <page_insert+0x20c>
80006520:	00000000 	nop
80006524:	8e030000 	lw	v1,0(s0)
80006528:	00000000 	nop
8000652c:	2463ffff 	addiu	v1,v1,-1
80006530:	ae030000 	sw	v1,0(s0)
80006534:	8e030000 	lw	v1,0(s0)
80006538:	080018f7 	j	800063dc <page_insert+0x90>
8000653c:	02021023 	subu	v0,s0,v0
80006540:	0c0017bc 	jal	80005ef0 <free_pages>
80006544:	24050001 	li	a1,1
80006548:	08001935 	j	800064d4 <page_insert+0x188>
8000654c:	00000000 	nop
80006550:	08001902 	j	80006408 <page_insert+0xbc>
80006554:	2402fffc 	li	v0,-4
80006558:	0c000b7d 	jal	80002df4 <intr_disable>
8000655c:	00000000 	nop
80006560:	8e020000 	lw	v0,0(s0)
80006564:	00000000 	nop
80006568:	2442ffff 	addiu	v0,v0,-1
8000656c:	ae020000 	sw	v0,0(s0)
80006570:	0c000b77 	jal	80002ddc <intr_enable>
80006574:	00000000 	nop
80006578:	8ea2a9b4 	lw	v0,-22092(s5)
8000657c:	8e030000 	lw	v1,0(s0)
80006580:	080018f7 	j	800063dc <page_insert+0x90>
80006584:	02021023 	subu	v0,s0,v0
80006588:	0c004d2f 	jal	800134bc <pa2page.part.2>
8000658c:	00000000 	nop

80006590 <pgdir_alloc_page>:
80006590:	27bdffd8 	addiu	sp,sp,-40
80006594:	afb20020 	sw	s2,32(sp)
80006598:	00809021 	move	s2,a0
8000659c:	24040001 	li	a0,1
800065a0:	afb1001c 	sw	s1,28(sp)
800065a4:	afb00018 	sw	s0,24(sp)
800065a8:	afbf0024 	sw	ra,36(sp)
800065ac:	00a08821 	move	s1,a1
800065b0:	0c00179c 	jal	80005e70 <alloc_pages>
800065b4:	afa60010 	sw	a2,16(sp)
800065b8:	8fa70010 	lw	a3,16(sp)
800065bc:	1040000b 	beqz	v0,800065ec <pgdir_alloc_page+0x5c>
800065c0:	00408021 	move	s0,v0
800065c4:	02402021 	move	a0,s2
800065c8:	00402821 	move	a1,v0
800065cc:	0c0018d3 	jal	8000634c <page_insert>
800065d0:	02203021 	move	a2,s1
800065d4:	1440000c 	bnez	v0,80006608 <pgdir_alloc_page+0x78>
800065d8:	3c02800d 	lui	v0,0x800d
800065dc:	8c427d08 	lw	v0,32008(v0)
800065e0:	00000000 	nop
800065e4:	1440000d 	bnez	v0,8000661c <pgdir_alloc_page+0x8c>
800065e8:	3c048001 	lui	a0,0x8001
800065ec:	8fbf0024 	lw	ra,36(sp)
800065f0:	02001021 	move	v0,s0
800065f4:	8fb20020 	lw	s2,32(sp)
800065f8:	8fb1001c 	lw	s1,28(sp)
800065fc:	8fb00018 	lw	s0,24(sp)
80006600:	03e00008 	jr	ra
80006604:	27bd0028 	addiu	sp,sp,40
80006608:	02002021 	move	a0,s0
8000660c:	0c0017bc 	jal	80005ef0 <free_pages>
80006610:	24050001 	li	a1,1
80006614:	0800197b 	j	800065ec <pgdir_alloc_page+0x5c>
80006618:	00008021 	move	s0,zero
8000661c:	3c068001 	lui	a2,0x8001
80006620:	24845690 	addiu	a0,a0,22160
80006624:	2405014c 	li	a1,332
80006628:	0c0009f2 	jal	800027c8 <__panic>
8000662c:	24c656a0 	addiu	a2,a2,22176

80006630 <print_pgdir>:
80006630:	27bdffa8 	addiu	sp,sp,-88
80006634:	3c048001 	lui	a0,0x8001
80006638:	afb7004c 	sw	s7,76(sp)
8000663c:	248456b8 	addiu	a0,a0,22200
80006640:	3c17800d 	lui	s7,0x800d
80006644:	afbe0050 	sw	s8,80(sp)
80006648:	afb00030 	sw	s0,48(sp)
8000664c:	afbf0054 	sw	ra,84(sp)
80006650:	afb60048 	sw	s6,72(sp)
80006654:	afb50044 	sw	s5,68(sp)
80006658:	afb40040 	sw	s4,64(sp)
8000665c:	afb3003c 	sw	s3,60(sp)
80006660:	afb20038 	sw	s2,56(sp)
80006664:	afb10034 	sw	s1,52(sp)
80006668:	afa00018 	sw	zero,24(sp)
8000666c:	0c000727 	jal	80001c9c <kprintf>
80006670:	3c1e800d 	lui	s8,0x800d
80006674:	8fa40018 	lw	a0,24(sp)
80006678:	8ee57cf4 	lw	a1,31988(s7)
8000667c:	27d07d00 	addiu	s0,s8,32000
80006680:	2c820400 	sltiu	v0,a0,1024
80006684:	14400010 	bnez	v0,800066c8 <print_pgdir+0x98>
80006688:	27a6001c 	addiu	a2,sp,28
8000668c:	3c048001 	lui	a0,0x8001
80006690:	0c000727 	jal	80001c9c <kprintf>
80006694:	24845708 	addiu	a0,a0,22280
80006698:	8fbf0054 	lw	ra,84(sp)
8000669c:	8fbe0050 	lw	s8,80(sp)
800066a0:	8fb7004c 	lw	s7,76(sp)
800066a4:	8fb60048 	lw	s6,72(sp)
800066a8:	8fb50044 	lw	s5,68(sp)
800066ac:	8fb40040 	lw	s4,64(sp)
800066b0:	8fb3003c 	lw	s3,60(sp)
800066b4:	8fb20038 	lw	s2,56(sp)
800066b8:	8fb10034 	lw	s1,52(sp)
800066bc:	8fb00030 	lw	s0,48(sp)
800066c0:	03e00008 	jr	ra
800066c4:	27bd0058 	addiu	sp,sp,88
800066c8:	0c001760 	jal	80005d80 <get_pgtable_items.isra.0.part.1.constprop.5>
800066cc:	27a70018 	addiu	a3,sp,24
800066d0:	1040ffee 	beqz	v0,8000668c <print_pgdir+0x5c>
800066d4:	00408821 	move	s1,v0
800066d8:	3c028001 	lui	v0,0x8001
800066dc:	0c000727 	jal	80001c9c <kprintf>
800066e0:	244456ec 	addiu	a0,v0,22252
800066e4:	8fa2001c 	lw	v0,28(sp)
800066e8:	8fa40018 	lw	a0,24(sp)
800066ec:	3c138001 	lui	s3,0x8001
800066f0:	0c000734 	jal	80001cd0 <printhex>
800066f4:	00822023 	subu	a0,a0,v0
800066f8:	3c048001 	lui	a0,0x8001
800066fc:	0c000727 	jal	80001c9c <kprintf>
80006700:	248456f4 	addiu	a0,a0,22260
80006704:	8fa4001c 	lw	a0,28(sp)
80006708:	0c000734 	jal	80001cd0 <printhex>
8000670c:	00042580 	sll	a0,a0,0x16
80006710:	3c038001 	lui	v1,0x8001
80006714:	0c000727 	jal	80001c9c <kprintf>
80006718:	246456f8 	addiu	a0,v1,22264
8000671c:	8fa40018 	lw	a0,24(sp)
80006720:	0c000734 	jal	80001cd0 <printhex>
80006724:	00042580 	sll	a0,a0,0x16
80006728:	0c000727 	jal	80001c9c <kprintf>
8000672c:	26644bf4 	addiu	a0,s3,19444
80006730:	8fa2001c 	lw	v0,28(sp)
80006734:	8fa40018 	lw	a0,24(sp)
80006738:	00000000 	nop
8000673c:	00822023 	subu	a0,a0,v0
80006740:	0c000734 	jal	80001cd0 <printhex>
80006744:	00042580 	sll	a0,a0,0x16
80006748:	0c000727 	jal	80001c9c <kprintf>
8000674c:	26644bf4 	addiu	a0,s3,19444
80006750:	32220004 	andi	v0,s1,0x4
80006754:	10400023 	beqz	v0,800067e4 <print_pgdir+0x1b4>
80006758:	2402002d 	li	v0,45
8000675c:	24020075 	li	v0,117
80006760:	a3c27d00 	sb	v0,32000(s8)
80006764:	32310002 	andi	s1,s1,0x2
80006768:	24020072 	li	v0,114
8000676c:	16200022 	bnez	s1,800067f8 <print_pgdir+0x1c8>
80006770:	a2020001 	sb	v0,1(s0)
80006774:	2402002d 	li	v0,45
80006778:	02002021 	move	a0,s0
8000677c:	3c168001 	lui	s6,0x8001
80006780:	a2020002 	sb	v0,2(s0)
80006784:	0c000727 	jal	80001c9c <kprintf>
80006788:	a2000003 	sb	zero,3(s0)
8000678c:	0c000727 	jal	80001c9c <kprintf>
80006790:	26c44480 	addiu	a0,s6,17536
80006794:	8fa2001c 	lw	v0,28(sp)
80006798:	8ee37cf4 	lw	v1,31988(s7)
8000679c:	00021080 	sll	v0,v0,0x2
800067a0:	00621021 	addu	v0,v1,v0
800067a4:	afa00010 	sw	zero,16(sp)
800067a8:	8c450000 	lw	a1,0(v0)
800067ac:	2402f000 	li	v0,-4096
800067b0:	00002021 	move	a0,zero
800067b4:	00a22824 	and	a1,a1,v0
800067b8:	27a60014 	addiu	a2,sp,20
800067bc:	0c001760 	jal	80005d80 <get_pgtable_items.isra.0.part.1.constprop.5>
800067c0:	27a70010 	addiu	a3,sp,16
800067c4:	8fa4001c 	lw	a0,28(sp)
800067c8:	8fa50018 	lw	a1,24(sp)
800067cc:	00000000 	nop
800067d0:	1485000b 	bne	a0,a1,80006800 <print_pgdir+0x1d0>
800067d4:	3c03800d 	lui	v1,0x800d
800067d8:	8c657cf4 	lw	a1,31988(v1)
800067dc:	080019a1 	j	80006684 <print_pgdir+0x54>
800067e0:	2c820400 	sltiu	v0,a0,1024
800067e4:	a3c27d00 	sb	v0,32000(s8)
800067e8:	32310002 	andi	s1,s1,0x2
800067ec:	24020072 	li	v0,114
800067f0:	1220ffe0 	beqz	s1,80006774 <print_pgdir+0x144>
800067f4:	a2020001 	sb	v0,1(s0)
800067f8:	080019de 	j	80006778 <print_pgdir+0x148>
800067fc:	24020077 	li	v0,119
80006800:	8c657cf4 	lw	a1,31988(v1)
80006804:	00408821 	move	s1,v0
80006808:	00803021 	move	a2,a0
8000680c:	0000a021 	move	s4,zero
80006810:	0000a821 	move	s5,zero
80006814:	00009021 	move	s2,zero
80006818:	3c03003f 	lui	v1,0x3f
8000681c:	3463ffff 	ori	v1,v1,0xffff
80006820:	02431821 	addu	v1,s2,v1
80006824:	afa00010 	sw	zero,16(sp)
80006828:	afa00014 	sw	zero,20(sp)
8000682c:	00002021 	move	a0,zero
80006830:	afa30024 	sw	v1,36(sp)
80006834:	00d21021 	addu	v0,a2,s2
80006838:	00021080 	sll	v0,v0,0x2
8000683c:	00a21021 	addu	v0,a1,v0
80006840:	2c830400 	sltiu	v1,a0,1024
80006844:	8c420000 	lw	v0,0(v0)
80006848:	14600009 	bnez	v1,80006870 <print_pgdir+0x240>
8000684c:	2403f000 	li	v1,-4096
80006850:	8fa40018 	lw	a0,24(sp)
80006854:	26520001 	addiu	s2,s2,1
80006858:	00861023 	subu	v0,a0,a2
8000685c:	0242102b 	sltu	v0,s2,v0
80006860:	1040ff88 	beqz	v0,80006684 <print_pgdir+0x54>
80006864:	2c820400 	sltiu	v0,a0,1024
80006868:	08001a07 	j	8000681c <print_pgdir+0x1ec>
8000686c:	3c03003f 	lui	v1,0x3f
80006870:	00432824 	and	a1,v0,v1
80006874:	27a60014 	addiu	a2,sp,20
80006878:	0c001760 	jal	80005d80 <get_pgtable_items.isra.0.part.1.constprop.5>
8000687c:	27a70010 	addiu	a3,sp,16
80006880:	10400057 	beqz	v0,800069e0 <print_pgdir+0x3b0>
80006884:	00401821 	move	v1,v0
80006888:	8fa40010 	lw	a0,16(sp)
8000688c:	1471000a 	bne	v1,s1,800068b8 <print_pgdir+0x288>
80006890:	00000000 	nop
80006894:	8fa20018 	lw	v0,24(sp)
80006898:	8fa6001c 	lw	a2,28(sp)
8000689c:	2442ffff 	addiu	v0,v0,-1
800068a0:	00461023 	subu	v0,v0,a2
800068a4:	10520004 	beq	v0,s2,800068b8 <print_pgdir+0x288>
800068a8:	00000000 	nop
800068ac:	8ee57cf4 	lw	a1,31988(s7)
800068b0:	08001a0d 	j	80006834 <print_pgdir+0x204>
800068b4:	00608821 	move	s1,v1
800068b8:	8fa50024 	lw	a1,36(sp)
800068bc:	8fa20014 	lw	v0,20(sp)
800068c0:	24840400 	addiu	a0,a0,1024
800068c4:	00822023 	subu	a0,a0,v0
800068c8:	00b51023 	subu	v0,a1,s5
800068cc:	00942023 	subu	a0,a0,s4
800068d0:	00021280 	sll	v0,v0,0xa
800068d4:	00821021 	addu	v0,a0,v0
800068d8:	3c048001 	lui	a0,0x8001
800068dc:	248456fc 	addiu	a0,a0,22268
800068e0:	afa30028 	sw	v1,40(sp)
800068e4:	0c000727 	jal	80001c9c <kprintf>
800068e8:	afa20020 	sw	v0,32(sp)
800068ec:	8fa40020 	lw	a0,32(sp)
800068f0:	0c000734 	jal	80001cd0 <printhex>
800068f4:	00000000 	nop
800068f8:	3c048001 	lui	a0,0x8001
800068fc:	0c000727 	jal	80001c9c <kprintf>
80006900:	248456f4 	addiu	a0,a0,22260
80006904:	8fa2001c 	lw	v0,28(sp)
80006908:	00000000 	nop
8000690c:	02a2a821 	addu	s5,s5,v0
80006910:	0015aa80 	sll	s5,s5,0xa
80006914:	02b4a021 	addu	s4,s5,s4
80006918:	0c000734 	jal	80001cd0 <printhex>
8000691c:	00142300 	sll	a0,s4,0xc
80006920:	3c028001 	lui	v0,0x8001
80006924:	0c000727 	jal	80001c9c <kprintf>
80006928:	244456f8 	addiu	a0,v0,22264
8000692c:	8fa4001c 	lw	a0,28(sp)
80006930:	8fa20010 	lw	v0,16(sp)
80006934:	02442021 	addu	a0,s2,a0
80006938:	00042280 	sll	a0,a0,0xa
8000693c:	00822021 	addu	a0,a0,v0
80006940:	0c000734 	jal	80001cd0 <printhex>
80006944:	00042300 	sll	a0,a0,0xc
80006948:	0c000727 	jal	80001c9c <kprintf>
8000694c:	26644bf4 	addiu	a0,s3,19444
80006950:	8fa50020 	lw	a1,32(sp)
80006954:	0c000734 	jal	80001cd0 <printhex>
80006958:	00052300 	sll	a0,a1,0xc
8000695c:	0c000727 	jal	80001c9c <kprintf>
80006960:	26644bf4 	addiu	a0,s3,19444
80006964:	32220004 	andi	v0,s1,0x4
80006968:	8fa30028 	lw	v1,40(sp)
8000696c:	10400015 	beqz	v0,800069c4 <print_pgdir+0x394>
80006970:	2402002d 	li	v0,45
80006974:	24020075 	li	v0,117
80006978:	a3c27d00 	sb	v0,32000(s8)
8000697c:	32310002 	andi	s1,s1,0x2
80006980:	24020072 	li	v0,114
80006984:	12200014 	beqz	s1,800069d8 <print_pgdir+0x3a8>
80006988:	a2020001 	sb	v0,1(s0)
8000698c:	24020077 	li	v0,119
80006990:	02002021 	move	a0,s0
80006994:	afa30028 	sw	v1,40(sp)
80006998:	a2020002 	sb	v0,2(s0)
8000699c:	0c000727 	jal	80001c9c <kprintf>
800069a0:	a2000003 	sb	zero,3(s0)
800069a4:	0c000727 	jal	80001c9c <kprintf>
800069a8:	26c44480 	addiu	a0,s6,17536
800069ac:	8fb40010 	lw	s4,16(sp)
800069b0:	8fa6001c 	lw	a2,28(sp)
800069b4:	02802021 	move	a0,s4
800069b8:	8fa30028 	lw	v1,40(sp)
800069bc:	08001a2b 	j	800068ac <print_pgdir+0x27c>
800069c0:	0240a821 	move	s5,s2
800069c4:	a3c27d00 	sb	v0,32000(s8)
800069c8:	32310002 	andi	s1,s1,0x2
800069cc:	24020072 	li	v0,114
800069d0:	1620ffee 	bnez	s1,8000698c <print_pgdir+0x35c>
800069d4:	a2020001 	sb	v0,1(s0)
800069d8:	08001a64 	j	80006990 <print_pgdir+0x360>
800069dc:	2402002d 	li	v0,45
800069e0:	8fa6001c 	lw	a2,28(sp)
800069e4:	8ee57cf4 	lw	a1,31988(s7)
800069e8:	08001a14 	j	80006850 <print_pgdir+0x220>
800069ec:	00000000 	nop

800069f0 <pmm_init>:
800069f0:	27bdffc8 	addiu	sp,sp,-56
800069f4:	3c048001 	lui	a0,0x8001
800069f8:	3c028001 	lui	v0,0x8001
800069fc:	afb30020 	sw	s3,32(sp)
80006a00:	2484573c 	addiu	a0,a0,22332
80006a04:	3c13800e 	lui	s3,0x800e
80006a08:	24423f9c 	addiu	v0,v0,16284
80006a0c:	afbf0034 	sw	ra,52(sp)
80006a10:	afb40024 	sw	s4,36(sp)
80006a14:	afb2001c 	sw	s2,28(sp)
80006a18:	afb10018 	sw	s1,24(sp)
80006a1c:	afb00014 	sw	s0,20(sp)
80006a20:	afb70030 	sw	s7,48(sp)
80006a24:	afb6002c 	sw	s6,44(sp)
80006a28:	afb50028 	sw	s5,40(sp)
80006a2c:	0c000727 	jal	80001c9c <kprintf>
80006a30:	ae62a9ac 	sw	v0,-22100(s3)
80006a34:	8e62a9ac 	lw	v0,-22100(s3)
80006a38:	3c148001 	lui	s4,0x8001
80006a3c:	8c440000 	lw	a0,0(v0)
80006a40:	0c000727 	jal	80001c9c <kprintf>
80006a44:	3c12800e 	lui	s2,0x800e
80006a48:	0c000727 	jal	80001c9c <kprintf>
80006a4c:	26844480 	addiu	a0,s4,17536
80006a50:	8e62a9ac 	lw	v0,-22100(s3)
80006a54:	3c10800d 	lui	s0,0x800d
80006a58:	8c420004 	lw	v0,4(v0)
80006a5c:	00000000 	nop
80006a60:	0040f809 	jalr	v0
80006a64:	3c11800e 	lui	s1,0x800e
80006a68:	3c048001 	lui	a0,0x8001
80006a6c:	0c000727 	jal	80001c9c <kprintf>
80006a70:	24845750 	addiu	a0,a0,22352
80006a74:	3c048001 	lui	a0,0x8001
80006a78:	0c000727 	jal	80001c9c <kprintf>
80006a7c:	24845760 	addiu	a0,a0,22368
80006a80:	0c000734 	jal	80001cd0 <printhex>
80006a84:	3c048000 	lui	a0,0x8000
80006a88:	3c048001 	lui	a0,0x8001
80006a8c:	0c000727 	jal	80001c9c <kprintf>
80006a90:	24845768 	addiu	a0,a0,22376
80006a94:	3c04807f 	lui	a0,0x807f
80006a98:	0c000734 	jal	80001cd0 <printhex>
80006a9c:	3484fff0 	ori	a0,a0,0xfff0
80006aa0:	3c048001 	lui	a0,0x8001
80006aa4:	0c000727 	jal	80001c9c <kprintf>
80006aa8:	2484576c 	addiu	a0,a0,22380
80006aac:	2645a9d0 	addiu	a1,s2,-22064
80006ab0:	3c048001 	lui	a0,0x8001
80006ab4:	2652a9d0 	addiu	s2,s2,-22064
80006ab8:	240207ff 	li	v0,2047
80006abc:	24845770 	addiu	a0,a0,22384
80006ac0:	26520fff 	addiu	s2,s2,4095
80006ac4:	ae027cfc 	sw	v0,31996(s0)
80006ac8:	0c000727 	jal	80001c9c <kprintf>
80006acc:	00129302 	srl	s2,s2,0xc
80006ad0:	8e027cfc 	lw	v0,31996(s0)
80006ad4:	00129300 	sll	s2,s2,0xc
80006ad8:	10400021 	beqz	v0,80006b60 <pmm_init+0x170>
80006adc:	ae32a9b4 	sw	s2,-22092(s1)
80006ae0:	0000b021 	move	s6,zero
80006ae4:	08001ac4 	j	80006b10 <pmm_init+0x120>
80006ae8:	0000a821 	move	s5,zero
80006aec:	8ec20004 	lw	v0,4(s6)
80006af0:	26b50001 	addiu	s5,s5,1
80006af4:	34420001 	ori	v0,v0,0x1
80006af8:	aec20004 	sw	v0,4(s6)
80006afc:	8e027cfc 	lw	v0,31996(s0)
80006b00:	00000000 	nop
80006b04:	02a2182b 	sltu	v1,s5,v0
80006b08:	10600015 	beqz	v1,80006b60 <pmm_init+0x170>
80006b0c:	02a0b021 	move	s6,s5
80006b10:	0016b140 	sll	s6,s6,0x5
80006b14:	0256b021 	addu	s6,s2,s6
80006b18:	40026000 	mfc0	v0,c0_status
80006b1c:	00000000 	nop
80006b20:	30420001 	andi	v0,v0,0x1
80006b24:	1040fff1 	beqz	v0,80006aec <pmm_init+0xfc>
80006b28:	00000000 	nop
80006b2c:	0c000b7d 	jal	80002df4 <intr_disable>
80006b30:	00000000 	nop
80006b34:	8ec20004 	lw	v0,4(s6)
80006b38:	26b50001 	addiu	s5,s5,1
80006b3c:	34420001 	ori	v0,v0,0x1
80006b40:	aec20004 	sw	v0,4(s6)
80006b44:	0c000b77 	jal	80002ddc <intr_enable>
80006b48:	02a0b021 	move	s6,s5
80006b4c:	8e027cfc 	lw	v0,31996(s0)
80006b50:	8e32a9b4 	lw	s2,-22092(s1)
80006b54:	02a2182b 	sltu	v1,s5,v0
80006b58:	1460ffed 	bnez	v1,80006b10 <pmm_init+0x120>
80006b5c:	00000000 	nop
80006b60:	00021140 	sll	v0,v0,0x5
80006b64:	02429021 	addu	s2,s2,v0
80006b68:	06410191 	bgez	s2,800071b0 <pmm_init+0x7c0>
80006b6c:	3c048001 	lui	a0,0x8001
80006b70:	0c000727 	jal	80001c9c <kprintf>
80006b74:	2484577c 	addiu	a0,a0,22396
80006b78:	0c000734 	jal	80001cd0 <printhex>
80006b7c:	02402021 	move	a0,s2
80006b80:	0c000727 	jal	80001c9c <kprintf>
80006b84:	26844480 	addiu	a0,s4,17536
80006b88:	26420fff 	addiu	v0,s2,4095
80006b8c:	00021302 	srl	v0,v0,0xc
80006b90:	3c12807f 	lui	s2,0x807f
80006b94:	00021300 	sll	v0,v0,0xc
80006b98:	3652f000 	ori	s2,s2,0xf000
80006b9c:	0052182b 	sltu	v1,v0,s2
80006ba0:	1060017d 	beqz	v1,80007198 <pmm_init+0x7a8>
80006ba4:	3c158001 	lui	s5,0x8001
80006ba8:	3c168000 	lui	s6,0x8000
80006bac:	00561821 	addu	v1,v0,s6
80006bb0:	8e047cfc 	lw	a0,31996(s0)
80006bb4:	00031b02 	srl	v1,v1,0xc
80006bb8:	0064202b 	sltu	a0,v1,a0
80006bbc:	10800174 	beqz	a0,80007190 <pmm_init+0x7a0>
80006bc0:	3c14800d 	lui	s4,0x800d
80006bc4:	8e65a9ac 	lw	a1,-22100(s3)
80006bc8:	02429023 	subu	s2,s2,v0
80006bcc:	8e24a9b4 	lw	a0,-22092(s1)
80006bd0:	00031940 	sll	v1,v1,0x5
80006bd4:	8ca20008 	lw	v0,8(a1)
80006bd8:	00129302 	srl	s2,s2,0xc
80006bdc:	00832021 	addu	a0,a0,v1
80006be0:	0040f809 	jalr	v0
80006be4:	02402821 	move	a1,s2
80006be8:	3c048001 	lui	a0,0x8001
80006bec:	0c000727 	jal	80001c9c <kprintf>
80006bf0:	248457b0 	addiu	a0,a0,22448
80006bf4:	0c000734 	jal	80001cd0 <printhex>
80006bf8:	02402021 	move	a0,s2
80006bfc:	0c000727 	jal	80001c9c <kprintf>
80006c00:	26a44480 	addiu	a0,s5,17536
80006c04:	3c048001 	lui	a0,0x8001
80006c08:	0c000727 	jal	80001c9c <kprintf>
80006c0c:	248457c0 	addiu	a0,a0,22464
80006c10:	0c000734 	jal	80001cd0 <printhex>
80006c14:	24040020 	li	a0,32
80006c18:	0c000727 	jal	80001c9c <kprintf>
80006c1c:	26a44480 	addiu	a0,s5,17536
80006c20:	8e62a9ac 	lw	v0,-22100(s3)
80006c24:	00000000 	nop
80006c28:	8c420018 	lw	v0,24(v0)
80006c2c:	00000000 	nop
80006c30:	0040f809 	jalr	v0
80006c34:	00000000 	nop
80006c38:	3c048001 	lui	a0,0x8001
80006c3c:	0c000727 	jal	80001c9c <kprintf>
80006c40:	248457c4 	addiu	a0,a0,22468
80006c44:	0c00179c 	jal	80005e70 <alloc_pages>
80006c48:	24040001 	li	a0,1
80006c4c:	1040014a 	beqz	v0,80007178 <pmm_init+0x788>
80006c50:	3c03800e 	lui	v1,0x800e
80006c54:	8c64a9b4 	lw	a0,-22092(v1)
80006c58:	8e837cfc 	lw	v1,31996(s4)
80006c5c:	00441023 	subu	v0,v0,a0
80006c60:	00021143 	sra	v0,v0,0x5
80006c64:	00021300 	sll	v0,v0,0xc
80006c68:	00022302 	srl	a0,v0,0xc
80006c6c:	0083182b 	sltu	v1,a0,v1
80006c70:	1060013a 	beqz	v1,8000715c <pmm_init+0x76c>
80006c74:	0056b021 	addu	s6,v0,s6
80006c78:	3c13800d 	lui	s3,0x800d
80006c7c:	02c02021 	move	a0,s6
80006c80:	00002821 	move	a1,zero
80006c84:	24061000 	li	a2,4096
80006c88:	0c00083d 	jal	800020f4 <memset>
80006c8c:	ae767cf8 	sw	s6,31992(s3)
80006c90:	8e677cf8 	lw	a3,31992(s3)
80006c94:	00000000 	nop
80006c98:	04e1012a 	bgez	a3,80007144 <pmm_init+0x754>
80006c9c:	3c03800e 	lui	v1,0x800e
80006ca0:	8e827cfc 	lw	v0,31996(s4)
80006ca4:	ac67a9b0 	sw	a3,-22096(v1)
80006ca8:	2c420800 	sltiu	v0,v0,2048
80006cac:	3c03800d 	lui	v1,0x800d
80006cb0:	1040011e 	beqz	v0,8000712c <pmm_init+0x73c>
80006cb4:	ac677cf4 	sw	a3,31988(v1)
80006cb8:	30e20fff 	andi	v0,a3,0xfff
80006cbc:	14400115 	bnez	v0,80007114 <pmm_init+0x724>
80006cc0:	00e02021 	move	a0,a3
80006cc4:	00002821 	move	a1,zero
80006cc8:	0c001868 	jal	800061a0 <get_page>
80006ccc:	00003021 	move	a2,zero
80006cd0:	144001ed 	bnez	v0,80007488 <pmm_init+0xa98>
80006cd4:	3c048001 	lui	a0,0x8001
80006cd8:	0c00179c 	jal	80005e70 <alloc_pages>
80006cdc:	24040001 	li	a0,1
80006ce0:	8e647cf8 	lw	a0,31992(s3)
80006ce4:	00402821 	move	a1,v0
80006ce8:	00003021 	move	a2,zero
80006cec:	00003821 	move	a3,zero
80006cf0:	0c0018d3 	jal	8000634c <page_insert>
80006cf4:	00409021 	move	s2,v0
80006cf8:	144001dd 	bnez	v0,80007470 <pmm_init+0xa80>
80006cfc:	00002821 	move	a1,zero
80006d00:	8e647cf8 	lw	a0,31992(s3)
80006d04:	0c0017f9 	jal	80005fe4 <get_pte>
80006d08:	00003021 	move	a2,zero
80006d0c:	104001d2 	beqz	v0,80007458 <pmm_init+0xa68>
80006d10:	3c038000 	lui	v1,0x8000
80006d14:	8c440000 	lw	a0,0(v0)
80006d18:	00000000 	nop
80006d1c:	00832021 	addu	a0,a0,v1
80006d20:	8e027cfc 	lw	v0,31996(s0)
80006d24:	00042302 	srl	a0,a0,0xc
80006d28:	0082282b 	sltu	a1,a0,v0
80006d2c:	10a00118 	beqz	a1,80007190 <pmm_init+0x7a0>
80006d30:	00000000 	nop
80006d34:	8e25a9b4 	lw	a1,-22092(s1)
80006d38:	00042140 	sll	a0,a0,0x5
80006d3c:	00a42021 	addu	a0,a1,a0
80006d40:	164401c0 	bne	s2,a0,80007444 <pmm_init+0xa54>
80006d44:	3c048001 	lui	a0,0x8001
80006d48:	8e450000 	lw	a1,0(s2)
80006d4c:	24040001 	li	a0,1
80006d50:	14a401b6 	bne	a1,a0,8000742c <pmm_init+0xa3c>
80006d54:	2405f000 	li	a1,-4096
80006d58:	8e647cf8 	lw	a0,31992(s3)
80006d5c:	00000000 	nop
80006d60:	8c940000 	lw	s4,0(a0)
80006d64:	00000000 	nop
80006d68:	0285a024 	and	s4,s4,a1
80006d6c:	02831821 	addu	v1,s4,v1
80006d70:	00031b02 	srl	v1,v1,0xc
80006d74:	0062102b 	sltu	v0,v1,v0
80006d78:	104001a5 	beqz	v0,80007410 <pmm_init+0xa20>
80006d7c:	24051000 	li	a1,4096
80006d80:	0c0017f9 	jal	80005fe4 <get_pte>
80006d84:	00003021 	move	a2,zero
80006d88:	26940004 	addiu	s4,s4,4
80006d8c:	1454019b 	bne	v0,s4,800073fc <pmm_init+0xa0c>
80006d90:	3c048001 	lui	a0,0x8001
80006d94:	0c00179c 	jal	80005e70 <alloc_pages>
80006d98:	24040001 	li	a0,1
80006d9c:	8e647cf8 	lw	a0,31992(s3)
80006da0:	00402821 	move	a1,v0
80006da4:	24061000 	li	a2,4096
80006da8:	24070006 	li	a3,6
80006dac:	0c0018d3 	jal	8000634c <page_insert>
80006db0:	0040a021 	move	s4,v0
80006db4:	1440018b 	bnez	v0,800073e4 <pmm_init+0x9f4>
80006db8:	24051000 	li	a1,4096
80006dbc:	8e647cf8 	lw	a0,31992(s3)
80006dc0:	0c0017f9 	jal	80005fe4 <get_pte>
80006dc4:	00003021 	move	a2,zero
80006dc8:	10400181 	beqz	v0,800073d0 <pmm_init+0x9e0>
80006dcc:	3c048001 	lui	a0,0x8001
80006dd0:	8c420000 	lw	v0,0(v0)
80006dd4:	00000000 	nop
80006dd8:	30430004 	andi	v1,v0,0x4
80006ddc:	10600177 	beqz	v1,800073bc <pmm_init+0x9cc>
80006de0:	30420002 	andi	v0,v0,0x2
80006de4:	10400171 	beqz	v0,800073ac <pmm_init+0x9bc>
80006de8:	24845690 	addiu	a0,a0,22160
80006dec:	8e647cf8 	lw	a0,31992(s3)
80006df0:	00000000 	nop
80006df4:	8c820000 	lw	v0,0(a0)
80006df8:	00000000 	nop
80006dfc:	30420004 	andi	v0,v0,0x4
80006e00:	10400164 	beqz	v0,80007394 <pmm_init+0x9a4>
80006e04:	3c17800d 	lui	s7,0x800d
80006e08:	8e960000 	lw	s6,0(s4)
80006e0c:	24020001 	li	v0,1
80006e10:	16c2015a 	bne	s6,v0,8000737c <pmm_init+0x98c>
80006e14:	02402821 	move	a1,s2
80006e18:	24061000 	li	a2,4096
80006e1c:	0c0018d3 	jal	8000634c <page_insert>
80006e20:	00003821 	move	a3,zero
80006e24:	14400150 	bnez	v0,80007368 <pmm_init+0x978>
80006e28:	3c048001 	lui	a0,0x8001
80006e2c:	8e430000 	lw	v1,0(s2)
80006e30:	24020002 	li	v0,2
80006e34:	14620148 	bne	v1,v0,80007358 <pmm_init+0x968>
80006e38:	3c068001 	lui	a2,0x8001
80006e3c:	8e820000 	lw	v0,0(s4)
80006e40:	00000000 	nop
80006e44:	1440013f 	bnez	v0,80007344 <pmm_init+0x954>
80006e48:	24051000 	li	a1,4096
80006e4c:	8ee47cf8 	lw	a0,31992(s7)
80006e50:	0c0017f9 	jal	80005fe4 <get_pte>
80006e54:	00003021 	move	a2,zero
80006e58:	10400134 	beqz	v0,8000732c <pmm_init+0x93c>
80006e5c:	3c038000 	lui	v1,0x8000
80006e60:	8c420000 	lw	v0,0(v0)
80006e64:	00000000 	nop
80006e68:	00431821 	addu	v1,v0,v1
80006e6c:	8e047cfc 	lw	a0,31996(s0)
80006e70:	00031b02 	srl	v1,v1,0xc
80006e74:	0064202b 	sltu	a0,v1,a0
80006e78:	108000c5 	beqz	a0,80007190 <pmm_init+0x7a0>
80006e7c:	00031940 	sll	v1,v1,0x5
80006e80:	8e24a9b4 	lw	a0,-22092(s1)
80006e84:	00000000 	nop
80006e88:	00831821 	addu	v1,a0,v1
80006e8c:	16430121 	bne	s2,v1,80007314 <pmm_init+0x924>
80006e90:	30420004 	andi	v0,v0,0x4
80006e94:	1440011a 	bnez	v0,80007300 <pmm_init+0x910>
80006e98:	3c048001 	lui	a0,0x8001
80006e9c:	8e647cf8 	lw	a0,31992(s3)
80006ea0:	0c00188d 	jal	80006234 <page_remove>
80006ea4:	00002821 	move	a1,zero
80006ea8:	8e550000 	lw	s5,0(s2)
80006eac:	00000000 	nop
80006eb0:	16b6010e 	bne	s5,s6,800072ec <pmm_init+0x8fc>
80006eb4:	3c048001 	lui	a0,0x8001
80006eb8:	8e820000 	lw	v0,0(s4)
80006ebc:	00000000 	nop
80006ec0:	14400106 	bnez	v0,800072dc <pmm_init+0x8ec>
80006ec4:	3c068001 	lui	a2,0x8001
80006ec8:	8ee47cf8 	lw	a0,31992(s7)
80006ecc:	0c00188d 	jal	80006234 <page_remove>
80006ed0:	24051000 	li	a1,4096
80006ed4:	8e420000 	lw	v0,0(s2)
80006ed8:	00000000 	nop
80006edc:	144000fa 	bnez	v0,800072c8 <pmm_init+0x8d8>
80006ee0:	3c048001 	lui	a0,0x8001
80006ee4:	8e820000 	lw	v0,0(s4)
80006ee8:	00000000 	nop
80006eec:	144000f1 	bnez	v0,800072b4 <pmm_init+0x8c4>
80006ef0:	3c148000 	lui	s4,0x8000
80006ef4:	8ee27cf8 	lw	v0,31992(s7)
80006ef8:	00000000 	nop
80006efc:	8c420000 	lw	v0,0(v0)
80006f00:	8e037cfc 	lw	v1,31996(s0)
80006f04:	00541021 	addu	v0,v0,s4
80006f08:	00021302 	srl	v0,v0,0xc
80006f0c:	0043182b 	sltu	v1,v0,v1
80006f10:	1060009f 	beqz	v1,80007190 <pmm_init+0x7a0>
80006f14:	00021140 	sll	v0,v0,0x5
80006f18:	8e24a9b4 	lw	a0,-22092(s1)
80006f1c:	00000000 	nop
80006f20:	00822021 	addu	a0,a0,v0
80006f24:	8c820000 	lw	v0,0(a0)
80006f28:	00000000 	nop
80006f2c:	145500dc 	bne	v0,s5,800072a0 <pmm_init+0x8b0>
80006f30:	3c068001 	lui	a2,0x8001
80006f34:	0c0017bc 	jal	80005ef0 <free_pages>
80006f38:	24050001 	li	a1,1
80006f3c:	8ee27cf8 	lw	v0,31992(s7)
80006f40:	3c048001 	lui	a0,0x8001
80006f44:	ac400000 	sw	zero,0(v0)
80006f48:	0c000727 	jal	80001c9c <kprintf>
80006f4c:	24845be4 	addiu	a0,a0,23524
80006f50:	8ee27cf8 	lw	v0,31992(s7)
80006f54:	00000000 	nop
80006f58:	8c420000 	lw	v0,0(v0)
80006f5c:	00000000 	nop
80006f60:	144000ca 	bnez	v0,8000728c <pmm_init+0x89c>
80006f64:	3c048001 	lui	a0,0x8001
80006f68:	0c00179c 	jal	80005e70 <alloc_pages>
80006f6c:	24040001 	li	a0,1
80006f70:	00409021 	move	s2,v0
80006f74:	3c02800e 	lui	v0,0x800e
80006f78:	8c42a9b4 	lw	v0,-22092(v0)
80006f7c:	3c03800d 	lui	v1,0x800d
80006f80:	02421023 	subu	v0,s2,v0
80006f84:	00021143 	sra	v0,v0,0x5
80006f88:	00021300 	sll	v0,v0,0xc
80006f8c:	8c637cfc 	lw	v1,31996(v1)
80006f90:	00022302 	srl	a0,v0,0xc
80006f94:	0083182b 	sltu	v1,a0,v1
80006f98:	106000b5 	beqz	v1,80007270 <pmm_init+0x880>
80006f9c:	0054a021 	addu	s4,v0,s4
80006fa0:	24021234 	li	v0,4660
80006fa4:	8ee47cf8 	lw	a0,31992(s7)
80006fa8:	ae820100 	sw	v0,256(s4)
80006fac:	02402821 	move	a1,s2
80006fb0:	24060100 	li	a2,256
80006fb4:	0c0018d3 	jal	8000634c <page_insert>
80006fb8:	24070002 	li	a3,2
80006fbc:	144000a7 	bnez	v0,8000725c <pmm_init+0x86c>
80006fc0:	3c048001 	lui	a0,0x8001
80006fc4:	8e420000 	lw	v0,0(s2)
80006fc8:	00000000 	nop
80006fcc:	1455009e 	bne	v0,s5,80007248 <pmm_init+0x858>
80006fd0:	02402821 	move	a1,s2
80006fd4:	8e647cf8 	lw	a0,31992(s3)
80006fd8:	24061100 	li	a2,4352
80006fdc:	24070002 	li	a3,2
80006fe0:	0c0018d3 	jal	8000634c <page_insert>
80006fe4:	3c13800d 	lui	s3,0x800d
80006fe8:	14400092 	bnez	v0,80007234 <pmm_init+0x844>
80006fec:	3c048001 	lui	a0,0x8001
80006ff0:	8e430000 	lw	v1,0(s2)
80006ff4:	24020002 	li	v0,2
80006ff8:	14620089 	bne	v1,v0,80007220 <pmm_init+0x830>
80006ffc:	24021234 	li	v0,4660
80007000:	8c030100 	lw	v1,256(zero)
80007004:	00000000 	nop
80007008:	14620080 	bne	v1,v0,8000720c <pmm_init+0x81c>
8000700c:	3c058001 	lui	a1,0x8001
80007010:	24040100 	li	a0,256
80007014:	0c0007d4 	jal	80001f50 <strcpy>
80007018:	24a55d28 	addiu	a1,a1,23848
8000701c:	24040100 	li	a0,256
80007020:	0c0007eb 	jal	80001fac <strcmp>
80007024:	24051100 	li	a1,4352
80007028:	14400073 	bnez	v0,800071f8 <pmm_init+0x808>
8000702c:	3c048001 	lui	a0,0x8001
80007030:	8e27a9b4 	lw	a3,-22092(s1)
80007034:	8e027cfc 	lw	v0,31996(s0)
80007038:	02473823 	subu	a3,s2,a3
8000703c:	00073943 	sra	a3,a3,0x5
80007040:	00073b00 	sll	a3,a3,0xc
80007044:	00071b02 	srl	v1,a3,0xc
80007048:	3c108000 	lui	s0,0x8000
8000704c:	0062102b 	sltu	v0,v1,v0
80007050:	10400063 	beqz	v0,800071e0 <pmm_init+0x7f0>
80007054:	00f03821 	addu	a3,a3,s0
80007058:	a0e00100 	sb	zero,256(a3)
8000705c:	0c0007b2 	jal	80001ec8 <strlen>
80007060:	24040100 	li	a0,256
80007064:	14400059 	bnez	v0,800071cc <pmm_init+0x7dc>
80007068:	3c048001 	lui	a0,0x8001
8000706c:	02402021 	move	a0,s2
80007070:	0c0017bc 	jal	80005ef0 <free_pages>
80007074:	24050001 	li	a1,1
80007078:	8e627cf8 	lw	v0,31992(s3)
8000707c:	2403f000 	li	v1,-4096
80007080:	8c440000 	lw	a0,0(v0)
80007084:	3c02800d 	lui	v0,0x800d
80007088:	00831824 	and	v1,a0,v1
8000708c:	8c427cfc 	lw	v0,31996(v0)
80007090:	00708021 	addu	s0,v1,s0
80007094:	00108302 	srl	s0,s0,0xc
80007098:	0202102b 	sltu	v0,s0,v0
8000709c:	1040003c 	beqz	v0,80007190 <pmm_init+0x7a0>
800070a0:	3c02800e 	lui	v0,0x800e
800070a4:	8c44a9b4 	lw	a0,-22092(v0)
800070a8:	00108140 	sll	s0,s0,0x5
800070ac:	00902021 	addu	a0,a0,s0
800070b0:	0c0017bc 	jal	80005ef0 <free_pages>
800070b4:	24050001 	li	a1,1
800070b8:	8e627cf8 	lw	v0,31992(s3)
800070bc:	0c001ea4 	jal	80007a90 <tlb_invalidate_all>
800070c0:	ac400000 	sw	zero,0(v0)
800070c4:	3c048001 	lui	a0,0x8001
800070c8:	0c000727 	jal	80001c9c <kprintf>
800070cc:	24845dbc 	addiu	a0,a0,23996
800070d0:	8e647cf8 	lw	a0,31992(s3)
800070d4:	00002821 	move	a1,zero
800070d8:	0c00083d 	jal	800020f4 <memset>
800070dc:	24061000 	li	a2,4096
800070e0:	0c00198c 	jal	80006630 <print_pgdir>
800070e4:	00000000 	nop
800070e8:	8fbf0034 	lw	ra,52(sp)
800070ec:	8fb70030 	lw	s7,48(sp)
800070f0:	8fb6002c 	lw	s6,44(sp)
800070f4:	8fb50028 	lw	s5,40(sp)
800070f8:	8fb40024 	lw	s4,36(sp)
800070fc:	8fb30020 	lw	s3,32(sp)
80007100:	8fb2001c 	lw	s2,28(sp)
80007104:	8fb10018 	lw	s1,24(sp)
80007108:	8fb00014 	lw	s0,20(sp)
8000710c:	08001625 	j	80005894 <kmalloc_init>
80007110:	27bd0038 	addiu	sp,sp,56
80007114:	3c048001 	lui	a0,0x8001
80007118:	3c068001 	lui	a2,0x8001
8000711c:	24845690 	addiu	a0,a0,22160
80007120:	2405015c 	li	a1,348
80007124:	0c0009f2 	jal	800027c8 <__panic>
80007128:	24c65830 	addiu	a2,a2,22576
8000712c:	3c048001 	lui	a0,0x8001
80007130:	3c068001 	lui	a2,0x8001
80007134:	24845690 	addiu	a0,a0,22160
80007138:	2405015b 	li	a1,347
8000713c:	0c0009f2 	jal	800027c8 <__panic>
80007140:	24c65800 	addiu	a2,a2,22528
80007144:	3c048001 	lui	a0,0x8001
80007148:	3c068001 	lui	a2,0x8001
8000714c:	24845690 	addiu	a0,a0,22160
80007150:	240500be 	li	a1,190
80007154:	0c0009f2 	jal	800027c8 <__panic>
80007158:	24c6553c 	addiu	a2,a2,21820
8000715c:	3c048001 	lui	a0,0x8001
80007160:	3c068001 	lui	a2,0x8001
80007164:	24845508 	addiu	a0,a0,21768
80007168:	24050069 	li	a1,105
8000716c:	24c65518 	addiu	a2,a2,21784
80007170:	0c0009f2 	jal	800027c8 <__panic>
80007174:	02c03821 	move	a3,s6
80007178:	3c048001 	lui	a0,0x8001
8000717c:	3c068001 	lui	a2,0x8001
80007180:	24845690 	addiu	a0,a0,22160
80007184:	240500a4 	li	a1,164
80007188:	0c0009f2 	jal	800027c8 <__panic>
8000718c:	24c657e4 	addiu	a2,a2,22500
80007190:	0c004d2f 	jal	800134bc <pa2page.part.2>
80007194:	00000000 	nop
80007198:	3c048001 	lui	a0,0x8001
8000719c:	3c068001 	lui	a2,0x8001
800071a0:	24845690 	addiu	a0,a0,22160
800071a4:	2405007f 	li	a1,127
800071a8:	0c0009f2 	jal	800027c8 <__panic>
800071ac:	24c65790 	addiu	a2,a2,22416
800071b0:	3c048001 	lui	a0,0x8001
800071b4:	3c068001 	lui	a2,0x8001
800071b8:	24845690 	addiu	a0,a0,22160
800071bc:	2405007a 	li	a1,122
800071c0:	24c6553c 	addiu	a2,a2,21820
800071c4:	0c0009f2 	jal	800027c8 <__panic>
800071c8:	02403821 	move	a3,s2
800071cc:	3c068001 	lui	a2,0x8001
800071d0:	24845690 	addiu	a0,a0,22160
800071d4:	240501a4 	li	a1,420
800071d8:	0c0009f2 	jal	800027c8 <__panic>
800071dc:	24c65d88 	addiu	a2,a2,23944
800071e0:	3c048001 	lui	a0,0x8001
800071e4:	3c068001 	lui	a2,0x8001
800071e8:	24845508 	addiu	a0,a0,21768
800071ec:	24050069 	li	a1,105
800071f0:	0c0009f2 	jal	800027c8 <__panic>
800071f4:	24c65518 	addiu	a2,a2,21784
800071f8:	3c068001 	lui	a2,0x8001
800071fc:	24845690 	addiu	a0,a0,22160
80007200:	240501a1 	li	a1,417
80007204:	0c0009f2 	jal	800027c8 <__panic>
80007208:	24c65d40 	addiu	a2,a2,23872
8000720c:	3c068001 	lui	a2,0x8001
80007210:	24845690 	addiu	a0,a0,22160
80007214:	2405019e 	li	a1,414
80007218:	0c0009f2 	jal	800027c8 <__panic>
8000721c:	24c65cfc 	addiu	a2,a2,23804
80007220:	3c068001 	lui	a2,0x8001
80007224:	24845690 	addiu	a0,a0,22160
80007228:	2405019a 	li	a1,410
8000722c:	0c0009f2 	jal	800027c8 <__panic>
80007230:	24c65cd8 	addiu	a2,a2,23768
80007234:	3c068001 	lui	a2,0x8001
80007238:	24845690 	addiu	a0,a0,22160
8000723c:	24050199 	li	a1,409
80007240:	0c0009f2 	jal	800027c8 <__panic>
80007244:	24c65c8c 	addiu	a2,a2,23692
80007248:	3c068001 	lui	a2,0x8001
8000724c:	24845690 	addiu	a0,a0,22160
80007250:	24050198 	li	a1,408
80007254:	0c0009f2 	jal	800027c8 <__panic>
80007258:	24c65c68 	addiu	a2,a2,23656
8000725c:	3c068001 	lui	a2,0x8001
80007260:	24845690 	addiu	a0,a0,22160
80007264:	24050197 	li	a1,407
80007268:	0c0009f2 	jal	800027c8 <__panic>
8000726c:	24c65c28 	addiu	a2,a2,23592
80007270:	3c048001 	lui	a0,0x8001
80007274:	3c068001 	lui	a2,0x8001
80007278:	24845508 	addiu	a0,a0,21768
8000727c:	24050069 	li	a1,105
80007280:	24c65518 	addiu	a2,a2,21784
80007284:	0c0009f2 	jal	800027c8 <__panic>
80007288:	02803821 	move	a3,s4
8000728c:	3c068001 	lui	a2,0x8001
80007290:	24845690 	addiu	a0,a0,22160
80007294:	2405018f 	li	a1,399
80007298:	0c0009f2 	jal	800027c8 <__panic>
8000729c:	24c65c00 	addiu	a2,a2,23552
800072a0:	3c048001 	lui	a0,0x8001
800072a4:	24845690 	addiu	a0,a0,22160
800072a8:	24050182 	li	a1,386
800072ac:	0c0009f2 	jal	800027c8 <__panic>
800072b0:	24c65bac 	addiu	a2,a2,23468
800072b4:	3c068001 	lui	a2,0x8001
800072b8:	24845690 	addiu	a0,a0,22160
800072bc:	24050180 	li	a1,384
800072c0:	0c0009f2 	jal	800027c8 <__panic>
800072c4:	24c65b3c 	addiu	a2,a2,23356
800072c8:	3c068001 	lui	a2,0x8001
800072cc:	24845690 	addiu	a0,a0,22160
800072d0:	2405017f 	li	a1,383
800072d4:	0c0009f2 	jal	800027c8 <__panic>
800072d8:	24c65b88 	addiu	a2,a2,23432
800072dc:	24845690 	addiu	a0,a0,22160
800072e0:	2405017c 	li	a1,380
800072e4:	0c0009f2 	jal	800027c8 <__panic>
800072e8:	24c65b3c 	addiu	a2,a2,23356
800072ec:	3c068001 	lui	a2,0x8001
800072f0:	24845690 	addiu	a0,a0,22160
800072f4:	2405017b 	li	a1,379
800072f8:	0c0009f2 	jal	800027c8 <__panic>
800072fc:	24c6595c 	addiu	a2,a2,22876
80007300:	3c068001 	lui	a2,0x8001
80007304:	24845690 	addiu	a0,a0,22160
80007308:	24050178 	li	a1,376
8000730c:	0c0009f2 	jal	800027c8 <__panic>
80007310:	24c65b60 	addiu	a2,a2,23392
80007314:	3c048001 	lui	a0,0x8001
80007318:	3c068001 	lui	a2,0x8001
8000731c:	24845690 	addiu	a0,a0,22160
80007320:	24050177 	li	a1,375
80007324:	0c0009f2 	jal	800027c8 <__panic>
80007328:	24c65934 	addiu	a2,a2,22836
8000732c:	3c048001 	lui	a0,0x8001
80007330:	3c068001 	lui	a2,0x8001
80007334:	24845690 	addiu	a0,a0,22160
80007338:	24050176 	li	a1,374
8000733c:	0c0009f2 	jal	800027c8 <__panic>
80007340:	24c65a08 	addiu	a2,a2,23048
80007344:	3c068001 	lui	a2,0x8001
80007348:	24845690 	addiu	a0,a0,22160
8000734c:	24050175 	li	a1,373
80007350:	0c0009f2 	jal	800027c8 <__panic>
80007354:	24c65b3c 	addiu	a2,a2,23356
80007358:	24845690 	addiu	a0,a0,22160
8000735c:	24050174 	li	a1,372
80007360:	0c0009f2 	jal	800027c8 <__panic>
80007364:	24c65b18 	addiu	a2,a2,23320
80007368:	3c068001 	lui	a2,0x8001
8000736c:	24845690 	addiu	a0,a0,22160
80007370:	24050173 	li	a1,371
80007374:	0c0009f2 	jal	800027c8 <__panic>
80007378:	24c65ad8 	addiu	a2,a2,23256
8000737c:	3c048001 	lui	a0,0x8001
80007380:	3c068001 	lui	a2,0x8001
80007384:	24845690 	addiu	a0,a0,22160
80007388:	24050171 	li	a1,369
8000738c:	0c0009f2 	jal	800027c8 <__panic>
80007390:	24c65ab4 	addiu	a2,a2,23220
80007394:	3c048001 	lui	a0,0x8001
80007398:	3c068001 	lui	a2,0x8001
8000739c:	24845690 	addiu	a0,a0,22160
800073a0:	24050170 	li	a1,368
800073a4:	0c0009f2 	jal	800027c8 <__panic>
800073a8:	24c65a8c 	addiu	a2,a2,23180
800073ac:	3c068001 	lui	a2,0x8001
800073b0:	2405016f 	li	a1,367
800073b4:	0c0009f2 	jal	800027c8 <__panic>
800073b8:	24c65a6c 	addiu	a2,a2,23148
800073bc:	3c068001 	lui	a2,0x8001
800073c0:	24845690 	addiu	a0,a0,22160
800073c4:	2405016e 	li	a1,366
800073c8:	0c0009f2 	jal	800027c8 <__panic>
800073cc:	24c65a4c 	addiu	a2,a2,23116
800073d0:	3c068001 	lui	a2,0x8001
800073d4:	24845690 	addiu	a0,a0,22160
800073d8:	2405016d 	li	a1,365
800073dc:	0c0009f2 	jal	800027c8 <__panic>
800073e0:	24c65a08 	addiu	a2,a2,23048
800073e4:	3c048001 	lui	a0,0x8001
800073e8:	3c068001 	lui	a2,0x8001
800073ec:	24845690 	addiu	a0,a0,22160
800073f0:	2405016c 	li	a1,364
800073f4:	0c0009f2 	jal	800027c8 <__panic>
800073f8:	24c659bc 	addiu	a2,a2,22972
800073fc:	3c068001 	lui	a2,0x8001
80007400:	24845690 	addiu	a0,a0,22160
80007404:	24050169 	li	a1,361
80007408:	0c0009f2 	jal	800027c8 <__panic>
8000740c:	24c65980 	addiu	a2,a2,22912
80007410:	3c048001 	lui	a0,0x8001
80007414:	3c068001 	lui	a2,0x8001
80007418:	24845690 	addiu	a0,a0,22160
8000741c:	24050168 	li	a1,360
80007420:	24c65518 	addiu	a2,a2,21784
80007424:	0c0009f2 	jal	800027c8 <__panic>
80007428:	02803821 	move	a3,s4
8000742c:	3c048001 	lui	a0,0x8001
80007430:	3c068001 	lui	a2,0x8001
80007434:	24845690 	addiu	a0,a0,22160
80007438:	24050166 	li	a1,358
8000743c:	0c0009f2 	jal	800027c8 <__panic>
80007440:	24c6595c 	addiu	a2,a2,22876
80007444:	3c068001 	lui	a2,0x8001
80007448:	24845690 	addiu	a0,a0,22160
8000744c:	24050165 	li	a1,357
80007450:	0c0009f2 	jal	800027c8 <__panic>
80007454:	24c65934 	addiu	a2,a2,22836
80007458:	3c048001 	lui	a0,0x8001
8000745c:	3c068001 	lui	a2,0x8001
80007460:	24845690 	addiu	a0,a0,22160
80007464:	24050164 	li	a1,356
80007468:	0c0009f2 	jal	800027c8 <__panic>
8000746c:	24c658f4 	addiu	a2,a2,22772
80007470:	3c048001 	lui	a0,0x8001
80007474:	3c068001 	lui	a2,0x8001
80007478:	24845690 	addiu	a0,a0,22160
8000747c:	24050161 	li	a1,353
80007480:	0c0009f2 	jal	800027c8 <__panic>
80007484:	24c658b8 	addiu	a2,a2,22712
80007488:	3c068001 	lui	a2,0x8001
8000748c:	24845690 	addiu	a0,a0,22160
80007490:	2405015d 	li	a1,349
80007494:	0c0009f2 	jal	800027c8 <__panic>
80007498:	24c6587c 	addiu	a2,a2,22652

8000749c <unmap_range>:
8000749c:	00c51025 	or	v0,a2,a1
800074a0:	27bdffc0 	addiu	sp,sp,-64
800074a4:	30420fff 	andi	v0,v0,0xfff
800074a8:	afb20020 	sw	s2,32(sp)
800074ac:	afb1001c 	sw	s1,28(sp)
800074b0:	afb00018 	sw	s0,24(sp)
800074b4:	afbf003c 	sw	ra,60(sp)
800074b8:	afbe0038 	sw	s8,56(sp)
800074bc:	afb70034 	sw	s7,52(sp)
800074c0:	afb60030 	sw	s6,48(sp)
800074c4:	afb5002c 	sw	s5,44(sp)
800074c8:	afb40028 	sw	s4,40(sp)
800074cc:	afb30024 	sw	s3,36(sp)
800074d0:	00a08021 	move	s0,a1
800074d4:	00c08821 	move	s1,a2
800074d8:	14400067 	bnez	v0,80007678 <unmap_range+0x1dc>
800074dc:	00809021 	move	s2,a0
800074e0:	3c021000 	lui	v0,0x1000
800074e4:	00a2102b 	sltu	v0,a1,v0
800074e8:	1440005d 	bnez	v0,80007660 <unmap_range+0x1c4>
800074ec:	00a6102b 	sltu	v0,a1,a2
800074f0:	1040005b 	beqz	v0,80007660 <unmap_range+0x1c4>
800074f4:	3c028000 	lui	v0,0x8000
800074f8:	24420001 	addiu	v0,v0,1
800074fc:	00c2102b 	sltu	v0,a2,v0
80007500:	10400057 	beqz	v0,80007660 <unmap_range+0x1c4>
80007504:	3c140040 	lui	s4,0x40
80007508:	3c13ffc0 	lui	s3,0xffc0
8000750c:	2417f000 	li	s7,-4096
80007510:	3c16800d 	lui	s6,0x800d
80007514:	3c15800e 	lui	s5,0x800e
80007518:	02402021 	move	a0,s2
8000751c:	02002821 	move	a1,s0
80007520:	0c0017f9 	jal	80005fe4 <get_pte>
80007524:	00003021 	move	a2,zero
80007528:	1040001c 	beqz	v0,8000759c <unmap_range+0x100>
8000752c:	00000000 	nop
80007530:	8c430000 	lw	v1,0(v0)
80007534:	00000000 	nop
80007538:	14600012 	bnez	v1,80007584 <unmap_range+0xe8>
8000753c:	30640001 	andi	a0,v1,0x1
80007540:	26101000 	addiu	s0,s0,4096
80007544:	12000003 	beqz	s0,80007554 <unmap_range+0xb8>
80007548:	0211102b 	sltu	v0,s0,s1
8000754c:	1440fff3 	bnez	v0,8000751c <unmap_range+0x80>
80007550:	02402021 	move	a0,s2
80007554:	8fbf003c 	lw	ra,60(sp)
80007558:	8fbe0038 	lw	s8,56(sp)
8000755c:	8fb70034 	lw	s7,52(sp)
80007560:	8fb60030 	lw	s6,48(sp)
80007564:	8fb5002c 	lw	s5,44(sp)
80007568:	8fb40028 	lw	s4,40(sp)
8000756c:	8fb30024 	lw	s3,36(sp)
80007570:	8fb20020 	lw	s2,32(sp)
80007574:	8fb1001c 	lw	s1,28(sp)
80007578:	8fb00018 	lw	s0,24(sp)
8000757c:	03e00008 	jr	ra
80007580:	27bd0040 	addiu	sp,sp,64
80007584:	14800008 	bnez	a0,800075a8 <unmap_range+0x10c>
80007588:	3c048000 	lui	a0,0x8000
8000758c:	0c001ea4 	jal	80007a90 <tlb_invalidate_all>
80007590:	26101000 	addiu	s0,s0,4096
80007594:	08001d51 	j	80007544 <unmap_range+0xa8>
80007598:	00000000 	nop
8000759c:	02148021 	addu	s0,s0,s4
800075a0:	08001d51 	j	80007544 <unmap_range+0xa8>
800075a4:	02138024 	and	s0,s0,s3
800075a8:	00771824 	and	v1,v1,s7
800075ac:	00641821 	addu	v1,v1,a0
800075b0:	8ec47cfc 	lw	a0,31996(s6)
800075b4:	00031b02 	srl	v1,v1,0xc
800075b8:	0064202b 	sltu	a0,v1,a0
800075bc:	10800034 	beqz	a0,80007690 <unmap_range+0x1f4>
800075c0:	00031940 	sll	v1,v1,0x5
800075c4:	8ebea9b4 	lw	s8,-22092(s5)
800075c8:	00000000 	nop
800075cc:	03c3f021 	addu	s8,s8,v1
800075d0:	40036000 	mfc0	v1,c0_status
800075d4:	00000000 	nop
800075d8:	30630001 	andi	v1,v1,0x1
800075dc:	14600015 	bnez	v1,80007634 <unmap_range+0x198>
800075e0:	00000000 	nop
800075e4:	8fc30000 	lw	v1,0(s8)
800075e8:	00000000 	nop
800075ec:	2463ffff 	addiu	v1,v1,-1
800075f0:	afc30000 	sw	v1,0(s8)
800075f4:	8fc30000 	lw	v1,0(s8)
800075f8:	8fc30000 	lw	v1,0(s8)
800075fc:	00000000 	nop
80007600:	10600006 	beqz	v1,8000761c <unmap_range+0x180>
80007604:	03c02021 	move	a0,s8
80007608:	ac400000 	sw	zero,0(v0)
8000760c:	0c001ea4 	jal	80007a90 <tlb_invalidate_all>
80007610:	26101000 	addiu	s0,s0,4096
80007614:	08001d51 	j	80007544 <unmap_range+0xa8>
80007618:	00000000 	nop
8000761c:	24050001 	li	a1,1
80007620:	0c0017bc 	jal	80005ef0 <free_pages>
80007624:	afa20010 	sw	v0,16(sp)
80007628:	8fa20010 	lw	v0,16(sp)
8000762c:	08001d83 	j	8000760c <unmap_range+0x170>
80007630:	ac400000 	sw	zero,0(v0)
80007634:	0c000b7d 	jal	80002df4 <intr_disable>
80007638:	afa20010 	sw	v0,16(sp)
8000763c:	8fc30000 	lw	v1,0(s8)
80007640:	00000000 	nop
80007644:	2463ffff 	addiu	v1,v1,-1
80007648:	afc30000 	sw	v1,0(s8)
8000764c:	0c000b77 	jal	80002ddc <intr_enable>
80007650:	00000000 	nop
80007654:	8fa20010 	lw	v0,16(sp)
80007658:	08001d7d 	j	800075f4 <unmap_range+0x158>
8000765c:	00000000 	nop
80007660:	3c048001 	lui	a0,0x8001
80007664:	3c068001 	lui	a2,0x8001
80007668:	24845690 	addiu	a0,a0,22160
8000766c:	24050204 	li	a1,516
80007670:	0c0009f2 	jal	800027c8 <__panic>
80007674:	24c65e18 	addiu	a2,a2,24088
80007678:	3c048001 	lui	a0,0x8001
8000767c:	3c068001 	lui	a2,0x8001
80007680:	24845690 	addiu	a0,a0,22160
80007684:	24050203 	li	a1,515
80007688:	0c0009f2 	jal	800027c8 <__panic>
8000768c:	24c65ddc 	addiu	a2,a2,24028
80007690:	0c004d2f 	jal	800134bc <pa2page.part.2>
80007694:	00000000 	nop

80007698 <exit_range>:
80007698:	00c51025 	or	v0,a2,a1
8000769c:	27bdffc8 	addiu	sp,sp,-56
800076a0:	30420fff 	andi	v0,v0,0xfff
800076a4:	afb3001c 	sw	s3,28(sp)
800076a8:	afb20018 	sw	s2,24(sp)
800076ac:	afbf0034 	sw	ra,52(sp)
800076b0:	afbe0030 	sw	s8,48(sp)
800076b4:	afb7002c 	sw	s7,44(sp)
800076b8:	afb60028 	sw	s6,40(sp)
800076bc:	afb50024 	sw	s5,36(sp)
800076c0:	afb40020 	sw	s4,32(sp)
800076c4:	afb10014 	sw	s1,20(sp)
800076c8:	afb00010 	sw	s0,16(sp)
800076cc:	00c09021 	move	s2,a2
800076d0:	1440003a 	bnez	v0,800077bc <exit_range+0x124>
800076d4:	00809821 	move	s3,a0
800076d8:	3c021000 	lui	v0,0x1000
800076dc:	00a2102b 	sltu	v0,a1,v0
800076e0:	1440003e 	bnez	v0,800077dc <exit_range+0x144>
800076e4:	00a6102b 	sltu	v0,a1,a2
800076e8:	1040003c 	beqz	v0,800077dc <exit_range+0x144>
800076ec:	3c028000 	lui	v0,0x8000
800076f0:	24420001 	addiu	v0,v0,1
800076f4:	00c2102b 	sltu	v0,a2,v0
800076f8:	10400038 	beqz	v0,800077dc <exit_range+0x144>
800076fc:	3c10ffc0 	lui	s0,0xffc0
80007700:	00b08024 	and	s0,a1,s0
80007704:	2417f000 	li	s7,-4096
80007708:	3c168000 	lui	s6,0x8000
8000770c:	3c15800d 	lui	s5,0x800d
80007710:	3c1e800e 	lui	s8,0x800e
80007714:	08001dcd 	j	80007734 <exit_range+0x9c>
80007718:	3c140040 	lui	s4,0x40
8000771c:	02148021 	addu	s0,s0,s4
80007720:	1200001a 	beqz	s0,8000778c <exit_range+0xf4>
80007724:	00000000 	nop
80007728:	0212102b 	sltu	v0,s0,s2
8000772c:	10400017 	beqz	v0,8000778c <exit_range+0xf4>
80007730:	00000000 	nop
80007734:	00108d82 	srl	s1,s0,0x16
80007738:	00118880 	sll	s1,s1,0x2
8000773c:	02718821 	addu	s1,s3,s1
80007740:	8e220000 	lw	v0,0(s1)
80007744:	00000000 	nop
80007748:	30430001 	andi	v1,v0,0x1
8000774c:	1060fff3 	beqz	v1,8000771c <exit_range+0x84>
80007750:	00571024 	and	v0,v0,s7
80007754:	00561021 	addu	v0,v0,s6
80007758:	8ea37cfc 	lw	v1,31996(s5)
8000775c:	00021302 	srl	v0,v0,0xc
80007760:	0043182b 	sltu	v1,v0,v1
80007764:	1060001b 	beqz	v1,800077d4 <exit_range+0x13c>
80007768:	00021140 	sll	v0,v0,0x5
8000776c:	8fc4a9b4 	lw	a0,-22092(s8)
80007770:	00000000 	nop
80007774:	00822021 	addu	a0,a0,v0
80007778:	24050001 	li	a1,1
8000777c:	0c0017bc 	jal	80005ef0 <free_pages>
80007780:	02148021 	addu	s0,s0,s4
80007784:	1600ffe8 	bnez	s0,80007728 <exit_range+0x90>
80007788:	ae200000 	sw	zero,0(s1)
8000778c:	8fbf0034 	lw	ra,52(sp)
80007790:	8fbe0030 	lw	s8,48(sp)
80007794:	8fb7002c 	lw	s7,44(sp)
80007798:	8fb60028 	lw	s6,40(sp)
8000779c:	8fb50024 	lw	s5,36(sp)
800077a0:	8fb40020 	lw	s4,32(sp)
800077a4:	8fb3001c 	lw	s3,28(sp)
800077a8:	8fb20018 	lw	s2,24(sp)
800077ac:	8fb10014 	lw	s1,20(sp)
800077b0:	8fb00010 	lw	s0,16(sp)
800077b4:	03e00008 	jr	ra
800077b8:	27bd0038 	addiu	sp,sp,56
800077bc:	3c048001 	lui	a0,0x8001
800077c0:	3c068001 	lui	a2,0x8001
800077c4:	24845690 	addiu	a0,a0,22160
800077c8:	24050215 	li	a1,533
800077cc:	0c0009f2 	jal	800027c8 <__panic>
800077d0:	24c65ddc 	addiu	a2,a2,24028
800077d4:	0c004d2f 	jal	800134bc <pa2page.part.2>
800077d8:	00000000 	nop
800077dc:	3c048001 	lui	a0,0x8001
800077e0:	3c068001 	lui	a2,0x8001
800077e4:	24845690 	addiu	a0,a0,22160
800077e8:	24050216 	li	a1,534
800077ec:	0c0009f2 	jal	800027c8 <__panic>
800077f0:	24c65e18 	addiu	a2,a2,24088

800077f4 <copy_range>:
800077f4:	00e61025 	or	v0,a3,a2
800077f8:	27bdffc0 	addiu	sp,sp,-64
800077fc:	30420fff 	andi	v0,v0,0xfff
80007800:	afb40028 	sw	s4,40(sp)
80007804:	afb20020 	sw	s2,32(sp)
80007808:	afb1001c 	sw	s1,28(sp)
8000780c:	afb00018 	sw	s0,24(sp)
80007810:	afbf003c 	sw	ra,60(sp)
80007814:	afbe0038 	sw	s8,56(sp)
80007818:	afb70034 	sw	s7,52(sp)
8000781c:	afb60030 	sw	s6,48(sp)
80007820:	afb5002c 	sw	s5,44(sp)
80007824:	afb30024 	sw	s3,36(sp)
80007828:	00c08021 	move	s0,a2
8000782c:	00e08821 	move	s1,a3
80007830:	0080a021 	move	s4,a0
80007834:	14400073 	bnez	v0,80007a04 <copy_range+0x210>
80007838:	00a09021 	move	s2,a1
8000783c:	3c021000 	lui	v0,0x1000
80007840:	00c2102b 	sltu	v0,a2,v0
80007844:	14400069 	bnez	v0,800079ec <copy_range+0x1f8>
80007848:	00c7102b 	sltu	v0,a2,a3
8000784c:	10400067 	beqz	v0,800079ec <copy_range+0x1f8>
80007850:	3c028000 	lui	v0,0x8000
80007854:	24420001 	addiu	v0,v0,1
80007858:	00e2102b 	sltu	v0,a3,v0
8000785c:	10400063 	beqz	v0,800079ec <copy_range+0x1f8>
80007860:	3c1e0040 	lui	s8,0x40
80007864:	2417f000 	li	s7,-4096
80007868:	3c138000 	lui	s3,0x8000
8000786c:	3c16800d 	lui	s6,0x800d
80007870:	3c15800e 	lui	s5,0x800e
80007874:	02402021 	move	a0,s2
80007878:	02002821 	move	a1,s0
8000787c:	0c0017f9 	jal	80005fe4 <get_pte>
80007880:	00003021 	move	a2,zero
80007884:	10400056 	beqz	v0,800079e0 <copy_range+0x1ec>
80007888:	00401821 	move	v1,v0
8000788c:	8c420000 	lw	v0,0(v0)
80007890:	00000000 	nop
80007894:	30420001 	andi	v0,v0,0x1
80007898:	14400013 	bnez	v0,800078e8 <copy_range+0xf4>
8000789c:	02802021 	move	a0,s4
800078a0:	26101000 	addiu	s0,s0,4096
800078a4:	12000003 	beqz	s0,800078b4 <copy_range+0xc0>
800078a8:	0211102b 	sltu	v0,s0,s1
800078ac:	1440fff2 	bnez	v0,80007878 <copy_range+0x84>
800078b0:	02402021 	move	a0,s2
800078b4:	00001021 	move	v0,zero
800078b8:	8fbf003c 	lw	ra,60(sp)
800078bc:	8fbe0038 	lw	s8,56(sp)
800078c0:	8fb70034 	lw	s7,52(sp)
800078c4:	8fb60030 	lw	s6,48(sp)
800078c8:	8fb5002c 	lw	s5,44(sp)
800078cc:	8fb40028 	lw	s4,40(sp)
800078d0:	8fb30024 	lw	s3,36(sp)
800078d4:	8fb20020 	lw	s2,32(sp)
800078d8:	8fb1001c 	lw	s1,28(sp)
800078dc:	8fb00018 	lw	s0,24(sp)
800078e0:	03e00008 	jr	ra
800078e4:	27bd0040 	addiu	sp,sp,64
800078e8:	02002821 	move	a1,s0
800078ec:	24060001 	li	a2,1
800078f0:	0c0017f9 	jal	80005fe4 <get_pte>
800078f4:	afa30010 	sw	v1,16(sp)
800078f8:	8fa30010 	lw	v1,16(sp)
800078fc:	1040ffee 	beqz	v0,800078b8 <copy_range+0xc4>
80007900:	2402fffc 	li	v0,-4
80007904:	8c670000 	lw	a3,0(v1)
80007908:	00000000 	nop
8000790c:	30e20001 	andi	v0,a3,0x1
80007910:	1040005d 	beqz	v0,80007a88 <copy_range+0x294>
80007914:	00f71024 	and	v0,a3,s7
80007918:	00531021 	addu	v0,v0,s3
8000791c:	8ec37cfc 	lw	v1,31996(s6)
80007920:	00021302 	srl	v0,v0,0xc
80007924:	0043182b 	sltu	v1,v0,v1
80007928:	10600055 	beqz	v1,80007a80 <copy_range+0x28c>
8000792c:	00021140 	sll	v0,v0,0x5
80007930:	8ea5a9b4 	lw	a1,-22092(s5)
80007934:	00000000 	nop
80007938:	00a22821 	addu	a1,a1,v0
8000793c:	24040001 	li	a0,1
80007940:	afa50010 	sw	a1,16(sp)
80007944:	0c00179c 	jal	80005e70 <alloc_pages>
80007948:	afa70014 	sw	a3,20(sp)
8000794c:	8fa50010 	lw	a1,16(sp)
80007950:	8fa70014 	lw	a3,20(sp)
80007954:	10a00044 	beqz	a1,80007a68 <copy_range+0x274>
80007958:	00401821 	move	v1,v0
8000795c:	1040003d 	beqz	v0,80007a54 <copy_range+0x260>
80007960:	3c048001 	lui	a0,0x8001
80007964:	8ea2a9b4 	lw	v0,-22092(s5)
80007968:	8ec47cfc 	lw	a0,31996(s6)
8000796c:	00624023 	subu	t0,v1,v0
80007970:	00084143 	sra	t0,t0,0x5
80007974:	00084300 	sll	t0,t0,0xc
80007978:	00083302 	srl	a2,t0,0xc
8000797c:	00c4302b 	sltu	a2,a2,a0
80007980:	10c0002d 	beqz	a2,80007a38 <copy_range+0x244>
80007984:	01134021 	addu	t0,t0,s3
80007988:	00a21023 	subu	v0,a1,v0
8000798c:	00021143 	sra	v0,v0,0x5
80007990:	00021300 	sll	v0,v0,0xc
80007994:	00022b02 	srl	a1,v0,0xc
80007998:	00a4202b 	sltu	a0,a1,a0
8000799c:	1080001f 	beqz	a0,80007a1c <copy_range+0x228>
800079a0:	00531021 	addu	v0,v0,s3
800079a4:	01002021 	move	a0,t0
800079a8:	00402821 	move	a1,v0
800079ac:	24061000 	li	a2,4096
800079b0:	afa30010 	sw	v1,16(sp)
800079b4:	0c000847 	jal	8000211c <memcpy>
800079b8:	afa70014 	sw	a3,20(sp)
800079bc:	8fa30010 	lw	v1,16(sp)
800079c0:	8fa70014 	lw	a3,20(sp)
800079c4:	02003021 	move	a2,s0
800079c8:	02802021 	move	a0,s4
800079cc:	00602821 	move	a1,v1
800079d0:	0c0018d3 	jal	8000634c <page_insert>
800079d4:	30e70007 	andi	a3,a3,0x7
800079d8:	08001e29 	j	800078a4 <copy_range+0xb0>
800079dc:	26101000 	addiu	s0,s0,4096
800079e0:	021e8021 	addu	s0,s0,s8
800079e4:	08001e29 	j	800078a4 <copy_range+0xb0>
800079e8:	02178024 	and	s0,s0,s7
800079ec:	3c048001 	lui	a0,0x8001
800079f0:	3c068001 	lui	a2,0x8001
800079f4:	24845690 	addiu	a0,a0,22160
800079f8:	24050226 	li	a1,550
800079fc:	0c0009f2 	jal	800027c8 <__panic>
80007a00:	24c65e18 	addiu	a2,a2,24088
80007a04:	3c048001 	lui	a0,0x8001
80007a08:	3c068001 	lui	a2,0x8001
80007a0c:	24845690 	addiu	a0,a0,22160
80007a10:	24050225 	li	a1,549
80007a14:	0c0009f2 	jal	800027c8 <__panic>
80007a18:	24c65ddc 	addiu	a2,a2,24028
80007a1c:	3c048001 	lui	a0,0x8001
80007a20:	3c068001 	lui	a2,0x8001
80007a24:	24845508 	addiu	a0,a0,21768
80007a28:	24050069 	li	a1,105
80007a2c:	24c65518 	addiu	a2,a2,21784
80007a30:	0c0009f2 	jal	800027c8 <__panic>
80007a34:	00403821 	move	a3,v0
80007a38:	3c048001 	lui	a0,0x8001
80007a3c:	3c068001 	lui	a2,0x8001
80007a40:	24845508 	addiu	a0,a0,21768
80007a44:	24050069 	li	a1,105
80007a48:	24c65518 	addiu	a2,a2,21784
80007a4c:	0c0009f2 	jal	800027c8 <__panic>
80007a50:	01003821 	move	a3,t0
80007a54:	3c068001 	lui	a2,0x8001
80007a58:	24845690 	addiu	a0,a0,22160
80007a5c:	24050236 	li	a1,566
80007a60:	0c0009f2 	jal	800027c8 <__panic>
80007a64:	24c65e64 	addiu	a2,a2,24164
80007a68:	3c048001 	lui	a0,0x8001
80007a6c:	3c068001 	lui	a2,0x8001
80007a70:	24845690 	addiu	a0,a0,22160
80007a74:	24050235 	li	a1,565
80007a78:	0c0009f2 	jal	800027c8 <__panic>
80007a7c:	24c65e44 	addiu	a2,a2,24132
80007a80:	0c004d2f 	jal	800134bc <pa2page.part.2>
80007a84:	00000000 	nop
80007a88:	0c004d37 	jal	800134dc <pte2page.part.3>
80007a8c:	00000000 	nop

80007a90 <tlb_invalidate_all>:
80007a90:	00001021 	move	v0,zero
80007a94:	3c058000 	lui	a1,0x8000
80007a98:	24040080 	li	a0,128
80007a9c:	40801000 	mtc0	zero,c0_entrylo0
80007aa0:	00000000 	nop
80007aa4:	40802800 	mtc0	zero,c0_pagemask
80007aa8:	00000000 	nop
80007aac:	40801800 	mtc0	zero,c0_entrylo1
80007ab0:	00021b40 	sll	v1,v0,0xd
80007ab4:	00651825 	or	v1,v1,a1
80007ab8:	40835000 	mtc0	v1,c0_entryhi
80007abc:	00000000 	nop
80007ac0:	40820000 	mtc0	v0,c0_index
80007ac4:	42000002 	tlbwi
80007ac8:	24420001 	addiu	v0,v0,1
80007acc:	1444fff3 	bne	v0,a0,80007a9c <tlb_invalidate_all+0xc>
80007ad0:	00000000 	nop
80007ad4:	03e00008 	jr	ra
80007ad8:	00000000 	nop

80007adc <tlb_invalidate>:
80007adc:	08001ea4 	j	80007a90 <tlb_invalidate_all>
80007ae0:	00000000 	nop

80007ae4 <mm_create>:
80007ae4:	27bdffe0 	addiu	sp,sp,-32
80007ae8:	afbf001c 	sw	ra,28(sp)
80007aec:	0c001716 	jal	80005c58 <kmalloc>
80007af0:	2404002c 	li	a0,44
80007af4:	1040000d 	beqz	v0,80007b2c <mm_create+0x48>
80007af8:	00000000 	nop
80007afc:	ac420004 	sw	v0,4(v0)
80007b00:	ac420000 	sw	v0,0(v0)
80007b04:	ac400008 	sw	zero,8(v0)
80007b08:	ac40000c 	sw	zero,12(v0)
80007b0c:	ac400010 	sw	zero,16(v0)
80007b10:	ac400014 	sw	zero,20(v0)
80007b14:	ac400018 	sw	zero,24(v0)
80007b18:	2444001c 	addiu	a0,v0,28
80007b1c:	24050001 	li	a1,1
80007b20:	0c0022f3 	jal	80008bcc <sem_init>
80007b24:	afa20010 	sw	v0,16(sp)
80007b28:	8fa20010 	lw	v0,16(sp)
80007b2c:	8fbf001c 	lw	ra,28(sp)
80007b30:	00000000 	nop
80007b34:	03e00008 	jr	ra
80007b38:	27bd0020 	addiu	sp,sp,32

80007b3c <vma_create>:
80007b3c:	27bdffe0 	addiu	sp,sp,-32
80007b40:	afb00018 	sw	s0,24(sp)
80007b44:	00808021 	move	s0,a0
80007b48:	afa50010 	sw	a1,16(sp)
80007b4c:	afa60014 	sw	a2,20(sp)
80007b50:	afbf001c 	sw	ra,28(sp)
80007b54:	0c001716 	jal	80005c58 <kmalloc>
80007b58:	24040018 	li	a0,24
80007b5c:	8fa50010 	lw	a1,16(sp)
80007b60:	8fa60014 	lw	a2,20(sp)
80007b64:	10400004 	beqz	v0,80007b78 <vma_create+0x3c>
80007b68:	00000000 	nop
80007b6c:	ac500004 	sw	s0,4(v0)
80007b70:	ac450008 	sw	a1,8(v0)
80007b74:	ac46000c 	sw	a2,12(v0)
80007b78:	8fbf001c 	lw	ra,28(sp)
80007b7c:	8fb00018 	lw	s0,24(sp)
80007b80:	03e00008 	jr	ra
80007b84:	27bd0020 	addiu	sp,sp,32

80007b88 <find_vma>:
80007b88:	10800017 	beqz	a0,80007be8 <find_vma+0x60>
80007b8c:	00001021 	move	v0,zero
80007b90:	8c820008 	lw	v0,8(a0)
80007b94:	00000000 	nop
80007b98:	10400006 	beqz	v0,80007bb4 <find_vma+0x2c>
80007b9c:	00801821 	move	v1,a0
80007ba0:	8c430004 	lw	v1,4(v0)
80007ba4:	00000000 	nop
80007ba8:	00a3182b 	sltu	v1,a1,v1
80007bac:	10600010 	beqz	v1,80007bf0 <find_vma+0x68>
80007bb0:	00801821 	move	v1,a0
80007bb4:	8c630004 	lw	v1,4(v1)
80007bb8:	00000000 	nop
80007bbc:	1083000a 	beq	a0,v1,80007be8 <find_vma+0x60>
80007bc0:	00001021 	move	v0,zero
80007bc4:	8c66fff8 	lw	a2,-8(v1)
80007bc8:	00000000 	nop
80007bcc:	00a6302b 	sltu	a2,a1,a2
80007bd0:	10c0fff8 	beqz	a2,80007bb4 <find_vma+0x2c>
80007bd4:	2462fff0 	addiu	v0,v1,-16
80007bd8:	10400003 	beqz	v0,80007be8 <find_vma+0x60>
80007bdc:	00000000 	nop
80007be0:	03e00008 	jr	ra
80007be4:	ac820008 	sw	v0,8(a0)
80007be8:	03e00008 	jr	ra
80007bec:	00000000 	nop
80007bf0:	8c430008 	lw	v1,8(v0)
80007bf4:	00000000 	nop
80007bf8:	00a3182b 	sltu	v1,a1,v1
80007bfc:	1060ffed 	beqz	v1,80007bb4 <find_vma+0x2c>
80007c00:	00801821 	move	v1,a0
80007c04:	03e00008 	jr	ra
80007c08:	ac820008 	sw	v0,8(a0)

80007c0c <insert_vma_struct>:
80007c0c:	8ca20004 	lw	v0,4(a1)
80007c10:	8ca30008 	lw	v1,8(a1)
80007c14:	27bdffe8 	addiu	sp,sp,-24
80007c18:	0043302b 	sltu	a2,v0,v1
80007c1c:	10c0002f 	beqz	a2,80007cdc <insert_vma_struct+0xd0>
80007c20:	afbf0014 	sw	ra,20(sp)
80007c24:	08001f0c 	j	80007c30 <insert_vma_struct+0x24>
80007c28:	00803821 	move	a3,a0
80007c2c:	00c03821 	move	a3,a2
80007c30:	8ce60004 	lw	a2,4(a3)
80007c34:	00000000 	nop
80007c38:	10860006 	beq	a0,a2,80007c54 <insert_vma_struct+0x48>
80007c3c:	00000000 	nop
80007c40:	8cc8fff4 	lw	t0,-12(a2)
80007c44:	00000000 	nop
80007c48:	0048402b 	sltu	t0,v0,t0
80007c4c:	1100fff7 	beqz	t0,80007c2c <insert_vma_struct+0x20>
80007c50:	00000000 	nop
80007c54:	10870009 	beq	a0,a3,80007c7c <insert_vma_struct+0x70>
80007c58:	00000000 	nop
80007c5c:	8ce8fff8 	lw	t0,-8(a3)
80007c60:	8ce9fff4 	lw	t1,-12(a3)
80007c64:	00000000 	nop
80007c68:	0128482b 	sltu	t1,t1,t0
80007c6c:	1120002d 	beqz	t1,80007d24 <insert_vma_struct+0x118>
80007c70:	0048102b 	sltu	v0,v0,t0
80007c74:	14400025 	bnez	v0,80007d0c <insert_vma_struct+0x100>
80007c78:	00000000 	nop
80007c7c:	1086000b 	beq	a0,a2,80007cac <insert_vma_struct+0xa0>
80007c80:	00000000 	nop
80007c84:	8cc2fff4 	lw	v0,-12(a2)
80007c88:	00000000 	nop
80007c8c:	0043182b 	sltu	v1,v0,v1
80007c90:	1460001e 	bnez	v1,80007d0c <insert_vma_struct+0x100>
80007c94:	00000000 	nop
80007c98:	8cc3fff8 	lw	v1,-8(a2)
80007c9c:	00000000 	nop
80007ca0:	0043102b 	sltu	v0,v0,v1
80007ca4:	10400013 	beqz	v0,80007cf4 <insert_vma_struct+0xe8>
80007ca8:	00000000 	nop
80007cac:	8c830010 	lw	v1,16(a0)
80007cb0:	8fbf0014 	lw	ra,20(sp)
80007cb4:	24a20010 	addiu	v0,a1,16
80007cb8:	24630001 	addiu	v1,v1,1
80007cbc:	aca40000 	sw	a0,0(a1)
80007cc0:	27bd0018 	addiu	sp,sp,24
80007cc4:	acc20000 	sw	v0,0(a2)
80007cc8:	ace20004 	sw	v0,4(a3)
80007ccc:	aca70010 	sw	a3,16(a1)
80007cd0:	aca60014 	sw	a2,20(a1)
80007cd4:	03e00008 	jr	ra
80007cd8:	ac830010 	sw	v1,16(a0)
80007cdc:	3c048001 	lui	a0,0x8001
80007ce0:	3c068001 	lui	a2,0x8001
80007ce4:	24845e84 	addiu	a0,a0,24196
80007ce8:	24050074 	li	a1,116
80007cec:	0c0009f2 	jal	800027c8 <__panic>
80007cf0:	24c65e94 	addiu	a2,a2,24212
80007cf4:	3c048001 	lui	a0,0x8001
80007cf8:	3c068001 	lui	a2,0x8001
80007cfc:	24845e84 	addiu	a0,a0,24196
80007d00:	2405006d 	li	a1,109
80007d04:	0c0009f2 	jal	800027c8 <__panic>
80007d08:	24c65f28 	addiu	a2,a2,24360
80007d0c:	3c048001 	lui	a0,0x8001
80007d10:	3c068001 	lui	a2,0x8001
80007d14:	24845e84 	addiu	a0,a0,24196
80007d18:	2405006c 	li	a1,108
80007d1c:	0c0009f2 	jal	800027c8 <__panic>
80007d20:	24c65ef4 	addiu	a2,a2,24308
80007d24:	3c048001 	lui	a0,0x8001
80007d28:	3c068001 	lui	a2,0x8001
80007d2c:	24845e84 	addiu	a0,a0,24196
80007d30:	2405006b 	li	a1,107
80007d34:	0c0009f2 	jal	800027c8 <__panic>
80007d38:	24c65ec4 	addiu	a2,a2,24260

80007d3c <mm_destroy>:
80007d3c:	8c820018 	lw	v0,24(a0)
80007d40:	27bdffe8 	addiu	sp,sp,-24
80007d44:	afb00010 	sw	s0,16(sp)
80007d48:	afbf0014 	sw	ra,20(sp)
80007d4c:	14400014 	bnez	v0,80007da0 <mm_destroy+0x64>
80007d50:	00808021 	move	s0,a0
80007d54:	8c840004 	lw	a0,4(a0)
80007d58:	00000000 	nop
80007d5c:	1204000b 	beq	s0,a0,80007d8c <mm_destroy+0x50>
80007d60:	00000000 	nop
80007d64:	8c830000 	lw	v1,0(a0)
80007d68:	8c820004 	lw	v0,4(a0)
80007d6c:	2484fff0 	addiu	a0,a0,-16
80007d70:	ac620004 	sw	v0,4(v1)
80007d74:	0c001740 	jal	80005d00 <kfree>
80007d78:	ac430000 	sw	v1,0(v0)
80007d7c:	8e040004 	lw	a0,4(s0)
80007d80:	00000000 	nop
80007d84:	1604fff7 	bne	s0,a0,80007d64 <mm_destroy+0x28>
80007d88:	00000000 	nop
80007d8c:	02002021 	move	a0,s0
80007d90:	8fbf0014 	lw	ra,20(sp)
80007d94:	8fb00010 	lw	s0,16(sp)
80007d98:	08001740 	j	80005d00 <kfree>
80007d9c:	27bd0018 	addiu	sp,sp,24
80007da0:	3c048001 	lui	a0,0x8001
80007da4:	3c068001 	lui	a2,0x8001
80007da8:	24845e84 	addiu	a0,a0,24196
80007dac:	24050094 	li	a1,148
80007db0:	0c0009f2 	jal	800027c8 <__panic>
80007db4:	24c65f58 	addiu	a2,a2,24408

80007db8 <mm_map>:
80007db8:	27bdffd0 	addiu	sp,sp,-48
80007dbc:	afb0001c 	sw	s0,28(sp)
80007dc0:	2410f000 	li	s0,-4096
80007dc4:	00b08024 	and	s0,a1,s0
80007dc8:	3c021000 	lui	v0,0x1000
80007dcc:	0202102b 	sltu	v0,s0,v0
80007dd0:	afb20024 	sw	s2,36(sp)
80007dd4:	afb10020 	sw	s1,32(sp)
80007dd8:	afbf002c 	sw	ra,44(sp)
80007ddc:	afb30028 	sw	s3,40(sp)
80007de0:	8fb20040 	lw	s2,64(sp)
80007de4:	1440002d 	bnez	v0,80007e9c <mm_map+0xe4>
80007de8:	00808821 	move	s1,a0
80007dec:	24b30fff 	addiu	s3,a1,4095
80007df0:	02669821 	addu	s3,s3,a2
80007df4:	00139b02 	srl	s3,s3,0xc
80007df8:	00139b00 	sll	s3,s3,0xc
80007dfc:	0213102b 	sltu	v0,s0,s3
80007e00:	10400026 	beqz	v0,80007e9c <mm_map+0xe4>
80007e04:	3c028000 	lui	v0,0x8000
80007e08:	24420001 	addiu	v0,v0,1
80007e0c:	0262102b 	sltu	v0,s3,v0
80007e10:	10400023 	beqz	v0,80007ea0 <mm_map+0xe8>
80007e14:	2402fffd 	li	v0,-3
80007e18:	10800032 	beqz	a0,80007ee4 <mm_map+0x12c>
80007e1c:	02002821 	move	a1,s0
80007e20:	0c001ee2 	jal	80007b88 <find_vma>
80007e24:	afa70010 	sw	a3,16(sp)
80007e28:	8fa70010 	lw	a3,16(sp)
80007e2c:	10400007 	beqz	v0,80007e4c <mm_map+0x94>
80007e30:	02002021 	move	a0,s0
80007e34:	8c420004 	lw	v0,4(v0)
80007e38:	00000000 	nop
80007e3c:	0053102b 	sltu	v0,v0,s3
80007e40:	14400017 	bnez	v0,80007ea0 <mm_map+0xe8>
80007e44:	2402fffd 	li	v0,-3
80007e48:	02002021 	move	a0,s0
80007e4c:	02602821 	move	a1,s3
80007e50:	0c001ecf 	jal	80007b3c <vma_create>
80007e54:	00e03021 	move	a2,a3
80007e58:	10400018 	beqz	v0,80007ebc <mm_map+0x104>
80007e5c:	00402821 	move	a1,v0
80007e60:	02202021 	move	a0,s1
80007e64:	0c001f03 	jal	80007c0c <insert_vma_struct>
80007e68:	afa20010 	sw	v0,16(sp)
80007e6c:	8fa20010 	lw	v0,16(sp)
80007e70:	1240001a 	beqz	s2,80007edc <mm_map+0x124>
80007e74:	00000000 	nop
80007e78:	8fbf002c 	lw	ra,44(sp)
80007e7c:	ae420000 	sw	v0,0(s2)
80007e80:	8fb30028 	lw	s3,40(sp)
80007e84:	00001021 	move	v0,zero
80007e88:	8fb20024 	lw	s2,36(sp)
80007e8c:	8fb10020 	lw	s1,32(sp)
80007e90:	8fb0001c 	lw	s0,28(sp)
80007e94:	03e00008 	jr	ra
80007e98:	27bd0030 	addiu	sp,sp,48
80007e9c:	2402fffd 	li	v0,-3
80007ea0:	8fbf002c 	lw	ra,44(sp)
80007ea4:	8fb30028 	lw	s3,40(sp)
80007ea8:	8fb20024 	lw	s2,36(sp)
80007eac:	8fb10020 	lw	s1,32(sp)
80007eb0:	8fb0001c 	lw	s0,28(sp)
80007eb4:	03e00008 	jr	ra
80007eb8:	27bd0030 	addiu	sp,sp,48
80007ebc:	8fbf002c 	lw	ra,44(sp)
80007ec0:	2402fffc 	li	v0,-4
80007ec4:	8fb30028 	lw	s3,40(sp)
80007ec8:	8fb20024 	lw	s2,36(sp)
80007ecc:	8fb10020 	lw	s1,32(sp)
80007ed0:	8fb0001c 	lw	s0,28(sp)
80007ed4:	03e00008 	jr	ra
80007ed8:	27bd0030 	addiu	sp,sp,48
80007edc:	08001fa8 	j	80007ea0 <mm_map+0xe8>
80007ee0:	00001021 	move	v0,zero
80007ee4:	3c048001 	lui	a0,0x8001
80007ee8:	3c068001 	lui	a2,0x8001
80007eec:	24845e84 	addiu	a0,a0,24196
80007ef0:	240500a8 	li	a1,168
80007ef4:	0c0009f2 	jal	800027c8 <__panic>
80007ef8:	24c65f7c 	addiu	a2,a2,24444

80007efc <dup_mmap>:
80007efc:	27bdffd8 	addiu	sp,sp,-40
80007f00:	afb20020 	sw	s2,32(sp)
80007f04:	afb1001c 	sw	s1,28(sp)
80007f08:	afbf0024 	sw	ra,36(sp)
80007f0c:	afb00018 	sw	s0,24(sp)
80007f10:	00809021 	move	s2,a0
80007f14:	10800025 	beqz	a0,80007fac <dup_mmap+0xb0>
80007f18:	00a08821 	move	s1,a1
80007f1c:	10a00023 	beqz	a1,80007fac <dup_mmap+0xb0>
80007f20:	00a08021 	move	s0,a1
80007f24:	8e100000 	lw	s0,0(s0)
80007f28:	00000000 	nop
80007f2c:	12300019 	beq	s1,s0,80007f94 <dup_mmap+0x98>
80007f30:	00001021 	move	v0,zero
80007f34:	8e04fff4 	lw	a0,-12(s0)
80007f38:	8e05fff8 	lw	a1,-8(s0)
80007f3c:	8e06fffc 	lw	a2,-4(s0)
80007f40:	0c001ecf 	jal	80007b3c <vma_create>
80007f44:	00000000 	nop
80007f48:	1040000b 	beqz	v0,80007f78 <dup_mmap+0x7c>
80007f4c:	02402021 	move	a0,s2
80007f50:	0c001f03 	jal	80007c0c <insert_vma_struct>
80007f54:	00402821 	move	a1,v0
80007f58:	8e06fff4 	lw	a2,-12(s0)
80007f5c:	8e07fff8 	lw	a3,-8(s0)
80007f60:	8e44000c 	lw	a0,12(s2)
80007f64:	8e25000c 	lw	a1,12(s1)
80007f68:	0c001dfd 	jal	800077f4 <copy_range>
80007f6c:	afa00010 	sw	zero,16(sp)
80007f70:	1040ffec 	beqz	v0,80007f24 <dup_mmap+0x28>
80007f74:	00000000 	nop
80007f78:	8fbf0024 	lw	ra,36(sp)
80007f7c:	2402fffc 	li	v0,-4
80007f80:	8fb20020 	lw	s2,32(sp)
80007f84:	8fb1001c 	lw	s1,28(sp)
80007f88:	8fb00018 	lw	s0,24(sp)
80007f8c:	03e00008 	jr	ra
80007f90:	27bd0028 	addiu	sp,sp,40
80007f94:	8fbf0024 	lw	ra,36(sp)
80007f98:	8fb20020 	lw	s2,32(sp)
80007f9c:	8fb1001c 	lw	s1,28(sp)
80007fa0:	8fb00018 	lw	s0,24(sp)
80007fa4:	03e00008 	jr	ra
80007fa8:	27bd0028 	addiu	sp,sp,40
80007fac:	3c048001 	lui	a0,0x8001
80007fb0:	3c068001 	lui	a2,0x8001
80007fb4:	24845e84 	addiu	a0,a0,24196
80007fb8:	240500c1 	li	a1,193
80007fbc:	0c0009f2 	jal	800027c8 <__panic>
80007fc0:	24c65f9c 	addiu	a2,a2,24476

80007fc4 <exit_mmap>:
80007fc4:	27bdffe0 	addiu	sp,sp,-32
80007fc8:	afb10014 	sw	s1,20(sp)
80007fcc:	afbf001c 	sw	ra,28(sp)
80007fd0:	afb20018 	sw	s2,24(sp)
80007fd4:	afb00010 	sw	s0,16(sp)
80007fd8:	10800023 	beqz	a0,80008068 <exit_mmap+0xa4>
80007fdc:	00808821 	move	s1,a0
80007fe0:	8c820018 	lw	v0,24(a0)
80007fe4:	00000000 	nop
80007fe8:	1440001f 	bnez	v0,80008068 <exit_mmap+0xa4>
80007fec:	00000000 	nop
80007ff0:	8c900004 	lw	s0,4(a0)
80007ff4:	8c92000c 	lw	s2,12(a0)
80007ff8:	10900011 	beq	a0,s0,80008040 <exit_mmap+0x7c>
80007ffc:	00000000 	nop
80008000:	8e05fff4 	lw	a1,-12(s0)
80008004:	8e06fff8 	lw	a2,-8(s0)
80008008:	0c001d27 	jal	8000749c <unmap_range>
8000800c:	02402021 	move	a0,s2
80008010:	8e100004 	lw	s0,4(s0)
80008014:	00000000 	nop
80008018:	1630fff9 	bne	s1,s0,80008000 <exit_mmap+0x3c>
8000801c:	00000000 	nop
80008020:	8e100004 	lw	s0,4(s0)
80008024:	00000000 	nop
80008028:	12300009 	beq	s1,s0,80008050 <exit_mmap+0x8c>
8000802c:	00000000 	nop
80008030:	8e05fff4 	lw	a1,-12(s0)
80008034:	8e06fff8 	lw	a2,-8(s0)
80008038:	0c001da6 	jal	80007698 <exit_range>
8000803c:	02402021 	move	a0,s2
80008040:	8e100004 	lw	s0,4(s0)
80008044:	00000000 	nop
80008048:	1630fff9 	bne	s1,s0,80008030 <exit_mmap+0x6c>
8000804c:	00000000 	nop
80008050:	8fbf001c 	lw	ra,28(sp)
80008054:	8fb20018 	lw	s2,24(sp)
80008058:	8fb10014 	lw	s1,20(sp)
8000805c:	8fb00010 	lw	s0,16(sp)
80008060:	03e00008 	jr	ra
80008064:	27bd0020 	addiu	sp,sp,32
80008068:	3c048001 	lui	a0,0x8001
8000806c:	3c068001 	lui	a2,0x8001
80008070:	24845e84 	addiu	a0,a0,24196
80008074:	240500d7 	li	a1,215
80008078:	0c0009f2 	jal	800027c8 <__panic>
8000807c:	24c65fcc 	addiu	a2,a2,24524

80008080 <vmm_init>:
80008080:	27bdffd0 	addiu	sp,sp,-48
80008084:	afbf002c 	sw	ra,44(sp)
80008088:	afb40024 	sw	s4,36(sp)
8000808c:	afb30020 	sw	s3,32(sp)
80008090:	afb10018 	sw	s1,24(sp)
80008094:	afb50028 	sw	s5,40(sp)
80008098:	afb2001c 	sw	s2,28(sp)
8000809c:	0c0017dd 	jal	80005f74 <nr_free_pages>
800080a0:	afb00014 	sw	s0,20(sp)
800080a4:	0c0017dd 	jal	80005f74 <nr_free_pages>
800080a8:	00409821 	move	s3,v0
800080ac:	0c001eb9 	jal	80007ae4 <mm_create>
800080b0:	0040a021 	move	s4,v0
800080b4:	104000f2 	beqz	v0,80008480 <vmm_init+0x400>
800080b8:	00408821 	move	s1,v0
800080bc:	24100032 	li	s0,50
800080c0:	2412fffb 	li	s2,-5
800080c4:	02002021 	move	a0,s0
800080c8:	26050002 	addiu	a1,s0,2
800080cc:	0c001ecf 	jal	80007b3c <vma_create>
800080d0:	00003021 	move	a2,zero
800080d4:	104000c0 	beqz	v0,800083d8 <vmm_init+0x358>
800080d8:	2610fffb 	addiu	s0,s0,-5
800080dc:	02202021 	move	a0,s1
800080e0:	0c001f03 	jal	80007c0c <insert_vma_struct>
800080e4:	00402821 	move	a1,v0
800080e8:	1612fff7 	bne	s0,s2,800080c8 <vmm_init+0x48>
800080ec:	02002021 	move	a0,s0
800080f0:	24100037 	li	s0,55
800080f4:	241201f9 	li	s2,505
800080f8:	02002021 	move	a0,s0
800080fc:	26050002 	addiu	a1,s0,2
80008100:	0c001ecf 	jal	80007b3c <vma_create>
80008104:	00003021 	move	a2,zero
80008108:	104000a1 	beqz	v0,80008390 <vmm_init+0x310>
8000810c:	26100005 	addiu	s0,s0,5
80008110:	02202021 	move	a0,s1
80008114:	0c001f03 	jal	80007c0c <insert_vma_struct>
80008118:	00402821 	move	a1,v0
8000811c:	1612fff7 	bne	s0,s2,800080fc <vmm_init+0x7c>
80008120:	02002021 	move	a0,s0
80008124:	8e220004 	lw	v0,4(s1)
80008128:	24030002 	li	v1,2
8000812c:	240601fb 	li	a2,507
80008130:	1222009d 	beq	s1,v0,800083a8 <vmm_init+0x328>
80008134:	2464fffe 	addiu	a0,v1,-2
80008138:	8c45fff4 	lw	a1,-12(v0)
8000813c:	00000000 	nop
80008140:	14a40088 	bne	a1,a0,80008364 <vmm_init+0x2e4>
80008144:	3c048001 	lui	a0,0x8001
80008148:	8c44fff8 	lw	a0,-8(v0)
8000814c:	00000000 	nop
80008150:	14830083 	bne	a0,v1,80008360 <vmm_init+0x2e0>
80008154:	24630005 	addiu	v1,v1,5
80008158:	8c420004 	lw	v0,4(v0)
8000815c:	1466fff4 	bne	v1,a2,80008130 <vmm_init+0xb0>
80008160:	02202021 	move	a0,s1
80008164:	00008021 	move	s0,zero
80008168:	241201f6 	li	s2,502
8000816c:	0c001ee2 	jal	80007b88 <find_vma>
80008170:	02002821 	move	a1,s0
80008174:	10400092 	beqz	v0,800083c0 <vmm_init+0x340>
80008178:	001028c2 	srl	a1,s0,0x3
8000817c:	00102102 	srl	a0,s0,0x4
80008180:	00852021 	addu	a0,a0,a1
80008184:	00041902 	srl	v1,a0,0x4
80008188:	00642021 	addu	a0,v1,a0
8000818c:	00041880 	sll	v1,a0,0x2
80008190:	00641821 	addu	v1,v1,a0
80008194:	02031823 	subu	v1,s0,v1
80008198:	00032880 	sll	a1,v1,0x2
8000819c:	00033100 	sll	a2,v1,0x4
800081a0:	00c52823 	subu	a1,a2,a1
800081a4:	00a31821 	addu	v1,a1,v1
800081a8:	00031982 	srl	v1,v1,0x6
800081ac:	00642021 	addu	a0,v1,a0
800081b0:	00041880 	sll	v1,a0,0x2
800081b4:	00641821 	addu	v1,v1,a0
800081b8:	24650001 	addiu	a1,v1,1
800081bc:	00b0282a 	slt	a1,a1,s0
800081c0:	10a00003 	beqz	a1,800081d0 <vmm_init+0x150>
800081c4:	24840001 	addiu	a0,a0,1
800081c8:	00041880 	sll	v1,a0,0x2
800081cc:	00641821 	addu	v1,v1,a0
800081d0:	8c440004 	lw	a0,4(v0)
800081d4:	00000000 	nop
800081d8:	14830067 	bne	a0,v1,80008378 <vmm_init+0x2f8>
800081dc:	24630002 	addiu	v1,v1,2
800081e0:	8c420008 	lw	v0,8(v0)
800081e4:	00000000 	nop
800081e8:	14430063 	bne	v0,v1,80008378 <vmm_init+0x2f8>
800081ec:	26100001 	addiu	s0,s0,1
800081f0:	1612ffde 	bne	s0,s2,8000816c <vmm_init+0xec>
800081f4:	02202021 	move	a0,s1
800081f8:	0c001f4f 	jal	80007d3c <mm_destroy>
800081fc:	02202021 	move	a0,s1
80008200:	0c0017dd 	jal	80005f74 <nr_free_pages>
80008204:	00000000 	nop
80008208:	16820097 	bne	s4,v0,80008468 <vmm_init+0x3e8>
8000820c:	3c048001 	lui	a0,0x8001
80008210:	0c000727 	jal	80001c9c <kprintf>
80008214:	24846118 	addiu	a0,a0,24856
80008218:	0c0017dd 	jal	80005f74 <nr_free_pages>
8000821c:	3c12800e 	lui	s2,0x800e
80008220:	0c001eb9 	jal	80007ae4 <mm_create>
80008224:	0040a021 	move	s4,v0
80008228:	00408021 	move	s0,v0
8000822c:	1040009a 	beqz	v0,80008498 <vmm_init+0x418>
80008230:	ae42a9b8 	sw	v0,-22088(s2)
80008234:	3c02800d 	lui	v0,0x800d
80008238:	8c517cf8 	lw	s1,31992(v0)
8000823c:	00000000 	nop
80008240:	8e220000 	lw	v0,0(s1)
80008244:	00000000 	nop
80008248:	14400099 	bnez	v0,800084b0 <vmm_init+0x430>
8000824c:	ae11000c 	sw	s1,12(s0)
80008250:	00002021 	move	a0,zero
80008254:	3c050040 	lui	a1,0x40
80008258:	0c001ecf 	jal	80007b3c <vma_create>
8000825c:	24060002 	li	a2,2
80008260:	10400069 	beqz	v0,80008408 <vmm_init+0x388>
80008264:	0040a821 	move	s5,v0
80008268:	00402821 	move	a1,v0
8000826c:	0c001f03 	jal	80007c0c <insert_vma_struct>
80008270:	02002021 	move	a0,s0
80008274:	02002021 	move	a0,s0
80008278:	0c001ee2 	jal	80007b88 <find_vma>
8000827c:	24050100 	li	a1,256
80008280:	16a20091 	bne	s5,v0,800084c8 <vmm_init+0x448>
80008284:	00001021 	move	v0,zero
80008288:	24030064 	li	v1,100
8000828c:	a0420100 	sb	v0,256(v0)
80008290:	24420001 	addiu	v0,v0,1
80008294:	1443fffd 	bne	v0,v1,8000828c <vmm_init+0x20c>
80008298:	00000000 	nop
8000829c:	24031356 	li	v1,4950
800082a0:	00001021 	move	v0,zero
800082a4:	24050064 	li	a1,100
800082a8:	90440100 	lbu	a0,256(v0)
800082ac:	24420001 	addiu	v0,v0,1
800082b0:	1445fffd 	bne	v0,a1,800082a8 <vmm_init+0x228>
800082b4:	00641823 	subu	v1,v1,a0
800082b8:	14600065 	bnez	v1,80008450 <vmm_init+0x3d0>
800082bc:	02202021 	move	a0,s1
800082c0:	0c00188d 	jal	80006234 <page_remove>
800082c4:	00002821 	move	a1,zero
800082c8:	8e230000 	lw	v1,0(s1)
800082cc:	3c028000 	lui	v0,0x8000
800082d0:	00621021 	addu	v0,v1,v0
800082d4:	3c03800d 	lui	v1,0x800d
800082d8:	8c637cfc 	lw	v1,31996(v1)
800082dc:	00021302 	srl	v0,v0,0xc
800082e0:	0043182b 	sltu	v1,v0,v1
800082e4:	10600054 	beqz	v1,80008438 <vmm_init+0x3b8>
800082e8:	3c03800e 	lui	v1,0x800e
800082ec:	8c64a9b4 	lw	a0,-22092(v1)
800082f0:	00021140 	sll	v0,v0,0x5
800082f4:	00822021 	addu	a0,a0,v0
800082f8:	0c0017bc 	jal	80005ef0 <free_pages>
800082fc:	24050001 	li	a1,1
80008300:	ae200000 	sw	zero,0(s1)
80008304:	02002021 	move	a0,s0
80008308:	0c001f4f 	jal	80007d3c <mm_destroy>
8000830c:	ae00000c 	sw	zero,12(s0)
80008310:	0c0017dd 	jal	80005f74 <nr_free_pages>
80008314:	ae40a9b8 	sw	zero,-22088(s2)
80008318:	16820041 	bne	s4,v0,80008420 <vmm_init+0x3a0>
8000831c:	3c048001 	lui	a0,0x8001
80008320:	0c000727 	jal	80001c9c <kprintf>
80008324:	248461cc 	addiu	a0,a0,25036
80008328:	0c0017dd 	jal	80005f74 <nr_free_pages>
8000832c:	00000000 	nop
80008330:	1662002f 	bne	s3,v0,800083f0 <vmm_init+0x370>
80008334:	3c048001 	lui	a0,0x8001
80008338:	8fbf002c 	lw	ra,44(sp)
8000833c:	8fb50028 	lw	s5,40(sp)
80008340:	8fb40024 	lw	s4,36(sp)
80008344:	8fb30020 	lw	s3,32(sp)
80008348:	8fb2001c 	lw	s2,28(sp)
8000834c:	8fb10018 	lw	s1,24(sp)
80008350:	8fb00014 	lw	s0,20(sp)
80008354:	248461e8 	addiu	a0,a0,25064
80008358:	08000727 	j	80001c9c <kprintf>
8000835c:	27bd0030 	addiu	sp,sp,48
80008360:	3c048001 	lui	a0,0x8001
80008364:	3c068001 	lui	a2,0x8001
80008368:	24845e84 	addiu	a0,a0,24196
8000836c:	24050126 	li	a1,294
80008370:	0c0009f2 	jal	800027c8 <__panic>
80008374:	24c6604c 	addiu	a2,a2,24652
80008378:	3c048001 	lui	a0,0x8001
8000837c:	3c068001 	lui	a2,0x8001
80008380:	24845e84 	addiu	a0,a0,24196
80008384:	24050131 	li	a1,305
80008388:	0c0009f2 	jal	800027c8 <__panic>
8000838c:	24c66094 	addiu	a2,a2,24724
80008390:	3c048001 	lui	a0,0x8001
80008394:	3c068001 	lui	a2,0x8001
80008398:	24845e84 	addiu	a0,a0,24196
8000839c:	2405011d 	li	a1,285
800083a0:	0c0009f2 	jal	800027c8 <__panic>
800083a4:	24c66000 	addiu	a2,a2,24576
800083a8:	3c048001 	lui	a0,0x8001
800083ac:	3c068001 	lui	a2,0x8001
800083b0:	24845e84 	addiu	a0,a0,24196
800083b4:	24050124 	li	a1,292
800083b8:	0c0009f2 	jal	800027c8 <__panic>
800083bc:	24c66020 	addiu	a2,a2,24608
800083c0:	3c048001 	lui	a0,0x8001
800083c4:	3c068001 	lui	a2,0x8001
800083c8:	24845e84 	addiu	a0,a0,24196
800083cc:	2405012c 	li	a1,300
800083d0:	0c0009f2 	jal	800027c8 <__panic>
800083d4:	24c66000 	addiu	a2,a2,24576
800083d8:	3c048001 	lui	a0,0x8001
800083dc:	3c068001 	lui	a2,0x8001
800083e0:	24845e84 	addiu	a0,a0,24196
800083e4:	24050117 	li	a1,279
800083e8:	0c0009f2 	jal	800027c8 <__panic>
800083ec:	24c66000 	addiu	a2,a2,24576
800083f0:	3c048001 	lui	a0,0x8001
800083f4:	3c068001 	lui	a2,0x8001
800083f8:	24845e84 	addiu	a0,a0,24196
800083fc:	24050106 	li	a1,262
80008400:	0c0009f2 	jal	800027c8 <__panic>
80008404:	24c660dc 	addiu	a2,a2,24796
80008408:	3c048001 	lui	a0,0x8001
8000840c:	3c068001 	lui	a2,0x8001
80008410:	24845e84 	addiu	a0,a0,24196
80008414:	2405014a 	li	a1,330
80008418:	0c0009f2 	jal	800027c8 <__panic>
8000841c:	24c66000 	addiu	a2,a2,24576
80008420:	3c048001 	lui	a0,0x8001
80008424:	3c068001 	lui	a2,0x8001
80008428:	24845e84 	addiu	a0,a0,24196
8000842c:	24050163 	li	a1,355
80008430:	0c0009f2 	jal	800027c8 <__panic>
80008434:	24c660dc 	addiu	a2,a2,24796
80008438:	3c048001 	lui	a0,0x8001
8000843c:	3c068001 	lui	a2,0x8001
80008440:	24845508 	addiu	a0,a0,21768
80008444:	24050062 	li	a1,98
80008448:	0c0009f2 	jal	800027c8 <__panic>
8000844c:	24c65560 	addiu	a2,a2,21856
80008450:	3c048001 	lui	a0,0x8001
80008454:	3c068001 	lui	a2,0x8001
80008458:	24845e84 	addiu	a0,a0,24196
8000845c:	24050159 	li	a1,345
80008460:	0c0009f2 	jal	800027c8 <__panic>
80008464:	24c661b0 	addiu	a2,a2,25008
80008468:	3c048001 	lui	a0,0x8001
8000846c:	3c068001 	lui	a2,0x8001
80008470:	24845e84 	addiu	a0,a0,24196
80008474:	24050136 	li	a1,310
80008478:	0c0009f2 	jal	800027c8 <__panic>
8000847c:	24c660dc 	addiu	a2,a2,24796
80008480:	3c048001 	lui	a0,0x8001
80008484:	3c068001 	lui	a2,0x8001
80008488:	24845e84 	addiu	a0,a0,24196
8000848c:	24050110 	li	a1,272
80008490:	0c0009f2 	jal	800027c8 <__panic>
80008494:	24c65f7c 	addiu	a2,a2,24444
80008498:	3c048001 	lui	a0,0x8001
8000849c:	3c068001 	lui	a2,0x8001
800084a0:	24845e84 	addiu	a0,a0,24196
800084a4:	24050143 	li	a1,323
800084a8:	0c0009f2 	jal	800027c8 <__panic>
800084ac:	24c66138 	addiu	a2,a2,24888
800084b0:	3c048001 	lui	a0,0x8001
800084b4:	3c068001 	lui	a2,0x8001
800084b8:	24845e84 	addiu	a0,a0,24196
800084bc:	24050147 	li	a1,327
800084c0:	0c0009f2 	jal	800027c8 <__panic>
800084c4:	24c66164 	addiu	a2,a2,24932
800084c8:	3c048001 	lui	a0,0x8001
800084cc:	3c068001 	lui	a2,0x8001
800084d0:	24845e84 	addiu	a0,a0,24196
800084d4:	2405014f 	li	a1,335
800084d8:	0c0009f2 	jal	800027c8 <__panic>
800084dc:	24c66184 	addiu	a2,a2,24964

800084e0 <do_pgfault>:
800084e0:	27bdffd8 	addiu	sp,sp,-40
800084e4:	afb1001c 	sw	s1,28(sp)
800084e8:	00a08821 	move	s1,a1
800084ec:	00c02821 	move	a1,a2
800084f0:	afb00018 	sw	s0,24(sp)
800084f4:	afa60010 	sw	a2,16(sp)
800084f8:	00808021 	move	s0,a0
800084fc:	afbf0024 	sw	ra,36(sp)
80008500:	0c001ee2 	jal	80007b88 <find_vma>
80008504:	afb20020 	sw	s2,32(sp)
80008508:	3c03800d 	lui	v1,0x800d
8000850c:	8c647d04 	lw	a0,32004(v1)
80008510:	8fa60010 	lw	a2,16(sp)
80008514:	24840001 	addiu	a0,a0,1
80008518:	ac647d04 	sw	a0,32004(v1)
8000851c:	1040004d 	beqz	v0,80008654 <do_pgfault+0x174>
80008520:	00000000 	nop
80008524:	8c430004 	lw	v1,4(v0)
80008528:	00000000 	nop
8000852c:	00c3182b 	sltu	v1,a2,v1
80008530:	14600048 	bnez	v1,80008654 <do_pgfault+0x174>
80008534:	32310003 	andi	s1,s1,0x3
80008538:	16200023 	bnez	s1,800085c8 <do_pgfault+0xe8>
8000853c:	24030001 	li	v1,1
80008540:	8c42000c 	lw	v0,12(v0)
80008544:	00000000 	nop
80008548:	30430005 	andi	v1,v0,0x5
8000854c:	10600047 	beqz	v1,8000866c <do_pgfault+0x18c>
80008550:	3c048001 	lui	a0,0x8001
80008554:	30420002 	andi	v0,v0,0x2
80008558:	14400002 	bnez	v0,80008564 <do_pgfault+0x84>
8000855c:	24120006 	li	s2,6
80008560:	24120004 	li	s2,4
80008564:	2411f000 	li	s1,-4096
80008568:	00d18824 	and	s1,a2,s1
8000856c:	8e04000c 	lw	a0,12(s0)
80008570:	02202821 	move	a1,s1
80008574:	0c0017f9 	jal	80005fe4 <get_pte>
80008578:	24060001 	li	a2,1
8000857c:	1040000b 	beqz	v0,800085ac <do_pgfault+0xcc>
80008580:	00000000 	nop
80008584:	8c450000 	lw	a1,0(v0)
80008588:	00000000 	nop
8000858c:	10a00020 	beqz	a1,80008610 <do_pgfault+0x130>
80008590:	3c02800d 	lui	v0,0x800d
80008594:	8c427d08 	lw	v0,32008(v0)
80008598:	00000000 	nop
8000859c:	14400037 	bnez	v0,8000867c <do_pgfault+0x19c>
800085a0:	3c048001 	lui	a0,0x8001
800085a4:	0c000727 	jal	80001c9c <kprintf>
800085a8:	248462a8 	addiu	a0,a0,25256
800085ac:	2402fffc 	li	v0,-4
800085b0:	8fbf0024 	lw	ra,36(sp)
800085b4:	8fb20020 	lw	s2,32(sp)
800085b8:	8fb1001c 	lw	s1,28(sp)
800085bc:	8fb00018 	lw	s0,24(sp)
800085c0:	03e00008 	jr	ra
800085c4:	27bd0028 	addiu	sp,sp,40
800085c8:	12230008 	beq	s1,v1,800085ec <do_pgfault+0x10c>
800085cc:	3c048001 	lui	a0,0x8001
800085d0:	8c42000c 	lw	v0,12(v0)
800085d4:	00000000 	nop
800085d8:	30420002 	andi	v0,v0,0x2
800085dc:	10400018 	beqz	v0,80008640 <do_pgfault+0x160>
800085e0:	24120006 	li	s2,6
800085e4:	0800215a 	j	80008568 <do_pgfault+0x88>
800085e8:	2411f000 	li	s1,-4096
800085ec:	0c000727 	jal	80001c9c <kprintf>
800085f0:	2484625c 	addiu	a0,a0,25180
800085f4:	8fbf0024 	lw	ra,36(sp)
800085f8:	2402fffd 	li	v0,-3
800085fc:	8fb20020 	lw	s2,32(sp)
80008600:	8fb1001c 	lw	s1,28(sp)
80008604:	8fb00018 	lw	s0,24(sp)
80008608:	03e00008 	jr	ra
8000860c:	27bd0028 	addiu	sp,sp,40
80008610:	8e04000c 	lw	a0,12(s0)
80008614:	02202821 	move	a1,s1
80008618:	0c001964 	jal	80006590 <pgdir_alloc_page>
8000861c:	02403021 	move	a2,s2
80008620:	1040ffe2 	beqz	v0,800085ac <do_pgfault+0xcc>
80008624:	00001021 	move	v0,zero
80008628:	8fbf0024 	lw	ra,36(sp)
8000862c:	8fb20020 	lw	s2,32(sp)
80008630:	8fb1001c 	lw	s1,28(sp)
80008634:	8fb00018 	lw	s0,24(sp)
80008638:	03e00008 	jr	ra
8000863c:	27bd0028 	addiu	sp,sp,40
80008640:	3c048001 	lui	a0,0x8001
80008644:	0c000727 	jal	80001c9c <kprintf>
80008648:	24846230 	addiu	a0,a0,25136
8000864c:	0800216c 	j	800085b0 <do_pgfault+0xd0>
80008650:	2402fffd 	li	v0,-3
80008654:	3c048001 	lui	a0,0x8001
80008658:	24846200 	addiu	a0,a0,25088
8000865c:	0c000727 	jal	80001c9c <kprintf>
80008660:	00c02821 	move	a1,a2
80008664:	0800216c 	j	800085b0 <do_pgfault+0xd0>
80008668:	2402fffd 	li	v0,-3
8000866c:	0c000727 	jal	80001c9c <kprintf>
80008670:	24846280 	addiu	a0,a0,25216
80008674:	0800216c 	j	800085b0 <do_pgfault+0xd0>
80008678:	2402fffd 	li	v0,-3
8000867c:	3c048001 	lui	a0,0x8001
80008680:	3c068001 	lui	a2,0x8001
80008684:	24845e84 	addiu	a0,a0,24196
80008688:	240501a6 	li	a1,422
8000868c:	0c0009f2 	jal	800027c8 <__panic>
80008690:	24c656a0 	addiu	a2,a2,22176

80008694 <user_mem_check>:
80008694:	27bdffd8 	addiu	sp,sp,-40
80008698:	afb3001c 	sw	s3,28(sp)
8000869c:	afb10014 	sw	s1,20(sp)
800086a0:	afb00010 	sw	s0,16(sp)
800086a4:	afbf0024 	sw	ra,36(sp)
800086a8:	afb40020 	sw	s4,32(sp)
800086ac:	afb20018 	sw	s2,24(sp)
800086b0:	00808821 	move	s1,a0
800086b4:	00a08021 	move	s0,a1
800086b8:	10800032 	beqz	a0,80008784 <user_mem_check+0xf0>
800086bc:	00e09821 	move	s3,a3
800086c0:	3c021000 	lui	v0,0x1000
800086c4:	00a2102b 	sltu	v0,a1,v0
800086c8:	14400025 	bnez	v0,80008760 <user_mem_check+0xcc>
800086cc:	00c59021 	addu	s2,a2,a1
800086d0:	00b2102b 	sltu	v0,a1,s2
800086d4:	10400022 	beqz	v0,80008760 <user_mem_check+0xcc>
800086d8:	3c028000 	lui	v0,0x8000
800086dc:	24420001 	addiu	v0,v0,1
800086e0:	0242102b 	sltu	v0,s2,v0
800086e4:	1040001e 	beqz	v0,80008760 <user_mem_check+0xcc>
800086e8:	2ce20001 	sltiu	v0,a3,1
800086ec:	24140002 	li	s4,2
800086f0:	080021d3 	j	8000874c <user_mem_check+0xb8>
800086f4:	0282a023 	subu	s4,s4,v0
800086f8:	8c440004 	lw	a0,4(v0)
800086fc:	00000000 	nop
80008700:	0204182b 	sltu	v1,s0,a0
80008704:	14600016 	bnez	v1,80008760 <user_mem_check+0xcc>
80008708:	00000000 	nop
8000870c:	8c43000c 	lw	v1,12(v0)
80008710:	00000000 	nop
80008714:	02832824 	and	a1,s4,v1
80008718:	10a00011 	beqz	a1,80008760 <user_mem_check+0xcc>
8000871c:	30630008 	andi	v1,v1,0x8
80008720:	12600005 	beqz	s3,80008738 <user_mem_check+0xa4>
80008724:	24841000 	addiu	a0,a0,4096
80008728:	10600003 	beqz	v1,80008738 <user_mem_check+0xa4>
8000872c:	0204202b 	sltu	a0,s0,a0
80008730:	1480000b 	bnez	a0,80008760 <user_mem_check+0xcc>
80008734:	00000000 	nop
80008738:	8c500008 	lw	s0,8(v0)
8000873c:	00000000 	nop
80008740:	0212102b 	sltu	v0,s0,s2
80008744:	10400007 	beqz	v0,80008764 <user_mem_check+0xd0>
80008748:	24020001 	li	v0,1
8000874c:	02002821 	move	a1,s0
80008750:	0c001ee2 	jal	80007b88 <find_vma>
80008754:	02202021 	move	a0,s1
80008758:	1440ffe7 	bnez	v0,800086f8 <user_mem_check+0x64>
8000875c:	00000000 	nop
80008760:	00001021 	move	v0,zero
80008764:	8fbf0024 	lw	ra,36(sp)
80008768:	8fb40020 	lw	s4,32(sp)
8000876c:	8fb3001c 	lw	s3,28(sp)
80008770:	8fb20018 	lw	s2,24(sp)
80008774:	8fb10014 	lw	s1,20(sp)
80008778:	8fb00010 	lw	s0,16(sp)
8000877c:	03e00008 	jr	ra
80008780:	27bd0028 	addiu	sp,sp,40
80008784:	04a1fff7 	bgez	a1,80008764 <user_mem_check+0xd0>
80008788:	00001021 	move	v0,zero
8000878c:	00c53021 	addu	a2,a2,a1
80008790:	00a6802b 	sltu	s0,a1,a2
80008794:	1200fff3 	beqz	s0,80008764 <user_mem_check+0xd0>
80008798:	00000000 	nop
8000879c:	3c02807f 	lui	v0,0x807f
800087a0:	3442fff1 	ori	v0,v0,0xfff1
800087a4:	080021d9 	j	80008764 <user_mem_check+0xd0>
800087a8:	00c2102b 	sltu	v0,a2,v0

800087ac <copy_to_user>:
800087ac:	27bdffe0 	addiu	sp,sp,-32
800087b0:	afb00010 	sw	s0,16(sp)
800087b4:	00e08021 	move	s0,a3
800087b8:	afb10014 	sw	s1,20(sp)
800087bc:	24070001 	li	a3,1
800087c0:	00c08821 	move	s1,a2
800087c4:	02003021 	move	a2,s0
800087c8:	afb20018 	sw	s2,24(sp)
800087cc:	afbf001c 	sw	ra,28(sp)
800087d0:	0c0021a5 	jal	80008694 <user_mem_check>
800087d4:	00a09021 	move	s2,a1
800087d8:	14400007 	bnez	v0,800087f8 <copy_to_user+0x4c>
800087dc:	00001021 	move	v0,zero
800087e0:	8fbf001c 	lw	ra,28(sp)
800087e4:	8fb20018 	lw	s2,24(sp)
800087e8:	8fb10014 	lw	s1,20(sp)
800087ec:	8fb00010 	lw	s0,16(sp)
800087f0:	03e00008 	jr	ra
800087f4:	27bd0020 	addiu	sp,sp,32
800087f8:	02402021 	move	a0,s2
800087fc:	02202821 	move	a1,s1
80008800:	0c000847 	jal	8000211c <memcpy>
80008804:	02003021 	move	a2,s0
80008808:	8fbf001c 	lw	ra,28(sp)
8000880c:	24020001 	li	v0,1
80008810:	8fb20018 	lw	s2,24(sp)
80008814:	8fb10014 	lw	s1,20(sp)
80008818:	8fb00010 	lw	s0,16(sp)
8000881c:	03e00008 	jr	ra
80008820:	27bd0020 	addiu	sp,sp,32

80008824 <copy_from_user>:
80008824:	27bdffe0 	addiu	sp,sp,-32
80008828:	afb10014 	sw	s1,20(sp)
8000882c:	afb00010 	sw	s0,16(sp)
80008830:	00c08821 	move	s1,a2
80008834:	00e08021 	move	s0,a3
80008838:	8fa70030 	lw	a3,48(sp)
8000883c:	afb20018 	sw	s2,24(sp)
80008840:	02003021 	move	a2,s0
80008844:	00a09021 	move	s2,a1
80008848:	afbf001c 	sw	ra,28(sp)
8000884c:	0c0021a5 	jal	80008694 <user_mem_check>
80008850:	02202821 	move	a1,s1
80008854:	14400007 	bnez	v0,80008874 <copy_from_user+0x50>
80008858:	00001021 	move	v0,zero
8000885c:	8fbf001c 	lw	ra,28(sp)
80008860:	8fb20018 	lw	s2,24(sp)
80008864:	8fb10014 	lw	s1,20(sp)
80008868:	8fb00010 	lw	s0,16(sp)
8000886c:	03e00008 	jr	ra
80008870:	27bd0020 	addiu	sp,sp,32
80008874:	02402021 	move	a0,s2
80008878:	02202821 	move	a1,s1
8000887c:	0c000847 	jal	8000211c <memcpy>
80008880:	02003021 	move	a2,s0
80008884:	8fbf001c 	lw	ra,28(sp)
80008888:	24020001 	li	v0,1
8000888c:	8fb20018 	lw	s2,24(sp)
80008890:	8fb10014 	lw	s1,20(sp)
80008894:	8fb00010 	lw	s0,16(sp)
80008898:	03e00008 	jr	ra
8000889c:	27bd0020 	addiu	sp,sp,32

800088a0 <copy_string>:
800088a0:	27bdffd8 	addiu	sp,sp,-40
800088a4:	afb00010 	sw	s0,16(sp)
800088a8:	2402f000 	li	v0,-4096
800088ac:	24d01000 	addiu	s0,a2,4096
800088b0:	02028024 	and	s0,s0,v0
800088b4:	afb40020 	sw	s4,32(sp)
800088b8:	afb3001c 	sw	s3,28(sp)
800088bc:	afb20018 	sw	s2,24(sp)
800088c0:	afb10014 	sw	s1,20(sp)
800088c4:	afbf0024 	sw	ra,36(sp)
800088c8:	00c08821 	move	s1,a2
800088cc:	0080a021 	move	s4,a0
800088d0:	00a09821 	move	s3,a1
800088d4:	00e09021 	move	s2,a3
800088d8:	08002245 	j	80008914 <copy_string+0x74>
800088dc:	02068023 	subu	s0,s0,a2
800088e0:	0c0007bf 	jal	80001efc <strnlen>
800088e4:	00000000 	nop
800088e8:	0050182b 	sltu	v1,v0,s0
800088ec:	02602021 	move	a0,s3
800088f0:	02202821 	move	a1,s1
800088f4:	1460001b 	bnez	v1,80008964 <copy_string+0xc4>
800088f8:	02003021 	move	a2,s0
800088fc:	12500010 	beq	s2,s0,80008940 <copy_string+0xa0>
80008900:	02709821 	addu	s3,s3,s0
80008904:	02308821 	addu	s1,s1,s0
80008908:	0c000847 	jal	8000211c <memcpy>
8000890c:	02509023 	subu	s2,s2,s0
80008910:	24101000 	li	s0,4096
80008914:	0250102b 	sltu	v0,s2,s0
80008918:	00003821 	move	a3,zero
8000891c:	02802021 	move	a0,s4
80008920:	10400002 	beqz	v0,8000892c <copy_string+0x8c>
80008924:	02202821 	move	a1,s1
80008928:	02408021 	move	s0,s2
8000892c:	0c0021a5 	jal	80008694 <user_mem_check>
80008930:	02003021 	move	a2,s0
80008934:	02202021 	move	a0,s1
80008938:	1440ffe9 	bnez	v0,800088e0 <copy_string+0x40>
8000893c:	02002821 	move	a1,s0
80008940:	8fbf0024 	lw	ra,36(sp)
80008944:	00001021 	move	v0,zero
80008948:	8fb40020 	lw	s4,32(sp)
8000894c:	8fb3001c 	lw	s3,28(sp)
80008950:	8fb20018 	lw	s2,24(sp)
80008954:	8fb10014 	lw	s1,20(sp)
80008958:	8fb00010 	lw	s0,16(sp)
8000895c:	03e00008 	jr	ra
80008960:	27bd0028 	addiu	sp,sp,40
80008964:	0c000847 	jal	8000211c <memcpy>
80008968:	24460001 	addiu	a2,v0,1
8000896c:	8fbf0024 	lw	ra,36(sp)
80008970:	24020001 	li	v0,1
80008974:	8fb40020 	lw	s4,32(sp)
80008978:	8fb3001c 	lw	s3,28(sp)
8000897c:	8fb20018 	lw	s2,24(sp)
80008980:	8fb10014 	lw	s1,20(sp)
80008984:	8fb00010 	lw	s0,16(sp)
80008988:	03e00008 	jr	ra
8000898c:	27bd0028 	addiu	sp,sp,40

80008990 <__up.constprop.1>:
80008990:	27bdffe0 	addiu	sp,sp,-32
80008994:	afb20018 	sw	s2,24(sp)
80008998:	afbf001c 	sw	ra,28(sp)
8000899c:	afb10014 	sw	s1,20(sp)
800089a0:	afb00010 	sw	s0,16(sp)
800089a4:	00809021 	move	s2,a0
800089a8:	40026000 	mfc0	v0,c0_status
800089ac:	00000000 	nop
800089b0:	30420001 	andi	v0,v0,0x1
800089b4:	14400018 	bnez	v0,80008a18 <__up.constprop.1+0x88>
800089b8:	26510004 	addiu	s1,s2,4
800089bc:	02202021 	move	a0,s1
800089c0:	0c002393 	jal	80008e4c <wait_queue_first>
800089c4:	00008021 	move	s0,zero
800089c8:	1040001a 	beqz	v0,80008a34 <__up.constprop.1+0xa4>
800089cc:	00000000 	nop
800089d0:	8c430000 	lw	v1,0(v0)
800089d4:	00000000 	nop
800089d8:	8c64008c 	lw	a0,140(v1)
800089dc:	24030100 	li	v1,256
800089e0:	1483001f 	bne	a0,v1,80008a60 <__up.constprop.1+0xd0>
800089e4:	02202021 	move	a0,s1
800089e8:	00402821 	move	a1,v0
800089ec:	24060100 	li	a2,256
800089f0:	0c0023ad 	jal	80008eb4 <wakeup_wait>
800089f4:	24070001 	li	a3,1
800089f8:	16000013 	bnez	s0,80008a48 <__up.constprop.1+0xb8>
800089fc:	00000000 	nop
80008a00:	8fbf001c 	lw	ra,28(sp)
80008a04:	8fb20018 	lw	s2,24(sp)
80008a08:	8fb10014 	lw	s1,20(sp)
80008a0c:	8fb00010 	lw	s0,16(sp)
80008a10:	03e00008 	jr	ra
80008a14:	27bd0020 	addiu	sp,sp,32
80008a18:	0c000b7d 	jal	80002df4 <intr_disable>
80008a1c:	00000000 	nop
80008a20:	02202021 	move	a0,s1
80008a24:	0c002393 	jal	80008e4c <wait_queue_first>
80008a28:	24100001 	li	s0,1
80008a2c:	1440ffe8 	bnez	v0,800089d0 <__up.constprop.1+0x40>
80008a30:	00000000 	nop
80008a34:	8e420000 	lw	v0,0(s2)
80008a38:	00000000 	nop
80008a3c:	24420001 	addiu	v0,v0,1
80008a40:	1200ffef 	beqz	s0,80008a00 <__up.constprop.1+0x70>
80008a44:	ae420000 	sw	v0,0(s2)
80008a48:	8fbf001c 	lw	ra,28(sp)
80008a4c:	8fb20018 	lw	s2,24(sp)
80008a50:	8fb10014 	lw	s1,20(sp)
80008a54:	8fb00010 	lw	s0,16(sp)
80008a58:	08000b77 	j	80002ddc <intr_enable>
80008a5c:	27bd0020 	addiu	sp,sp,32
80008a60:	3c048001 	lui	a0,0x8001
80008a64:	3c068001 	lui	a2,0x8001
80008a68:	248462d0 	addiu	a0,a0,25296
80008a6c:	24050019 	li	a1,25
80008a70:	0c0009f2 	jal	800027c8 <__panic>
80008a74:	24c662e0 	addiu	a2,a2,25312

80008a78 <__down.constprop.0>:
80008a78:	27bdffc0 	addiu	sp,sp,-64
80008a7c:	afbf003c 	sw	ra,60(sp)
80008a80:	afb10038 	sw	s1,56(sp)
80008a84:	afb00034 	sw	s0,52(sp)
80008a88:	40026000 	mfc0	v0,c0_status
80008a8c:	00000000 	nop
80008a90:	30420001 	andi	v0,v0,0x1
80008a94:	14400016 	bnez	v0,80008af0 <__down.constprop.0+0x78>
80008a98:	00000000 	nop
80008a9c:	8c820000 	lw	v0,0(a0)
80008aa0:	00000000 	nop
80008aa4:	1840001a 	blez	v0,80008b10 <__down.constprop.0+0x98>
80008aa8:	00008821 	move	s1,zero
80008aac:	2442ffff 	addiu	v0,v0,-1
80008ab0:	16200007 	bnez	s1,80008ad0 <__down.constprop.0+0x58>
80008ab4:	ac820000 	sw	v0,0(a0)
80008ab8:	8fbf003c 	lw	ra,60(sp)
80008abc:	00001021 	move	v0,zero
80008ac0:	8fb10038 	lw	s1,56(sp)
80008ac4:	8fb00034 	lw	s0,52(sp)
80008ac8:	03e00008 	jr	ra
80008acc:	27bd0040 	addiu	sp,sp,64
80008ad0:	0c000b77 	jal	80002ddc <intr_enable>
80008ad4:	00000000 	nop
80008ad8:	8fbf003c 	lw	ra,60(sp)
80008adc:	00001021 	move	v0,zero
80008ae0:	8fb10038 	lw	s1,56(sp)
80008ae4:	8fb00034 	lw	s0,52(sp)
80008ae8:	03e00008 	jr	ra
80008aec:	27bd0040 	addiu	sp,sp,64
80008af0:	0c000b7d 	jal	80002df4 <intr_disable>
80008af4:	afa40028 	sw	a0,40(sp)
80008af8:	8fa40028 	lw	a0,40(sp)
80008afc:	00000000 	nop
80008b00:	8c820000 	lw	v0,0(a0)
80008b04:	00000000 	nop
80008b08:	1c40ffe8 	bgtz	v0,80008aac <__down.constprop.0+0x34>
80008b0c:	24110001 	li	s1,1
80008b10:	24900004 	addiu	s0,a0,4
80008b14:	02002021 	move	a0,s0
80008b18:	27a50010 	addiu	a1,sp,16
80008b1c:	0c0023f3 	jal	80008fcc <wait_current_set>
80008b20:	24060100 	li	a2,256
80008b24:	16200021 	bnez	s1,80008bac <__down.constprop.0+0x134>
80008b28:	00000000 	nop
80008b2c:	0c002c8a 	jal	8000b228 <schedule>
80008b30:	00000000 	nop
80008b34:	40026000 	mfc0	v0,c0_status
80008b38:	00000000 	nop
80008b3c:	30420001 	andi	v0,v0,0x1
80008b40:	14400011 	bnez	v0,80008b88 <__down.constprop.0+0x110>
80008b44:	00000000 	nop
80008b48:	00008821 	move	s1,zero
80008b4c:	0c0023a8 	jal	80008ea0 <wait_in_queue>
80008b50:	27a40010 	addiu	a0,sp,16
80008b54:	14400010 	bnez	v0,80008b98 <__down.constprop.0+0x120>
80008b58:	00000000 	nop
80008b5c:	16200017 	bnez	s1,80008bbc <__down.constprop.0+0x144>
80008b60:	00000000 	nop
80008b64:	8fa20014 	lw	v0,20(sp)
80008b68:	24030100 	li	v1,256
80008b6c:	1043ffd2 	beq	v0,v1,80008ab8 <__down.constprop.0+0x40>
80008b70:	00000000 	nop
80008b74:	8fbf003c 	lw	ra,60(sp)
80008b78:	8fb10038 	lw	s1,56(sp)
80008b7c:	8fb00034 	lw	s0,52(sp)
80008b80:	03e00008 	jr	ra
80008b84:	27bd0040 	addiu	sp,sp,64
80008b88:	0c000b7d 	jal	80002df4 <intr_disable>
80008b8c:	24110001 	li	s1,1
80008b90:	080022d3 	j	80008b4c <__down.constprop.0+0xd4>
80008b94:	00000000 	nop
80008b98:	02002021 	move	a0,s0
80008b9c:	0c00234a 	jal	80008d28 <wait_queue_del>
80008ba0:	27a50010 	addiu	a1,sp,16
80008ba4:	080022d7 	j	80008b5c <__down.constprop.0+0xe4>
80008ba8:	00000000 	nop
80008bac:	0c000b77 	jal	80002ddc <intr_enable>
80008bb0:	00000000 	nop
80008bb4:	080022cb 	j	80008b2c <__down.constprop.0+0xb4>
80008bb8:	00000000 	nop
80008bbc:	0c000b77 	jal	80002ddc <intr_enable>
80008bc0:	00000000 	nop
80008bc4:	080022d9 	j	80008b64 <__down.constprop.0+0xec>
80008bc8:	00000000 	nop

80008bcc <sem_init>:
80008bcc:	ac850000 	sw	a1,0(a0)
80008bd0:	0800232f 	j	80008cbc <wait_queue_init>
80008bd4:	24840004 	addiu	a0,a0,4

80008bd8 <up>:
80008bd8:	08002264 	j	80008990 <__up.constprop.1>
80008bdc:	00000000 	nop

80008be0 <down>:
80008be0:	27bdffe8 	addiu	sp,sp,-24
80008be4:	afbf0014 	sw	ra,20(sp)
80008be8:	0c00229e 	jal	80008a78 <__down.constprop.0>
80008bec:	00000000 	nop
80008bf0:	14400005 	bnez	v0,80008c08 <down+0x28>
80008bf4:	3c048001 	lui	a0,0x8001
80008bf8:	8fbf0014 	lw	ra,20(sp)
80008bfc:	00000000 	nop
80008c00:	03e00008 	jr	ra
80008c04:	27bd0018 	addiu	sp,sp,24
80008c08:	3c068001 	lui	a2,0x8001
80008c0c:	248462d0 	addiu	a0,a0,25296
80008c10:	24050040 	li	a1,64
80008c14:	0c0009f2 	jal	800027c8 <__panic>
80008c18:	24c66318 	addiu	a2,a2,25368

80008c1c <try_down>:
80008c1c:	27bdffe0 	addiu	sp,sp,-32
80008c20:	afbf001c 	sw	ra,28(sp)
80008c24:	40026000 	mfc0	v0,c0_status
80008c28:	00000000 	nop
80008c2c:	30420001 	andi	v0,v0,0x1
80008c30:	14400011 	bnez	v0,80008c78 <try_down+0x5c>
80008c34:	00000000 	nop
80008c38:	8c820000 	lw	v0,0(a0)
80008c3c:	00000000 	nop
80008c40:	18400015 	blez	v0,80008c98 <try_down+0x7c>
80008c44:	00001821 	move	v1,zero
80008c48:	2442ffff 	addiu	v0,v0,-1
80008c4c:	ac820000 	sw	v0,0(a0)
80008c50:	24020001 	li	v0,1
80008c54:	10600004 	beqz	v1,80008c68 <try_down+0x4c>
80008c58:	00000000 	nop
80008c5c:	0c000b77 	jal	80002ddc <intr_enable>
80008c60:	afa20010 	sw	v0,16(sp)
80008c64:	8fa20010 	lw	v0,16(sp)
80008c68:	8fbf001c 	lw	ra,28(sp)
80008c6c:	00000000 	nop
80008c70:	03e00008 	jr	ra
80008c74:	27bd0020 	addiu	sp,sp,32
80008c78:	0c000b7d 	jal	80002df4 <intr_disable>
80008c7c:	afa40010 	sw	a0,16(sp)
80008c80:	8fa40010 	lw	a0,16(sp)
80008c84:	00000000 	nop
80008c88:	8c820000 	lw	v0,0(a0)
80008c8c:	00000000 	nop
80008c90:	1c40ffed 	bgtz	v0,80008c48 <try_down+0x2c>
80008c94:	24030001 	li	v1,1
80008c98:	08002315 	j	80008c54 <try_down+0x38>
80008c9c:	00001021 	move	v0,zero

80008ca0 <wait_init>:
80008ca0:	2482000c 	addiu	v0,a0,12
80008ca4:	3c038000 	lui	v1,0x8000
80008ca8:	ac850000 	sw	a1,0(a0)
80008cac:	ac830004 	sw	v1,4(a0)
80008cb0:	ac820010 	sw	v0,16(a0)
80008cb4:	03e00008 	jr	ra
80008cb8:	ac82000c 	sw	v0,12(a0)

80008cbc <wait_queue_init>:
80008cbc:	ac840004 	sw	a0,4(a0)
80008cc0:	03e00008 	jr	ra
80008cc4:	ac840000 	sw	a0,0(a0)

80008cc8 <wait_queue_add>:
80008cc8:	8ca30010 	lw	v1,16(a1)
80008ccc:	27bdffe8 	addiu	sp,sp,-24
80008cd0:	24a2000c 	addiu	v0,a1,12
80008cd4:	1443000e 	bne	v0,v1,80008d10 <wait_queue_add+0x48>
80008cd8:	afbf0014 	sw	ra,20(sp)
80008cdc:	8ca30000 	lw	v1,0(a1)
80008ce0:	00000000 	nop
80008ce4:	1060000a 	beqz	v1,80008d10 <wait_queue_add+0x48>
80008ce8:	00000000 	nop
80008cec:	8c830000 	lw	v1,0(a0)
80008cf0:	8fbf0014 	lw	ra,20(sp)
80008cf4:	aca40008 	sw	a0,8(a1)
80008cf8:	27bd0018 	addiu	sp,sp,24
80008cfc:	ac820000 	sw	v0,0(a0)
80008d00:	ac620004 	sw	v0,4(v1)
80008d04:	aca3000c 	sw	v1,12(a1)
80008d08:	03e00008 	jr	ra
80008d0c:	aca40010 	sw	a0,16(a1)
80008d10:	3c048001 	lui	a0,0x8001
80008d14:	3c068001 	lui	a2,0x8001
80008d18:	24846338 	addiu	a0,a0,25400
80008d1c:	24050015 	li	a1,21
80008d20:	0c0009f2 	jal	800027c8 <__panic>
80008d24:	24c6634c 	addiu	a2,a2,25420

80008d28 <wait_queue_del>:
80008d28:	8ca30010 	lw	v1,16(a1)
80008d2c:	27bdffe8 	addiu	sp,sp,-24
80008d30:	24a2000c 	addiu	v0,a1,12
80008d34:	1043000d 	beq	v0,v1,80008d6c <wait_queue_del+0x44>
80008d38:	afbf0014 	sw	ra,20(sp)
80008d3c:	8ca60008 	lw	a2,8(a1)
80008d40:	00000000 	nop
80008d44:	14c4000a 	bne	a2,a0,80008d70 <wait_queue_del+0x48>
80008d48:	3c048001 	lui	a0,0x8001
80008d4c:	8ca4000c 	lw	a0,12(a1)
80008d50:	8fbf0014 	lw	ra,20(sp)
80008d54:	ac830004 	sw	v1,4(a0)
80008d58:	ac640000 	sw	a0,0(v1)
80008d5c:	aca20010 	sw	v0,16(a1)
80008d60:	aca2000c 	sw	v0,12(a1)
80008d64:	03e00008 	jr	ra
80008d68:	27bd0018 	addiu	sp,sp,24
80008d6c:	3c048001 	lui	a0,0x8001
80008d70:	3c068001 	lui	a2,0x8001
80008d74:	24846338 	addiu	a0,a0,25400
80008d78:	2405001c 	li	a1,28
80008d7c:	0c0009f2 	jal	800027c8 <__panic>
80008d80:	24c66394 	addiu	a2,a2,25492

80008d84 <wait_queue_next>:
80008d84:	8ca20010 	lw	v0,16(a1)
80008d88:	27bdffe8 	addiu	sp,sp,-24
80008d8c:	24a3000c 	addiu	v1,a1,12
80008d90:	1043000e 	beq	v0,v1,80008dcc <wait_queue_next+0x48>
80008d94:	afbf0014 	sw	ra,20(sp)
80008d98:	8ca30008 	lw	v1,8(a1)
80008d9c:	00000000 	nop
80008da0:	1464000a 	bne	v1,a0,80008dcc <wait_queue_next+0x48>
80008da4:	00000000 	nop
80008da8:	10620006 	beq	v1,v0,80008dc4 <wait_queue_next+0x40>
80008dac:	00000000 	nop
80008db0:	2442fff4 	addiu	v0,v0,-12
80008db4:	8fbf0014 	lw	ra,20(sp)
80008db8:	00000000 	nop
80008dbc:	03e00008 	jr	ra
80008dc0:	27bd0018 	addiu	sp,sp,24
80008dc4:	0800236d 	j	80008db4 <wait_queue_next+0x30>
80008dc8:	00001021 	move	v0,zero
80008dcc:	3c048001 	lui	a0,0x8001
80008dd0:	3c068001 	lui	a2,0x8001
80008dd4:	24846338 	addiu	a0,a0,25400
80008dd8:	24050022 	li	a1,34
80008ddc:	0c0009f2 	jal	800027c8 <__panic>
80008de0:	24c66394 	addiu	a2,a2,25492

80008de4 <wait_queue_prev>:
80008de4:	8ca30010 	lw	v1,16(a1)
80008de8:	27bdffe8 	addiu	sp,sp,-24
80008dec:	24a2000c 	addiu	v0,a1,12
80008df0:	10620010 	beq	v1,v0,80008e34 <wait_queue_prev+0x50>
80008df4:	afbf0014 	sw	ra,20(sp)
80008df8:	8ca30008 	lw	v1,8(a1)
80008dfc:	00000000 	nop
80008e00:	1464000c 	bne	v1,a0,80008e34 <wait_queue_prev+0x50>
80008e04:	00000000 	nop
80008e08:	8ca2000c 	lw	v0,12(a1)
80008e0c:	00000000 	nop
80008e10:	10620006 	beq	v1,v0,80008e2c <wait_queue_prev+0x48>
80008e14:	00000000 	nop
80008e18:	2442fff4 	addiu	v0,v0,-12
80008e1c:	8fbf0014 	lw	ra,20(sp)
80008e20:	00000000 	nop
80008e24:	03e00008 	jr	ra
80008e28:	27bd0018 	addiu	sp,sp,24
80008e2c:	08002387 	j	80008e1c <wait_queue_prev+0x38>
80008e30:	00001021 	move	v0,zero
80008e34:	3c048001 	lui	a0,0x8001
80008e38:	3c068001 	lui	a2,0x8001
80008e3c:	24846338 	addiu	a0,a0,25400
80008e40:	2405002c 	li	a1,44
80008e44:	0c0009f2 	jal	800027c8 <__panic>
80008e48:	24c66394 	addiu	a2,a2,25492

80008e4c <wait_queue_first>:
80008e4c:	8c820004 	lw	v0,4(a0)
80008e50:	00000000 	nop
80008e54:	10820003 	beq	a0,v0,80008e64 <wait_queue_first+0x18>
80008e58:	00000000 	nop
80008e5c:	03e00008 	jr	ra
80008e60:	2442fff4 	addiu	v0,v0,-12
80008e64:	03e00008 	jr	ra
80008e68:	00001021 	move	v0,zero

80008e6c <wait_queue_last>:
80008e6c:	8c820000 	lw	v0,0(a0)
80008e70:	00000000 	nop
80008e74:	10820003 	beq	a0,v0,80008e84 <wait_queue_last+0x18>
80008e78:	00000000 	nop
80008e7c:	03e00008 	jr	ra
80008e80:	2442fff4 	addiu	v0,v0,-12
80008e84:	03e00008 	jr	ra
80008e88:	00001021 	move	v0,zero

80008e8c <wait_queue_empty>:
80008e8c:	8c820004 	lw	v0,4(a0)
80008e90:	00000000 	nop
80008e94:	00441026 	xor	v0,v0,a0
80008e98:	03e00008 	jr	ra
80008e9c:	2c420001 	sltiu	v0,v0,1

80008ea0 <wait_in_queue>:
80008ea0:	8c820010 	lw	v0,16(a0)
80008ea4:	2484000c 	addiu	a0,a0,12
80008ea8:	00441026 	xor	v0,v0,a0
80008eac:	03e00008 	jr	ra
80008eb0:	0002102b 	sltu	v0,zero,v0

80008eb4 <wakeup_wait>:
80008eb4:	27bdffe0 	addiu	sp,sp,-32
80008eb8:	afb00018 	sw	s0,24(sp)
80008ebc:	afbf001c 	sw	ra,28(sp)
80008ec0:	10e00004 	beqz	a3,80008ed4 <wakeup_wait+0x20>
80008ec4:	00a08021 	move	s0,a1
80008ec8:	0c00234a 	jal	80008d28 <wait_queue_del>
80008ecc:	afa60010 	sw	a2,16(sp)
80008ed0:	8fa60010 	lw	a2,16(sp)
80008ed4:	8e040000 	lw	a0,0(s0)
80008ed8:	ae060004 	sw	a2,4(s0)
80008edc:	8fbf001c 	lw	ra,28(sp)
80008ee0:	8fb00018 	lw	s0,24(sp)
80008ee4:	08002c4c 	j	8000b130 <wakeup_proc>
80008ee8:	27bd0020 	addiu	sp,sp,32

80008eec <wakeup_first>:
80008eec:	8c830004 	lw	v1,4(a0)
80008ef0:	00a04021 	move	t0,a1
80008ef4:	10640006 	beq	v1,a0,80008f10 <wakeup_first+0x24>
80008ef8:	00c03821 	move	a3,a2
80008efc:	2465fff4 	addiu	a1,v1,-12
80008f00:	10a00003 	beqz	a1,80008f10 <wakeup_first+0x24>
80008f04:	00000000 	nop
80008f08:	080023ad 	j	80008eb4 <wakeup_wait>
80008f0c:	01003021 	move	a2,t0
80008f10:	03e00008 	jr	ra
80008f14:	00000000 	nop

80008f18 <wakeup_queue>:
80008f18:	8c820004 	lw	v0,4(a0)
80008f1c:	27bdffd8 	addiu	sp,sp,-40
80008f20:	afb10020 	sw	s1,32(sp)
80008f24:	afb0001c 	sw	s0,28(sp)
80008f28:	afbf0024 	sw	ra,36(sp)
80008f2c:	00808021 	move	s0,a0
80008f30:	10440011 	beq	v0,a0,80008f78 <wakeup_queue+0x60>
80008f34:	00a08821 	move	s1,a1
80008f38:	2442fff4 	addiu	v0,v0,-12
80008f3c:	1040000e 	beqz	v0,80008f78 <wakeup_queue+0x60>
80008f40:	00000000 	nop
80008f44:	14c00014 	bnez	a2,80008f98 <wakeup_queue+0x80>
80008f48:	00402821 	move	a1,v0
80008f4c:	02002021 	move	a0,s0
80008f50:	02203021 	move	a2,s1
80008f54:	00003821 	move	a3,zero
80008f58:	0c0023ad 	jal	80008eb4 <wakeup_wait>
80008f5c:	afa20010 	sw	v0,16(sp)
80008f60:	8fa20010 	lw	v0,16(sp)
80008f64:	02002021 	move	a0,s0
80008f68:	0c002361 	jal	80008d84 <wait_queue_next>
80008f6c:	00402821 	move	a1,v0
80008f70:	1440fff5 	bnez	v0,80008f48 <wakeup_queue+0x30>
80008f74:	00000000 	nop
80008f78:	8fbf0024 	lw	ra,36(sp)
80008f7c:	8fb10020 	lw	s1,32(sp)
80008f80:	8fb0001c 	lw	s0,28(sp)
80008f84:	03e00008 	jr	ra
80008f88:	27bd0028 	addiu	sp,sp,40
80008f8c:	1040fffa 	beqz	v0,80008f78 <wakeup_queue+0x60>
80008f90:	00000000 	nop
80008f94:	00402821 	move	a1,v0
80008f98:	02002021 	move	a0,s0
80008f9c:	02203021 	move	a2,s1
80008fa0:	0c0023ad 	jal	80008eb4 <wakeup_wait>
80008fa4:	24070001 	li	a3,1
80008fa8:	8e030004 	lw	v1,4(s0)
80008fac:	00000000 	nop
80008fb0:	1603fff6 	bne	s0,v1,80008f8c <wakeup_queue+0x74>
80008fb4:	2462fff4 	addiu	v0,v1,-12
80008fb8:	8fbf0024 	lw	ra,36(sp)
80008fbc:	8fb10020 	lw	s1,32(sp)
80008fc0:	8fb0001c 	lw	s0,28(sp)
80008fc4:	03e00008 	jr	ra
80008fc8:	27bd0028 	addiu	sp,sp,40

80008fcc <wait_current_set>:
80008fcc:	3c02800d 	lui	v0,0x800d
80008fd0:	8c437d0c 	lw	v1,32012(v0)
80008fd4:	27bdffe8 	addiu	sp,sp,-24
80008fd8:	1060000d 	beqz	v1,80009010 <wait_current_set+0x44>
80008fdc:	afbf0014 	sw	ra,20(sp)
80008fe0:	24a7000c 	addiu	a3,a1,12
80008fe4:	3c088000 	lui	t0,0x8000
80008fe8:	24020001 	li	v0,1
80008fec:	8fbf0014 	lw	ra,20(sp)
80008ff0:	aca30000 	sw	v1,0(a1)
80008ff4:	aca80004 	sw	t0,4(a1)
80008ff8:	aca70010 	sw	a3,16(a1)
80008ffc:	aca7000c 	sw	a3,12(a1)
80009000:	27bd0018 	addiu	sp,sp,24
80009004:	ac620000 	sw	v0,0(v1)
80009008:	08002332 	j	80008cc8 <wait_queue_add>
8000900c:	ac66008c 	sw	a2,140(v1)
80009010:	3c048001 	lui	a0,0x8001
80009014:	3c068001 	lui	a2,0x8001
80009018:	24846338 	addiu	a0,a0,25400
8000901c:	24050074 	li	a1,116
80009020:	0c0009f2 	jal	800027c8 <__panic>
80009024:	24c663e4 	addiu	a2,a2,25572

80009028 <alloc_proc>:
80009028:	27bdffe8 	addiu	sp,sp,-24
8000902c:	afb00010 	sw	s0,16(sp)
80009030:	afbf0014 	sw	ra,20(sp)
80009034:	0c001716 	jal	80005c58 <kmalloc>
80009038:	240400b0 	li	a0,176
8000903c:	10400024 	beqz	v0,800090d0 <alloc_proc+0xa8>
80009040:	00408021 	move	s0,v0
80009044:	3c02800e 	lui	v0,0x800e
80009048:	8c42a9b0 	lw	v0,-22096(v0)
8000904c:	2403ffff 	li	v1,-1
80009050:	ae030004 	sw	v1,4(s0)
80009054:	ae000010 	sw	zero,16(s0)
80009058:	2604001c 	addiu	a0,s0,28
8000905c:	00002821 	move	a1,zero
80009060:	24060030 	li	a2,48
80009064:	ae000000 	sw	zero,0(s0)
80009068:	ae000008 	sw	zero,8(s0)
8000906c:	ae00000c 	sw	zero,12(s0)
80009070:	ae000014 	sw	zero,20(s0)
80009074:	ae000018 	sw	zero,24(s0)
80009078:	ae00004c 	sw	zero,76(s0)
8000907c:	ae000054 	sw	zero,84(s0)
80009080:	ae000010 	sw	zero,16(s0)
80009084:	0c00083d 	jal	800020f4 <memset>
80009088:	ae020050 	sw	v0,80(s0)
8000908c:	26040058 	addiu	a0,s0,88
80009090:	00002821 	move	a1,zero
80009094:	0c00083d 	jal	800020f4 <memset>
80009098:	2406001e 	li	a2,30
8000909c:	260300a0 	addiu	v1,s0,160
800090a0:	26020078 	addiu	v0,s0,120
800090a4:	ae000088 	sw	zero,136(s0)
800090a8:	ae00008c 	sw	zero,140(s0)
800090ac:	ae0300a4 	sw	v1,164(s0)
800090b0:	ae0300a0 	sw	v1,160(s0)
800090b4:	ae02007c 	sw	v0,124(s0)
800090b8:	ae020078 	sw	v0,120(s0)
800090bc:	ae0000a8 	sw	zero,168(s0)
800090c0:	ae000098 	sw	zero,152(s0)
800090c4:	ae000094 	sw	zero,148(s0)
800090c8:	ae000090 	sw	zero,144(s0)
800090cc:	ae0000ac 	sw	zero,172(s0)
800090d0:	8fbf0014 	lw	ra,20(sp)
800090d4:	02001021 	move	v0,s0
800090d8:	8fb00010 	lw	s0,16(sp)
800090dc:	03e00008 	jr	ra
800090e0:	27bd0018 	addiu	sp,sp,24

800090e4 <user_main>:
800090e4:	3c02800d 	lui	v0,0x800d
800090e8:	27bdffe0 	addiu	sp,sp,-32
800090ec:	8c427d0c 	lw	v0,32012(v0)
800090f0:	afb00018 	sw	s0,24(sp)
800090f4:	3c108001 	lui	s0,0x8001
800090f8:	8c450004 	lw	a1,4(v0)
800090fc:	26106408 	addiu	s0,s0,25608
80009100:	3c048001 	lui	a0,0x8001
80009104:	2484640c 	addiu	a0,a0,25612
80009108:	02003021 	move	a2,s0
8000910c:	afbf001c 	sw	ra,28(sp)
80009110:	afb00010 	sw	s0,16(sp)
80009114:	0c000727 	jal	80001c9c <kprintf>
80009118:	afa00014 	sw	zero,20(sp)
8000911c:	8fa20010 	lw	v0,16(sp)
80009120:	00000000 	nop
80009124:	10400016 	beqz	v0,80009180 <user_main+0x9c>
80009128:	00001821 	move	v1,zero
8000912c:	27a80010 	addiu	t0,sp,16
80009130:	01001021 	move	v0,t0
80009134:	24420004 	addiu	v0,v0,4
80009138:	8c440000 	lw	a0,0(v0)
8000913c:	00000000 	nop
80009140:	1480fffc 	bnez	a0,80009134 <user_main+0x50>
80009144:	24630001 	addiu	v1,v1,1
80009148:	24020084 	li	v0,132
8000914c:	02002021 	move	a0,s0
80009150:	00602821 	move	a1,v1
80009154:	01003021 	move	a2,t0
80009158:	00603821 	move	a3,v1
8000915c:	0000000c 	syscall
80009160:	00000000 	nop
80009164:	00401821 	move	v1,v0
80009168:	3c048001 	lui	a0,0x8001
8000916c:	3c068001 	lui	a2,0x8001
80009170:	24846434 	addiu	a0,a0,25652
80009174:	240503bd 	li	a1,957
80009178:	0c0009f2 	jal	800027c8 <__panic>
8000917c:	24c66448 	addiu	a2,a2,25672
80009180:	08002452 	j	80009148 <user_main+0x64>
80009184:	27a80010 	addiu	t0,sp,16

80009188 <put_kargv>:
80009188:	27bdffe0 	addiu	sp,sp,-32
8000918c:	afb00014 	sw	s0,20(sp)
80009190:	afbf001c 	sw	ra,28(sp)
80009194:	afb10018 	sw	s1,24(sp)
80009198:	18800008 	blez	a0,800091bc <put_kargv+0x34>
8000919c:	00808021 	move	s0,a0
800091a0:	00048880 	sll	s1,a0,0x2
800091a4:	00b18821 	addu	s1,a1,s1
800091a8:	8e24fffc 	lw	a0,-4(s1)
800091ac:	0c001740 	jal	80005d00 <kfree>
800091b0:	2610ffff 	addiu	s0,s0,-1
800091b4:	1600fffc 	bnez	s0,800091a8 <put_kargv+0x20>
800091b8:	2631fffc 	addiu	s1,s1,-4
800091bc:	8fbf001c 	lw	ra,28(sp)
800091c0:	8fb10018 	lw	s1,24(sp)
800091c4:	8fb00014 	lw	s0,20(sp)
800091c8:	03e00008 	jr	ra
800091cc:	27bd0020 	addiu	sp,sp,32

800091d0 <forkret>:
800091d0:	3c02800d 	lui	v0,0x800d
800091d4:	8c427d0c 	lw	v0,32012(v0)
800091d8:	00000000 	nop
800091dc:	8c44004c 	lw	a0,76(v0)
800091e0:	08004d07 	j	8001341c <forkrets>
800091e4:	00000000 	nop

800091e8 <load_icode_read>:
800091e8:	27bdffd8 	addiu	sp,sp,-40
800091ec:	afb10018 	sw	s1,24(sp)
800091f0:	afb00014 	sw	s0,20(sp)
800091f4:	00a08821 	move	s1,a1
800091f8:	00c08021 	move	s0,a2
800091fc:	00e02821 	move	a1,a3
80009200:	00003021 	move	a2,zero
80009204:	afb30020 	sw	s3,32(sp)
80009208:	afb2001c 	sw	s2,28(sp)
8000920c:	afbf0024 	sw	ra,36(sp)
80009210:	0c003570 	jal	8000d5c0 <sysfile_seek>
80009214:	00809821 	move	s3,a0
80009218:	14400016 	bnez	v0,80009274 <load_icode_read+0x8c>
8000921c:	00409021 	move	s2,v0
80009220:	02602021 	move	a0,s3
80009224:	02202821 	move	a1,s1
80009228:	0c003488 	jal	8000d220 <sysfile_read>
8000922c:	02003021 	move	a2,s0
80009230:	12020008 	beq	s0,v0,80009254 <load_icode_read+0x6c>
80009234:	00000000 	nop
80009238:	3c048001 	lui	a0,0x8001
8000923c:	00409021 	move	s2,v0
80009240:	0c000727 	jal	80001c9c <kprintf>
80009244:	2484647c 	addiu	a0,a0,25724
80009248:	06400002 	bltz	s2,80009254 <load_icode_read+0x6c>
8000924c:	00000000 	nop
80009250:	2412ffff 	li	s2,-1
80009254:	8fbf0024 	lw	ra,36(sp)
80009258:	02401021 	move	v0,s2
8000925c:	8fb30020 	lw	s3,32(sp)
80009260:	8fb2001c 	lw	s2,28(sp)
80009264:	8fb10018 	lw	s1,24(sp)
80009268:	8fb00014 	lw	s0,20(sp)
8000926c:	03e00008 	jr	ra
80009270:	27bd0028 	addiu	sp,sp,40
80009274:	3c048001 	lui	a0,0x8001
80009278:	0c000727 	jal	80001c9c <kprintf>
8000927c:	24846464 	addiu	a0,a0,25700
80009280:	8fbf0024 	lw	ra,36(sp)
80009284:	02401021 	move	v0,s2
80009288:	8fb30020 	lw	s3,32(sp)
8000928c:	8fb2001c 	lw	s2,28(sp)
80009290:	8fb10018 	lw	s1,24(sp)
80009294:	8fb00014 	lw	s0,20(sp)
80009298:	03e00008 	jr	ra
8000929c:	27bd0028 	addiu	sp,sp,40

800092a0 <put_fs>:
800092a0:	27bdffe8 	addiu	sp,sp,-24
800092a4:	afb00010 	sw	s0,16(sp)
800092a8:	8c9000ac 	lw	s0,172(a0)
800092ac:	00000000 	nop
800092b0:	12000012 	beqz	s0,800092fc <put_fs+0x5c>
800092b4:	afbf0014 	sw	ra,20(sp)
800092b8:	40026000 	mfc0	v0,c0_status
800092bc:	00000000 	nop
800092c0:	30420001 	andi	v0,v0,0x1
800092c4:	14400011 	bnez	v0,8000930c <put_fs+0x6c>
800092c8:	00000000 	nop
800092cc:	8e020008 	lw	v0,8(s0)
800092d0:	00000000 	nop
800092d4:	2442ffff 	addiu	v0,v0,-1
800092d8:	ae020008 	sw	v0,8(s0)
800092dc:	8e020008 	lw	v0,8(s0)
800092e0:	00000000 	nop
800092e4:	14400005 	bnez	v0,800092fc <put_fs+0x5c>
800092e8:	02002021 	move	a0,s0
800092ec:	8fbf0014 	lw	ra,20(sp)
800092f0:	8fb00010 	lw	s0,16(sp)
800092f4:	0800332c 	j	8000ccb0 <fs_destroy>
800092f8:	27bd0018 	addiu	sp,sp,24
800092fc:	8fbf0014 	lw	ra,20(sp)
80009300:	8fb00010 	lw	s0,16(sp)
80009304:	03e00008 	jr	ra
80009308:	27bd0018 	addiu	sp,sp,24
8000930c:	0c000b7d 	jal	80002df4 <intr_disable>
80009310:	00000000 	nop
80009314:	8e020008 	lw	v0,8(s0)
80009318:	00000000 	nop
8000931c:	2442ffff 	addiu	v0,v0,-1
80009320:	ae020008 	sw	v0,8(s0)
80009324:	0c000b77 	jal	80002ddc <intr_enable>
80009328:	00000000 	nop
8000932c:	080024b7 	j	800092dc <put_fs+0x3c>
80009330:	00000000 	nop

80009334 <setup_pgdir>:
80009334:	27bdffe0 	addiu	sp,sp,-32
80009338:	afb10018 	sw	s1,24(sp)
8000933c:	00808821 	move	s1,a0
80009340:	24040001 	li	a0,1
80009344:	afbf001c 	sw	ra,28(sp)
80009348:	0c00179c 	jal	80005e70 <alloc_pages>
8000934c:	afb00014 	sw	s0,20(sp)
80009350:	10400018 	beqz	v0,800093b4 <setup_pgdir+0x80>
80009354:	3c03800e 	lui	v1,0x800e
80009358:	8c70a9b4 	lw	s0,-22092(v1)
8000935c:	3c03800d 	lui	v1,0x800d
80009360:	00501023 	subu	v0,v0,s0
80009364:	00021143 	sra	v0,v0,0x5
80009368:	00021300 	sll	v0,v0,0xc
8000936c:	8c637cfc 	lw	v1,31996(v1)
80009370:	00022302 	srl	a0,v0,0xc
80009374:	3c108000 	lui	s0,0x8000
80009378:	0083182b 	sltu	v1,a0,v1
8000937c:	1060000f 	beqz	v1,800093bc <setup_pgdir+0x88>
80009380:	00508021 	addu	s0,v0,s0
80009384:	3c02800d 	lui	v0,0x800d
80009388:	8c457cf8 	lw	a1,31992(v0)
8000938c:	02002021 	move	a0,s0
80009390:	0c000847 	jal	8000211c <memcpy>
80009394:	24061000 	li	a2,4096
80009398:	ae30000c 	sw	s0,12(s1)
8000939c:	00001021 	move	v0,zero
800093a0:	8fbf001c 	lw	ra,28(sp)
800093a4:	8fb10018 	lw	s1,24(sp)
800093a8:	8fb00014 	lw	s0,20(sp)
800093ac:	03e00008 	jr	ra
800093b0:	27bd0020 	addiu	sp,sp,32
800093b4:	080024e8 	j	800093a0 <setup_pgdir+0x6c>
800093b8:	2402fffc 	li	v0,-4
800093bc:	3c048001 	lui	a0,0x8001
800093c0:	3c068001 	lui	a2,0x8001
800093c4:	24845508 	addiu	a0,a0,21768
800093c8:	24050069 	li	a1,105
800093cc:	24c65518 	addiu	a2,a2,21784
800093d0:	0c0009f2 	jal	800027c8 <__panic>
800093d4:	02003821 	move	a3,s0

800093d8 <put_pgdir>:
800093d8:	8c87000c 	lw	a3,12(a0)
800093dc:	27bdffe8 	addiu	sp,sp,-24
800093e0:	04e10010 	bgez	a3,80009424 <put_pgdir+0x4c>
800093e4:	afbf0014 	sw	ra,20(sp)
800093e8:	3c028000 	lui	v0,0x8000
800093ec:	00e23821 	addu	a3,a3,v0
800093f0:	3c02800d 	lui	v0,0x800d
800093f4:	8c427cfc 	lw	v0,31996(v0)
800093f8:	00073b02 	srl	a3,a3,0xc
800093fc:	00e2102b 	sltu	v0,a3,v0
80009400:	1040000e 	beqz	v0,8000943c <put_pgdir+0x64>
80009404:	3c02800e 	lui	v0,0x800e
80009408:	8c44a9b4 	lw	a0,-22092(v0)
8000940c:	00073940 	sll	a3,a3,0x5
80009410:	8fbf0014 	lw	ra,20(sp)
80009414:	00872021 	addu	a0,a0,a3
80009418:	24050001 	li	a1,1
8000941c:	080017bc 	j	80005ef0 <free_pages>
80009420:	27bd0018 	addiu	sp,sp,24
80009424:	3c048001 	lui	a0,0x8001
80009428:	3c068001 	lui	a2,0x8001
8000942c:	24845508 	addiu	a0,a0,21768
80009430:	2405006e 	li	a1,110
80009434:	0c0009f2 	jal	800027c8 <__panic>
80009438:	24c6553c 	addiu	a2,a2,21820
8000943c:	3c048001 	lui	a0,0x8001
80009440:	3c068001 	lui	a2,0x8001
80009444:	24845508 	addiu	a0,a0,21768
80009448:	24050062 	li	a1,98
8000944c:	0c0009f2 	jal	800027c8 <__panic>
80009450:	24c65560 	addiu	a2,a2,21856

80009454 <set_proc_name>:
80009454:	27bdffe0 	addiu	sp,sp,-32
80009458:	afb00014 	sw	s0,20(sp)
8000945c:	24900058 	addiu	s0,a0,88
80009460:	afb10018 	sw	s1,24(sp)
80009464:	02002021 	move	a0,s0
80009468:	00a08821 	move	s1,a1
8000946c:	2406001f 	li	a2,31
80009470:	afbf001c 	sw	ra,28(sp)
80009474:	0c00083d 	jal	800020f4 <memset>
80009478:	00002821 	move	a1,zero
8000947c:	02002021 	move	a0,s0
80009480:	02202821 	move	a1,s1
80009484:	8fbf001c 	lw	ra,28(sp)
80009488:	8fb10018 	lw	s1,24(sp)
8000948c:	8fb00014 	lw	s0,20(sp)
80009490:	2406001e 	li	a2,30
80009494:	08000847 	j	8000211c <memcpy>
80009498:	27bd0020 	addiu	sp,sp,32

8000949c <get_proc_name>:
8000949c:	27bdffe0 	addiu	sp,sp,-32
800094a0:	afb00014 	sw	s0,20(sp)
800094a4:	3c10800d 	lui	s0,0x800d
800094a8:	afb10018 	sw	s1,24(sp)
800094ac:	00002821 	move	a1,zero
800094b0:	00808821 	move	s1,a0
800094b4:	2406001f 	li	a2,31
800094b8:	afbf001c 	sw	ra,28(sp)
800094bc:	0c00083d 	jal	800020f4 <memset>
800094c0:	26047d18 	addiu	a0,s0,32024
800094c4:	26047d18 	addiu	a0,s0,32024
800094c8:	26250058 	addiu	a1,s1,88
800094cc:	8fbf001c 	lw	ra,28(sp)
800094d0:	8fb10018 	lw	s1,24(sp)
800094d4:	8fb00014 	lw	s0,20(sp)
800094d8:	2406001e 	li	a2,30
800094dc:	08000847 	j	8000211c <memcpy>
800094e0:	27bd0020 	addiu	sp,sp,32

800094e4 <proc_run>:
800094e4:	27bdffe0 	addiu	sp,sp,-32
800094e8:	afb20018 	sw	s2,24(sp)
800094ec:	3c12800d 	lui	s2,0x800d
800094f0:	afb10014 	sw	s1,20(sp)
800094f4:	8e517d0c 	lw	s1,32012(s2)
800094f8:	afb00010 	sw	s0,16(sp)
800094fc:	afbf001c 	sw	ra,28(sp)
80009500:	10910013 	beq	a0,s1,80009550 <proc_run+0x6c>
80009504:	00808021 	move	s0,a0
80009508:	40026000 	mfc0	v0,c0_status
8000950c:	00000000 	nop
80009510:	30420001 	andi	v0,v0,0x1
80009514:	14400014 	bnez	v0,80009568 <proc_run+0x84>
80009518:	00000000 	nop
8000951c:	8c840050 	lw	a0,80(a0)
80009520:	0c001799 	jal	80005e64 <lcr3>
80009524:	ae507d0c 	sw	s0,32012(s2)
80009528:	0c001ea4 	jal	80007a90 <tlb_invalidate_all>
8000952c:	00000000 	nop
80009530:	2624001c 	addiu	a0,s1,28
80009534:	2605001c 	addiu	a1,s0,28
80009538:	8fbf001c 	lw	ra,28(sp)
8000953c:	8fb20018 	lw	s2,24(sp)
80009540:	8fb10014 	lw	s1,20(sp)
80009544:	8fb00010 	lw	s0,16(sp)
80009548:	08004d13 	j	8001344c <switch_to>
8000954c:	27bd0020 	addiu	sp,sp,32
80009550:	8fbf001c 	lw	ra,28(sp)
80009554:	8fb20018 	lw	s2,24(sp)
80009558:	8fb10014 	lw	s1,20(sp)
8000955c:	8fb00010 	lw	s0,16(sp)
80009560:	03e00008 	jr	ra
80009564:	27bd0020 	addiu	sp,sp,32
80009568:	0c000b7d 	jal	80002df4 <intr_disable>
8000956c:	00000000 	nop
80009570:	8e040050 	lw	a0,80(s0)
80009574:	0c001799 	jal	80005e64 <lcr3>
80009578:	ae507d0c 	sw	s0,32012(s2)
8000957c:	0c001ea4 	jal	80007a90 <tlb_invalidate_all>
80009580:	00000000 	nop
80009584:	2624001c 	addiu	a0,s1,28
80009588:	0c004d13 	jal	8001344c <switch_to>
8000958c:	2605001c 	addiu	a1,s0,28
80009590:	8fbf001c 	lw	ra,28(sp)
80009594:	8fb20018 	lw	s2,24(sp)
80009598:	8fb10014 	lw	s1,20(sp)
8000959c:	8fb00010 	lw	s0,16(sp)
800095a0:	08000b77 	j	80002ddc <intr_enable>
800095a4:	27bd0020 	addiu	sp,sp,32

800095a8 <find_proc>:
800095a8:	2482ffff 	addiu	v0,a0,-1
800095ac:	27bdffe8 	addiu	sp,sp,-24
800095b0:	2c421fff 	sltiu	v0,v0,8191
800095b4:	afb00010 	sw	s0,16(sp)
800095b8:	afbf0014 	sw	ra,20(sp)
800095bc:	10400014 	beqz	v0,80009610 <find_proc+0x68>
800095c0:	00808021 	move	s0,a0
800095c4:	0c000050 	jal	80000140 <hash32>
800095c8:	2405000a 	li	a1,10
800095cc:	3c05800d 	lui	a1,0x800d
800095d0:	000210c0 	sll	v0,v0,0x3
800095d4:	24a57d38 	addiu	a1,a1,32056
800095d8:	00a22821 	addu	a1,a1,v0
800095dc:	00a01821 	move	v1,a1
800095e0:	8c630004 	lw	v1,4(v1)
800095e4:	00000000 	nop
800095e8:	10a30009 	beq	a1,v1,80009610 <find_proc+0x68>
800095ec:	00000000 	nop
800095f0:	8c64ff84 	lw	a0,-124(v1)
800095f4:	00000000 	nop
800095f8:	1490fff9 	bne	a0,s0,800095e0 <find_proc+0x38>
800095fc:	2462ff80 	addiu	v0,v1,-128
80009600:	8fbf0014 	lw	ra,20(sp)
80009604:	8fb00010 	lw	s0,16(sp)
80009608:	03e00008 	jr	ra
8000960c:	27bd0018 	addiu	sp,sp,24
80009610:	8fbf0014 	lw	ra,20(sp)
80009614:	00001021 	move	v0,zero
80009618:	8fb00010 	lw	s0,16(sp)
8000961c:	03e00008 	jr	ra
80009620:	27bd0018 	addiu	sp,sp,24

80009624 <do_fork>:
80009624:	27bdffc0 	addiu	sp,sp,-64
80009628:	afb00018 	sw	s0,24(sp)
8000962c:	3c10800e 	lui	s0,0x800e
80009630:	8e029d38 	lw	v0,-25288(s0)
80009634:	afbe0038 	sw	s8,56(sp)
80009638:	28421000 	slti	v0,v0,4096
8000963c:	afb20020 	sw	s2,32(sp)
80009640:	afb1001c 	sw	s1,28(sp)
80009644:	afbf003c 	sw	ra,60(sp)
80009648:	afb70034 	sw	s7,52(sp)
8000964c:	afb60030 	sw	s6,48(sp)
80009650:	afb5002c 	sw	s5,44(sp)
80009654:	afb40028 	sw	s4,40(sp)
80009658:	afb30024 	sw	s3,36(sp)
8000965c:	00809021 	move	s2,a0
80009660:	00a08821 	move	s1,a1
80009664:	104000f5 	beqz	v0,80009a3c <do_fork+0x418>
80009668:	00c0f021 	move	s8,a2
8000966c:	0c00240a 	jal	80009028 <alloc_proc>
80009670:	00000000 	nop
80009674:	1040011a 	beqz	v0,80009ae0 <do_fork+0x4bc>
80009678:	00409821 	move	s3,v0
8000967c:	3c14800d 	lui	s4,0x800d
80009680:	8e827d0c 	lw	v0,32012(s4)
80009684:	24040002 	li	a0,2
80009688:	0c00179c 	jal	80005e70 <alloc_pages>
8000968c:	ae620014 	sw	v0,20(s3)
80009690:	104000dc 	beqz	v0,80009a04 <do_fork+0x3e0>
80009694:	3c16800e 	lui	s6,0x800e
80009698:	8ec3a9b4 	lw	v1,-22092(s6)
8000969c:	3c17800d 	lui	s7,0x800d
800096a0:	00431023 	subu	v0,v0,v1
800096a4:	00021143 	sra	v0,v0,0x5
800096a8:	00021300 	sll	v0,v0,0xc
800096ac:	8ee37cfc 	lw	v1,31996(s7)
800096b0:	00022302 	srl	a0,v0,0xc
800096b4:	3c078000 	lui	a3,0x8000
800096b8:	0083182b 	sltu	v1,a0,v1
800096bc:	10600110 	beqz	v1,80009b00 <do_fork+0x4dc>
800096c0:	00473821 	addu	a3,v0,a3
800096c4:	8e827d0c 	lw	v0,32012(s4)
800096c8:	ae67000c 	sw	a3,12(s3)
800096cc:	8c4500ac 	lw	a1,172(v0)
800096d0:	00000000 	nop
800096d4:	10a00110 	beqz	a1,80009b18 <do_fork+0x4f4>
800096d8:	32420800 	andi	v0,s2,0x800
800096dc:	1440000a 	bnez	v0,80009708 <do_fork+0xe4>
800096e0:	00000000 	nop
800096e4:	0c003315 	jal	8000cc54 <fs_create>
800096e8:	afa50010 	sw	a1,16(sp)
800096ec:	8fa50010 	lw	a1,16(sp)
800096f0:	104000b5 	beqz	v0,800099c8 <do_fork+0x3a4>
800096f4:	0040a821 	move	s5,v0
800096f8:	0c003387 	jal	8000ce1c <dup_fs>
800096fc:	00402021 	move	a0,v0
80009700:	144000db 	bnez	v0,80009a70 <do_fork+0x44c>
80009704:	02a02821 	move	a1,s5
80009708:	40026000 	mfc0	v0,c0_status
8000970c:	00000000 	nop
80009710:	30420001 	andi	v0,v0,0x1
80009714:	14400097 	bnez	v0,80009974 <do_fork+0x350>
80009718:	00000000 	nop
8000971c:	8ca20008 	lw	v0,8(a1)
80009720:	00000000 	nop
80009724:	24420001 	addiu	v0,v0,1
80009728:	aca20008 	sw	v0,8(a1)
8000972c:	8e827d0c 	lw	v0,32012(s4)
80009730:	8ca30008 	lw	v1,8(a1)
80009734:	8c540018 	lw	s4,24(v0)
80009738:	00000000 	nop
8000973c:	1280002e 	beqz	s4,800097f8 <do_fork+0x1d4>
80009740:	ae6500ac 	sw	a1,172(s3)
80009744:	32520100 	andi	s2,s2,0x100
80009748:	1640001d 	bnez	s2,800097c0 <do_fork+0x19c>
8000974c:	00000000 	nop
80009750:	0c001eb9 	jal	80007ae4 <mm_create>
80009754:	00000000 	nop
80009758:	10400099 	beqz	v0,800099c0 <do_fork+0x39c>
8000975c:	00409021 	move	s2,v0
80009760:	0c0024cd 	jal	80009334 <setup_pgdir>
80009764:	00402021 	move	a0,v0
80009768:	14400093 	bnez	v0,800099b8 <do_fork+0x394>
8000976c:	2695001c 	addiu	s5,s4,28
80009770:	0c0022f8 	jal	80008be0 <down>
80009774:	02a02021 	move	a0,s5
80009778:	3c02800d 	lui	v0,0x800d
8000977c:	8c427d0c 	lw	v0,32012(v0)
80009780:	00000000 	nop
80009784:	10400004 	beqz	v0,80009798 <do_fork+0x174>
80009788:	02802821 	move	a1,s4
8000978c:	8c420004 	lw	v0,4(v0)
80009790:	00000000 	nop
80009794:	ae820028 	sw	v0,40(s4)
80009798:	0c001fbf 	jal	80007efc <dup_mmap>
8000979c:	02402021 	move	a0,s2
800097a0:	02a02021 	move	a0,s5
800097a4:	0c0022f6 	jal	80008bd8 <up>
800097a8:	afa20010 	sw	v0,16(sp)
800097ac:	8fa20010 	lw	v0,16(sp)
800097b0:	00000000 	nop
800097b4:	1440007c 	bnez	v0,800099a8 <do_fork+0x384>
800097b8:	ae800028 	sw	zero,40(s4)
800097bc:	0240a021 	move	s4,s2
800097c0:	40026000 	mfc0	v0,c0_status
800097c4:	00000000 	nop
800097c8:	30420001 	andi	v0,v0,0x1
800097cc:	14400091 	bnez	v0,80009a14 <do_fork+0x3f0>
800097d0:	00000000 	nop
800097d4:	8e820018 	lw	v0,24(s4)
800097d8:	00000000 	nop
800097dc:	24420001 	addiu	v0,v0,1
800097e0:	ae820018 	sw	v0,24(s4)
800097e4:	8e87000c 	lw	a3,12(s4)
800097e8:	8e820018 	lw	v0,24(s4)
800097ec:	04e100be 	bgez	a3,80009ae8 <do_fork+0x4c4>
800097f0:	ae740018 	sw	s4,24(s3)
800097f4:	ae670050 	sw	a3,80(s3)
800097f8:	8e63000c 	lw	v1,12(s3)
800097fc:	27c40090 	addiu	a0,s8,144
80009800:	24631f6c 	addiu	v1,v1,8044
80009804:	ae63004c 	sw	v1,76(s3)
80009808:	00601021 	move	v0,v1
8000980c:	8fc80000 	lw	t0,0(s8)
80009810:	8fc70004 	lw	a3,4(s8)
80009814:	8fc60008 	lw	a2,8(s8)
80009818:	8fc5000c 	lw	a1,12(s8)
8000981c:	27de0010 	addiu	s8,s8,16
80009820:	ac480000 	sw	t0,0(v0)
80009824:	ac470004 	sw	a3,4(v0)
80009828:	ac460008 	sw	a2,8(v0)
8000982c:	ac45000c 	sw	a1,12(v0)
80009830:	17c4fff6 	bne	s8,a0,8000980c <do_fork+0x1e8>
80009834:	24420010 	addiu	v0,v0,16
80009838:	8fc40000 	lw	a0,0(s8)
8000983c:	00000000 	nop
80009840:	ac440000 	sw	a0,0(v0)
80009844:	122000a3 	beqz	s1,80009ad4 <do_fork+0x4b0>
80009848:	ac60001c 	sw	zero,28(v1)
8000984c:	2465ffe0 	addiu	a1,v1,-32
80009850:	3c078002 	lui	a3,0x8002
80009854:	8ce49404 	lw	a0,-27644(a3)
80009858:	ac710088 	sw	s1,136(v1)
8000985c:	24840001 	addiu	a0,a0,1
80009860:	3c038001 	lui	v1,0x8001
80009864:	246391d0 	addiu	v1,v1,-28208
80009868:	28822000 	slti	v0,a0,8192
8000986c:	ace49404 	sw	a0,-27644(a3)
80009870:	ae630044 	sw	v1,68(s3)
80009874:	1440008f 	bnez	v0,80009ab4 <do_fork+0x490>
80009878:	ae650048 	sw	a1,72(s3)
8000987c:	24020001 	li	v0,1
80009880:	ace29404 	sw	v0,-27644(a3)
80009884:	24040001 	li	a0,1
80009888:	3c098002 	lui	t1,0x8002
8000988c:	3c11800e 	lui	s1,0x800e
80009890:	2631a9bc 	addiu	s1,s1,-22084
80009894:	8ce89404 	lw	t0,-27644(a3)
80009898:	24062000 	li	a2,8192
8000989c:	02201021 	move	v0,s1
800098a0:	8c420004 	lw	v0,4(v0)
800098a4:	00000000 	nop
800098a8:	1051000e 	beq	v0,s1,800098e4 <do_fork+0x2c0>
800098ac:	00000000 	nop
800098b0:	8c43ff8c 	lw	v1,-116(v0)
800098b4:	00000000 	nop
800098b8:	10640071 	beq	v1,a0,80009a80 <do_fork+0x45c>
800098bc:	0083282a 	slt	a1,a0,v1
800098c0:	10a0fff7 	beqz	a1,800098a0 <do_fork+0x27c>
800098c4:	00000000 	nop
800098c8:	0066282a 	slt	a1,v1,a2
800098cc:	10a0fff4 	beqz	a1,800098a0 <do_fork+0x27c>
800098d0:	00000000 	nop
800098d4:	8c420004 	lw	v0,4(v0)
800098d8:	00000000 	nop
800098dc:	1451fff4 	bne	v0,s1,800098b0 <do_fork+0x28c>
800098e0:	00603021 	move	a2,v1
800098e4:	ace89404 	sw	t0,-27644(a3)
800098e8:	ad269408 	sw	a2,-27640(t1)
800098ec:	ae640004 	sw	a0,4(s3)
800098f0:	0c000050 	jal	80000140 <hash32>
800098f4:	2405000a 	li	a1,10
800098f8:	3c03800d 	lui	v1,0x800d
800098fc:	8e640014 	lw	a0,20(s3)
80009900:	24637d38 	addiu	v1,v1,32056
80009904:	000210c0 	sll	v0,v0,0x3
80009908:	00621021 	addu	v0,v1,v0
8000990c:	8c470004 	lw	a3,4(v0)
80009910:	8c830090 	lw	v1,144(a0)
80009914:	8e250004 	lw	a1,4(s1)
80009918:	26680080 	addiu	t0,s3,128
8000991c:	26660078 	addiu	a2,s3,120
80009920:	ace80000 	sw	t0,0(a3)
80009924:	ac480004 	sw	t0,4(v0)
80009928:	ae620080 	sw	v0,128(s3)
8000992c:	ae670084 	sw	a3,132(s3)
80009930:	aca60000 	sw	a2,0(a1)
80009934:	ae260004 	sw	a2,4(s1)
80009938:	ae65007c 	sw	a1,124(s3)
8000993c:	ae710078 	sw	s1,120(s3)
80009940:	ae600094 	sw	zero,148(s3)
80009944:	10600002 	beqz	v1,80009950 <do_fork+0x32c>
80009948:	ae630098 	sw	v1,152(s3)
8000994c:	ac730094 	sw	s3,148(v1)
80009950:	8e029d38 	lw	v0,-25288(s0)
80009954:	ac930090 	sw	s3,144(a0)
80009958:	24420001 	addiu	v0,v0,1
8000995c:	02602021 	move	a0,s3
80009960:	0c002c4c 	jal	8000b130 <wakeup_proc>
80009964:	ae029d38 	sw	v0,-25288(s0)
80009968:	8e620004 	lw	v0,4(s3)
8000996c:	08002690 	j	80009a40 <do_fork+0x41c>
80009970:	00000000 	nop
80009974:	0c000b7d 	jal	80002df4 <intr_disable>
80009978:	afa50010 	sw	a1,16(sp)
8000997c:	8fa50010 	lw	a1,16(sp)
80009980:	00000000 	nop
80009984:	8ca20008 	lw	v0,8(a1)
80009988:	00000000 	nop
8000998c:	24420001 	addiu	v0,v0,1
80009990:	aca20008 	sw	v0,8(a1)
80009994:	0c000b77 	jal	80002ddc <intr_enable>
80009998:	00000000 	nop
8000999c:	8fa50010 	lw	a1,16(sp)
800099a0:	080025cb 	j	8000972c <do_fork+0x108>
800099a4:	00000000 	nop
800099a8:	0c001ff1 	jal	80007fc4 <exit_mmap>
800099ac:	02402021 	move	a0,s2
800099b0:	0c0024f6 	jal	800093d8 <put_pgdir>
800099b4:	02402021 	move	a0,s2
800099b8:	0c001f4f 	jal	80007d3c <mm_destroy>
800099bc:	02402021 	move	a0,s2
800099c0:	0c0024a8 	jal	800092a0 <put_fs>
800099c4:	02602021 	move	a0,s3
800099c8:	8e67000c 	lw	a3,12(s3)
800099cc:	00000000 	nop
800099d0:	04e10057 	bgez	a3,80009b30 <do_fork+0x50c>
800099d4:	3c028000 	lui	v0,0x8000
800099d8:	00e23821 	addu	a3,a3,v0
800099dc:	8ee27cfc 	lw	v0,31996(s7)
800099e0:	00073b02 	srl	a3,a3,0xc
800099e4:	00e2102b 	sltu	v0,a3,v0
800099e8:	10400057 	beqz	v0,80009b48 <do_fork+0x524>
800099ec:	00073940 	sll	a3,a3,0x5
800099f0:	8ec4a9b4 	lw	a0,-22092(s6)
800099f4:	00000000 	nop
800099f8:	00872021 	addu	a0,a0,a3
800099fc:	0c0017bc 	jal	80005ef0 <free_pages>
80009a00:	24050002 	li	a1,2
80009a04:	0c001740 	jal	80005d00 <kfree>
80009a08:	02602021 	move	a0,s3
80009a0c:	08002690 	j	80009a40 <do_fork+0x41c>
80009a10:	2402fffc 	li	v0,-4
80009a14:	0c000b7d 	jal	80002df4 <intr_disable>
80009a18:	00000000 	nop
80009a1c:	8e820018 	lw	v0,24(s4)
80009a20:	00000000 	nop
80009a24:	24420001 	addiu	v0,v0,1
80009a28:	ae820018 	sw	v0,24(s4)
80009a2c:	0c000b77 	jal	80002ddc <intr_enable>
80009a30:	00000000 	nop
80009a34:	080025f9 	j	800097e4 <do_fork+0x1c0>
80009a38:	00000000 	nop
80009a3c:	2402fffb 	li	v0,-5
80009a40:	8fbf003c 	lw	ra,60(sp)
80009a44:	8fbe0038 	lw	s8,56(sp)
80009a48:	8fb70034 	lw	s7,52(sp)
80009a4c:	8fb60030 	lw	s6,48(sp)
80009a50:	8fb5002c 	lw	s5,44(sp)
80009a54:	8fb40028 	lw	s4,40(sp)
80009a58:	8fb30024 	lw	s3,36(sp)
80009a5c:	8fb20020 	lw	s2,32(sp)
80009a60:	8fb1001c 	lw	s1,28(sp)
80009a64:	8fb00018 	lw	s0,24(sp)
80009a68:	03e00008 	jr	ra
80009a6c:	27bd0040 	addiu	sp,sp,64
80009a70:	0c00332c 	jal	8000ccb0 <fs_destroy>
80009a74:	02a02021 	move	a0,s5
80009a78:	08002672 	j	800099c8 <do_fork+0x3a4>
80009a7c:	00000000 	nop
80009a80:	24840001 	addiu	a0,a0,1
80009a84:	0086182a 	slt	v1,a0,a2
80009a88:	1460ff85 	bnez	v1,800098a0 <do_fork+0x27c>
80009a8c:	00804021 	move	t0,a0
80009a90:	28822000 	slti	v0,a0,8192
80009a94:	14400005 	bnez	v0,80009aac <do_fork+0x488>
80009a98:	24062000 	li	a2,8192
80009a9c:	24080001 	li	t0,1
80009aa0:	24040001 	li	a0,1
80009aa4:	08002628 	j	800098a0 <do_fork+0x27c>
80009aa8:	02201021 	move	v0,s1
80009aac:	08002628 	j	800098a0 <do_fork+0x27c>
80009ab0:	02201021 	move	v0,s1
80009ab4:	3c098002 	lui	t1,0x8002
80009ab8:	8d229408 	lw	v0,-27640(t1)
80009abc:	00000000 	nop
80009ac0:	0082102a 	slt	v0,a0,v0
80009ac4:	1040ff72 	beqz	v0,80009890 <do_fork+0x26c>
80009ac8:	3c11800e 	lui	s1,0x800e
80009acc:	0800263b 	j	800098ec <do_fork+0x2c8>
80009ad0:	2631a9bc 	addiu	s1,s1,-22084
80009ad4:	2471ffe0 	addiu	s1,v1,-32
80009ad8:	08002614 	j	80009850 <do_fork+0x22c>
80009adc:	02202821 	move	a1,s1
80009ae0:	08002690 	j	80009a40 <do_fork+0x41c>
80009ae4:	2402fffc 	li	v0,-4
80009ae8:	3c048001 	lui	a0,0x8001
80009aec:	3c068001 	lui	a2,0x8001
80009af0:	24846434 	addiu	a0,a0,25652
80009af4:	24050159 	li	a1,345
80009af8:	0c0009f2 	jal	800027c8 <__panic>
80009afc:	24c6553c 	addiu	a2,a2,21820
80009b00:	3c048001 	lui	a0,0x8001
80009b04:	3c068001 	lui	a2,0x8001
80009b08:	24845508 	addiu	a0,a0,21768
80009b0c:	24050069 	li	a1,105
80009b10:	0c0009f2 	jal	800027c8 <__panic>
80009b14:	24c65518 	addiu	a2,a2,21784
80009b18:	3c048001 	lui	a0,0x8001
80009b1c:	3c068001 	lui	a2,0x8001
80009b20:	24846434 	addiu	a0,a0,25652
80009b24:	24050176 	li	a1,374
80009b28:	0c0009f2 	jal	800027c8 <__panic>
80009b2c:	24c66494 	addiu	a2,a2,25748
80009b30:	3c048001 	lui	a0,0x8001
80009b34:	3c068001 	lui	a2,0x8001
80009b38:	24845508 	addiu	a0,a0,21768
80009b3c:	2405006e 	li	a1,110
80009b40:	0c0009f2 	jal	800027c8 <__panic>
80009b44:	24c6553c 	addiu	a2,a2,21820
80009b48:	3c048001 	lui	a0,0x8001
80009b4c:	3c068001 	lui	a2,0x8001
80009b50:	24845508 	addiu	a0,a0,21768
80009b54:	24050062 	li	a1,98
80009b58:	0c0009f2 	jal	800027c8 <__panic>
80009b5c:	24c65560 	addiu	a2,a2,21856

80009b60 <kernel_thread>:
80009b60:	27bdff48 	addiu	sp,sp,-184
80009b64:	afb200b0 	sw	s2,176(sp)
80009b68:	afb100ac 	sw	s1,172(sp)
80009b6c:	afb000a8 	sw	s0,168(sp)
80009b70:	00808821 	move	s1,a0
80009b74:	00a09021 	move	s2,a1
80009b78:	00c08021 	move	s0,a2
80009b7c:	27a40010 	addiu	a0,sp,16
80009b80:	00002821 	move	a1,zero
80009b84:	afbf00b4 	sw	ra,180(sp)
80009b88:	0c00083d 	jal	800020f4 <memset>
80009b8c:	24060094 	li	a2,148
80009b90:	afb20034 	sw	s2,52(sp)
80009b94:	afb10038 	sw	s1,56(sp)
80009b98:	afa0002c 	sw	zero,44(sp)
80009b9c:	40036000 	mfc0	v1,c0_status
80009ba0:	2402ffe7 	li	v0,-25
80009ba4:	00621024 	and	v0,v1,v0
80009ba8:	34420003 	ori	v0,v0,0x3
80009bac:	afa20014 	sw	v0,20(sp)
80009bb0:	03801021 	move	v0,gp
80009bb4:	afa20094 	sw	v0,148(sp)
80009bb8:	3c028001 	lui	v0,0x8001
80009bbc:	36040100 	ori	a0,s0,0x100
80009bc0:	27a60010 	addiu	a2,sp,16
80009bc4:	24423428 	addiu	v0,v0,13352
80009bc8:	00002821 	move	a1,zero
80009bcc:	0c002589 	jal	80009624 <do_fork>
80009bd0:	afa200a0 	sw	v0,160(sp)
80009bd4:	8fbf00b4 	lw	ra,180(sp)
80009bd8:	8fb200b0 	lw	s2,176(sp)
80009bdc:	8fb100ac 	lw	s1,172(sp)
80009be0:	8fb000a8 	lw	s0,168(sp)
80009be4:	03e00008 	jr	ra
80009be8:	27bd00b8 	addiu	sp,sp,184

80009bec <do_exit>:
80009bec:	27bdffd8 	addiu	sp,sp,-40
80009bf0:	afb10014 	sw	s1,20(sp)
80009bf4:	3c03800d 	lui	v1,0x800d
80009bf8:	3c11800d 	lui	s1,0x800d
80009bfc:	8e227d0c 	lw	v0,32012(s1)
80009c00:	8c637d14 	lw	v1,32020(v1)
80009c04:	afb3001c 	sw	s3,28(sp)
80009c08:	afbf0024 	sw	ra,36(sp)
80009c0c:	afb40020 	sw	s4,32(sp)
80009c10:	afb20018 	sw	s2,24(sp)
80009c14:	afb00010 	sw	s0,16(sp)
80009c18:	10430078 	beq	v0,v1,80009dfc <do_exit+0x210>
80009c1c:	00809821 	move	s3,a0
80009c20:	3c10800d 	lui	s0,0x800d
80009c24:	8e037d10 	lw	v1,32016(s0)
80009c28:	00000000 	nop
80009c2c:	10430079 	beq	v0,v1,80009e14 <do_exit+0x228>
80009c30:	3c048001 	lui	a0,0x8001
80009c34:	8c520018 	lw	s2,24(v0)
80009c38:	00000000 	nop
80009c3c:	12400014 	beqz	s2,80009c90 <do_exit+0xa4>
80009c40:	3c02800e 	lui	v0,0x800e
80009c44:	8c44a9b0 	lw	a0,-22096(v0)
80009c48:	0c001799 	jal	80005e64 <lcr3>
80009c4c:	00000000 	nop
80009c50:	40026000 	mfc0	v0,c0_status
80009c54:	00000000 	nop
80009c58:	30420001 	andi	v0,v0,0x1
80009c5c:	1440004b 	bnez	v0,80009d8c <do_exit+0x1a0>
80009c60:	00000000 	nop
80009c64:	8e420018 	lw	v0,24(s2)
80009c68:	00000000 	nop
80009c6c:	2442ffff 	addiu	v0,v0,-1
80009c70:	ae420018 	sw	v0,24(s2)
80009c74:	8e420018 	lw	v0,24(s2)
80009c78:	00000000 	nop
80009c7c:	10400051 	beqz	v0,80009dc4 <do_exit+0x1d8>
80009c80:	00000000 	nop
80009c84:	8e227d0c 	lw	v0,32012(s1)
80009c88:	00000000 	nop
80009c8c:	ac400018 	sw	zero,24(v0)
80009c90:	8e247d0c 	lw	a0,32012(s1)
80009c94:	0c0024a8 	jal	800092a0 <put_fs>
80009c98:	00000000 	nop
80009c9c:	8e227d0c 	lw	v0,32012(s1)
80009ca0:	24030003 	li	v1,3
80009ca4:	ac430000 	sw	v1,0(v0)
80009ca8:	ac530088 	sw	s3,136(v0)
80009cac:	40026000 	mfc0	v0,c0_status
80009cb0:	00000000 	nop
80009cb4:	30420001 	andi	v0,v0,0x1
80009cb8:	1440003e 	bnez	v0,80009db4 <do_exit+0x1c8>
80009cbc:	00000000 	nop
80009cc0:	0000a021 	move	s4,zero
80009cc4:	8e257d0c 	lw	a1,32012(s1)
80009cc8:	3c028000 	lui	v0,0x8000
80009ccc:	8ca40014 	lw	a0,20(a1)
80009cd0:	24420001 	addiu	v0,v0,1
80009cd4:	8c83008c 	lw	v1,140(a0)
80009cd8:	00000000 	nop
80009cdc:	10620041 	beq	v1,v0,80009de4 <do_exit+0x1f8>
80009ce0:	00000000 	nop
80009ce4:	3c138000 	lui	s3,0x8000
80009ce8:	24120003 	li	s2,3
80009cec:	26730001 	addiu	s3,s3,1
80009cf0:	8ca20090 	lw	v0,144(a1)
80009cf4:	00000000 	nop
80009cf8:	10400016 	beqz	v0,80009d54 <do_exit+0x168>
80009cfc:	00000000 	nop
80009d00:	8c430098 	lw	v1,152(v0)
80009d04:	8e047d10 	lw	a0,32016(s0)
80009d08:	aca30090 	sw	v1,144(a1)
80009d0c:	8c830090 	lw	v1,144(a0)
80009d10:	ac400094 	sw	zero,148(v0)
80009d14:	10600002 	beqz	v1,80009d20 <do_exit+0x134>
80009d18:	ac430098 	sw	v1,152(v0)
80009d1c:	ac620094 	sw	v0,148(v1)
80009d20:	8c430000 	lw	v1,0(v0)
80009d24:	ac440014 	sw	a0,20(v0)
80009d28:	1472fff1 	bne	v1,s2,80009cf0 <do_exit+0x104>
80009d2c:	ac820090 	sw	v0,144(a0)
80009d30:	8c82008c 	lw	v0,140(a0)
80009d34:	00000000 	nop
80009d38:	1453ffed 	bne	v0,s3,80009cf0 <do_exit+0x104>
80009d3c:	00000000 	nop
80009d40:	0c002c4c 	jal	8000b130 <wakeup_proc>
80009d44:	00000000 	nop
80009d48:	8e257d0c 	lw	a1,32012(s1)
80009d4c:	0800273c 	j	80009cf0 <do_exit+0x104>
80009d50:	00000000 	nop
80009d54:	12800003 	beqz	s4,80009d64 <do_exit+0x178>
80009d58:	00000000 	nop
80009d5c:	0c000b77 	jal	80002ddc <intr_enable>
80009d60:	00000000 	nop
80009d64:	0c002c8a 	jal	8000b228 <schedule>
80009d68:	00000000 	nop
80009d6c:	8e227d0c 	lw	v0,32012(s1)
80009d70:	3c048001 	lui	a0,0x8001
80009d74:	3c068001 	lui	a2,0x8001
80009d78:	8c470004 	lw	a3,4(v0)
80009d7c:	24846434 	addiu	a0,a0,25652
80009d80:	2405020e 	li	a1,526
80009d84:	0c0009f2 	jal	800027c8 <__panic>
80009d88:	24c664dc 	addiu	a2,a2,25820
80009d8c:	0c000b7d 	jal	80002df4 <intr_disable>
80009d90:	00000000 	nop
80009d94:	8e420018 	lw	v0,24(s2)
80009d98:	00000000 	nop
80009d9c:	2442ffff 	addiu	v0,v0,-1
80009da0:	ae420018 	sw	v0,24(s2)
80009da4:	0c000b77 	jal	80002ddc <intr_enable>
80009da8:	00000000 	nop
80009dac:	0800271d 	j	80009c74 <do_exit+0x88>
80009db0:	00000000 	nop
80009db4:	0c000b7d 	jal	80002df4 <intr_disable>
80009db8:	24140001 	li	s4,1
80009dbc:	08002731 	j	80009cc4 <do_exit+0xd8>
80009dc0:	00000000 	nop
80009dc4:	0c001ff1 	jal	80007fc4 <exit_mmap>
80009dc8:	02402021 	move	a0,s2
80009dcc:	0c0024f6 	jal	800093d8 <put_pgdir>
80009dd0:	02402021 	move	a0,s2
80009dd4:	0c001f4f 	jal	80007d3c <mm_destroy>
80009dd8:	02402021 	move	a0,s2
80009ddc:	08002721 	j	80009c84 <do_exit+0x98>
80009de0:	00000000 	nop
80009de4:	0c002c4c 	jal	8000b130 <wakeup_proc>
80009de8:	3c138000 	lui	s3,0x8000
80009dec:	3c02800d 	lui	v0,0x800d
80009df0:	8c457d0c 	lw	a1,32012(v0)
80009df4:	0800273b 	j	80009cec <do_exit+0x100>
80009df8:	24120003 	li	s2,3
80009dfc:	3c048001 	lui	a0,0x8001
80009e00:	3c068001 	lui	a2,0x8001
80009e04:	24846434 	addiu	a0,a0,25652
80009e08:	240501dd 	li	a1,477
80009e0c:	0c0009f2 	jal	800027c8 <__panic>
80009e10:	24c664bc 	addiu	a2,a2,25788
80009e14:	3c068001 	lui	a2,0x8001
80009e18:	24846434 	addiu	a0,a0,25652
80009e1c:	240501e0 	li	a1,480
80009e20:	0c0009f2 	jal	800027c8 <__panic>
80009e24:	24c664cc 	addiu	a2,a2,25804

80009e28 <do_execve>:
80009e28:	27bdfe98 	addiu	sp,sp,-360
80009e2c:	afb20148 	sw	s2,328(sp)
80009e30:	3c12800d 	lui	s2,0x800d
80009e34:	8e437d0c 	lw	v1,32012(s2)
80009e38:	24a2ffff 	addiu	v0,a1,-1
80009e3c:	2c420020 	sltiu	v0,v0,32
80009e40:	afbe0160 	sw	s8,352(sp)
80009e44:	afb50154 	sw	s5,340(sp)
80009e48:	afb10144 	sw	s1,324(sp)
80009e4c:	afb00140 	sw	s0,320(sp)
80009e50:	afbf0164 	sw	ra,356(sp)
80009e54:	afb7015c 	sw	s7,348(sp)
80009e58:	afb60158 	sw	s6,344(sp)
80009e5c:	afb40150 	sw	s4,336(sp)
80009e60:	afb3014c 	sw	s3,332(sp)
80009e64:	00a08021 	move	s0,a1
80009e68:	00808821 	move	s1,a0
80009e6c:	8c750018 	lw	s5,24(v1)
80009e70:	104000d4 	beqz	v0,8000a1c4 <do_execve+0x39c>
80009e74:	00c0f021 	move	s8,a2
80009e78:	27a40018 	addiu	a0,sp,24
80009e7c:	00002821 	move	a1,zero
80009e80:	0c00083d 	jal	800020f4 <memset>
80009e84:	2406001f 	li	a2,31
80009e88:	12a0000a 	beqz	s5,80009eb4 <do_execve+0x8c>
80009e8c:	00000000 	nop
80009e90:	0c0022f8 	jal	80008be0 <down>
80009e94:	26a4001c 	addiu	a0,s5,28
80009e98:	8e427d0c 	lw	v0,32012(s2)
80009e9c:	00000000 	nop
80009ea0:	10400004 	beqz	v0,80009eb4 <do_execve+0x8c>
80009ea4:	00000000 	nop
80009ea8:	8c420004 	lw	v0,4(v0)
80009eac:	00000000 	nop
80009eb0:	aea20028 	sw	v0,40(s5)
80009eb4:	122000ba 	beqz	s1,8000a1a0 <do_execve+0x378>
80009eb8:	02a02021 	move	a0,s5
80009ebc:	27a50018 	addiu	a1,sp,24
80009ec0:	02203021 	move	a2,s1
80009ec4:	0c002228 	jal	800088a0 <copy_string>
80009ec8:	2407001f 	li	a3,31
80009ecc:	104001d7 	beqz	v0,8000a62c <do_execve+0x804>
80009ed0:	00101880 	sll	v1,s0,0x2
80009ed4:	02a02021 	move	a0,s5
80009ed8:	03c02821 	move	a1,s8
80009edc:	00603021 	move	a2,v1
80009ee0:	00003821 	move	a3,zero
80009ee4:	afa30114 	sw	v1,276(sp)
80009ee8:	0c0021a5 	jal	80008694 <user_mem_check>
80009eec:	03c09821 	move	s3,s8
80009ef0:	10400076 	beqz	v0,8000a0cc <do_execve+0x2a4>
80009ef4:	2403fffd 	li	v1,-3
80009ef8:	27a3008c 	addiu	v1,sp,140
80009efc:	afa30110 	sw	v1,272(sp)
80009f00:	afa30124 	sw	v1,292(sp)
80009f04:	0060b821 	move	s7,v1
80009f08:	0000a021 	move	s4,zero
80009f0c:	0c001716 	jal	80005c58 <kmalloc>
80009f10:	24041000 	li	a0,4096
80009f14:	10400082 	beqz	v0,8000a120 <do_execve+0x2f8>
80009f18:	00408821 	move	s1,v0
80009f1c:	8e660000 	lw	a2,0(s3)
80009f20:	02a02021 	move	a0,s5
80009f24:	00402821 	move	a1,v0
80009f28:	0c002228 	jal	800088a0 <copy_string>
80009f2c:	24071000 	li	a3,4096
80009f30:	10400097 	beqz	v0,8000a190 <do_execve+0x368>
80009f34:	26730004 	addiu	s3,s3,4
80009f38:	26940001 	addiu	s4,s4,1
80009f3c:	aef10000 	sw	s1,0(s7)
80009f40:	1690fff2 	bne	s4,s0,80009f0c <do_execve+0xe4>
80009f44:	26f70004 	addiu	s7,s7,4
80009f48:	8fd10000 	lw	s1,0(s8)
80009f4c:	12a00004 	beqz	s5,80009f60 <do_execve+0x138>
80009f50:	00000000 	nop
80009f54:	0c0022f6 	jal	80008bd8 <up>
80009f58:	26a4001c 	addiu	a0,s5,28
80009f5c:	aea00028 	sw	zero,40(s5)
80009f60:	8e427d0c 	lw	v0,32012(s2)
80009f64:	00000000 	nop
80009f68:	8c4400ac 	lw	a0,172(v0)
80009f6c:	0c003361 	jal	8000cd84 <fs_closeall>
80009f70:	00000000 	nop
80009f74:	02202021 	move	a0,s1
80009f78:	0c003471 	jal	8000d1c4 <sysfile_open>
80009f7c:	00002821 	move	a1,zero
80009f80:	044001d3 	bltz	v0,8000a6d0 <do_execve+0x8a8>
80009f84:	0040b821 	move	s7,v0
80009f88:	12a00014 	beqz	s5,80009fdc <do_execve+0x1b4>
80009f8c:	3c02800e 	lui	v0,0x800e
80009f90:	8c44a9b0 	lw	a0,-22096(v0)
80009f94:	0c001799 	jal	80005e64 <lcr3>
80009f98:	00000000 	nop
80009f9c:	40026000 	mfc0	v0,c0_status
80009fa0:	00000000 	nop
80009fa4:	30420001 	andi	v0,v0,0x1
80009fa8:	14400065 	bnez	v0,8000a140 <do_execve+0x318>
80009fac:	00000000 	nop
80009fb0:	8ea20018 	lw	v0,24(s5)
80009fb4:	00000000 	nop
80009fb8:	2442ffff 	addiu	v0,v0,-1
80009fbc:	aea20018 	sw	v0,24(s5)
80009fc0:	8ea20018 	lw	v0,24(s5)
80009fc4:	00000000 	nop
80009fc8:	10400069 	beqz	v0,8000a170 <do_execve+0x348>
80009fcc:	00000000 	nop
80009fd0:	8e427d0c 	lw	v0,32012(s2)
80009fd4:	00000000 	nop
80009fd8:	ac400018 	sw	zero,24(v0)
80009fdc:	3c148001 	lui	s4,0x8001
80009fe0:	27b3008c 	addiu	s3,sp,140
80009fe4:	00008821 	move	s1,zero
80009fe8:	26946520 	addiu	s4,s4,25888
80009fec:	8e650000 	lw	a1,0(s3)
80009ff0:	02802021 	move	a0,s4
80009ff4:	0c000727 	jal	80001c9c <kprintf>
80009ff8:	26310001 	addiu	s1,s1,1
80009ffc:	1630fffb 	bne	s1,s0,80009fec <do_execve+0x1c4>
8000a000:	26730004 	addiu	s3,s3,4
8000a004:	8e427d0c 	lw	v0,32012(s2)
8000a008:	00000000 	nop
8000a00c:	8c420018 	lw	v0,24(v0)
8000a010:	00000000 	nop
8000a014:	144001b3 	bnez	v0,8000a6e4 <do_execve+0x8bc>
8000a018:	3c048001 	lui	a0,0x8001
8000a01c:	0c001eb9 	jal	80007ae4 <mm_create>
8000a020:	00000000 	nop
8000a024:	10400188 	beqz	v0,8000a648 <do_execve+0x820>
8000a028:	0040a021 	move	s4,v0
8000a02c:	0c0024cd 	jal	80009334 <setup_pgdir>
8000a030:	00402021 	move	a0,v0
8000a034:	14400038 	bnez	v0,8000a118 <do_execve+0x2f0>
8000a038:	27a50058 	addiu	a1,sp,88
8000a03c:	02e02021 	move	a0,s7
8000a040:	24060034 	li	a2,52
8000a044:	0c00247a 	jal	800091e8 <load_icode_read>
8000a048:	00003821 	move	a3,zero
8000a04c:	1440000b 	bnez	v0,8000a07c <do_execve+0x254>
8000a050:	00401821 	move	v1,v0
8000a054:	8fa30070 	lw	v1,112(sp)
8000a058:	3c02464c 	lui	v0,0x464c
8000a05c:	afa3012c 	sw	v1,300(sp)
8000a060:	8fa30074 	lw	v1,116(sp)
8000a064:	2442457f 	addiu	v0,v0,17791
8000a068:	afa30118 	sw	v1,280(sp)
8000a06c:	8fa30058 	lw	v1,88(sp)
8000a070:	8fa40084 	lw	a0,132(sp)
8000a074:	10620055 	beq	v1,v0,8000a1cc <do_execve+0x3a4>
8000a078:	2403fff8 	li	v1,-8
8000a07c:	02802021 	move	a0,s4
8000a080:	0c0024f6 	jal	800093d8 <put_pgdir>
8000a084:	afa30138 	sw	v1,312(sp)
8000a088:	8fa30138 	lw	v1,312(sp)
8000a08c:	02802021 	move	a0,s4
8000a090:	0c001f4f 	jal	80007d3c <mm_destroy>
8000a094:	afa30138 	sw	v1,312(sp)
8000a098:	8fa30138 	lw	v1,312(sp)
8000a09c:	3c048001 	lui	a0,0x8001
8000a0a0:	24846598 	addiu	a0,a0,26008
8000a0a4:	0c000727 	jal	80001c9c <kprintf>
8000a0a8:	afa30138 	sw	v1,312(sp)
8000a0ac:	8fa30138 	lw	v1,312(sp)
8000a0b0:	02002021 	move	a0,s0
8000a0b4:	27a5008c 	addiu	a1,sp,140
8000a0b8:	0c002462 	jal	80009188 <put_kargv>
8000a0bc:	afa30138 	sw	v1,312(sp)
8000a0c0:	8fa30138 	lw	v1,312(sp)
8000a0c4:	0c0026fb 	jal	80009bec <do_exit>
8000a0c8:	00602021 	move	a0,v1
8000a0cc:	12a00005 	beqz	s5,8000a0e4 <do_execve+0x2bc>
8000a0d0:	26a4001c 	addiu	a0,s5,28
8000a0d4:	0c0022f6 	jal	80008bd8 <up>
8000a0d8:	afa30138 	sw	v1,312(sp)
8000a0dc:	8fa30138 	lw	v1,312(sp)
8000a0e0:	aea00028 	sw	zero,40(s5)
8000a0e4:	8fbf0164 	lw	ra,356(sp)
8000a0e8:	00601021 	move	v0,v1
8000a0ec:	8fbe0160 	lw	s8,352(sp)
8000a0f0:	8fb7015c 	lw	s7,348(sp)
8000a0f4:	8fb60158 	lw	s6,344(sp)
8000a0f8:	8fb50154 	lw	s5,340(sp)
8000a0fc:	8fb40150 	lw	s4,336(sp)
8000a100:	8fb3014c 	lw	s3,332(sp)
8000a104:	8fb20148 	lw	s2,328(sp)
8000a108:	8fb10144 	lw	s1,324(sp)
8000a10c:	8fb00140 	lw	s0,320(sp)
8000a110:	03e00008 	jr	ra
8000a114:	27bd0168 	addiu	sp,sp,360
8000a118:	08002823 	j	8000a08c <do_execve+0x264>
8000a11c:	2403fffc 	li	v1,-4
8000a120:	2403fffc 	li	v1,-4
8000a124:	02802021 	move	a0,s4
8000a128:	27a5008c 	addiu	a1,sp,140
8000a12c:	0c002462 	jal	80009188 <put_kargv>
8000a130:	afa30138 	sw	v1,312(sp)
8000a134:	8fa30138 	lw	v1,312(sp)
8000a138:	08002833 	j	8000a0cc <do_execve+0x2a4>
8000a13c:	00000000 	nop
8000a140:	0c000b7d 	jal	80002df4 <intr_disable>
8000a144:	00000000 	nop
8000a148:	8ea20018 	lw	v0,24(s5)
8000a14c:	00000000 	nop
8000a150:	2442ffff 	addiu	v0,v0,-1
8000a154:	aea20018 	sw	v0,24(s5)
8000a158:	0c000b77 	jal	80002ddc <intr_enable>
8000a15c:	00000000 	nop
8000a160:	8ea20018 	lw	v0,24(s5)
8000a164:	00000000 	nop
8000a168:	1440ff99 	bnez	v0,80009fd0 <do_execve+0x1a8>
8000a16c:	00000000 	nop
8000a170:	0c001ff1 	jal	80007fc4 <exit_mmap>
8000a174:	02a02021 	move	a0,s5
8000a178:	0c0024f6 	jal	800093d8 <put_pgdir>
8000a17c:	02a02021 	move	a0,s5
8000a180:	0c001f4f 	jal	80007d3c <mm_destroy>
8000a184:	02a02021 	move	a0,s5
8000a188:	080027f4 	j	80009fd0 <do_execve+0x1a8>
8000a18c:	00000000 	nop
8000a190:	0c001740 	jal	80005d00 <kfree>
8000a194:	02202021 	move	a0,s1
8000a198:	08002849 	j	8000a124 <do_execve+0x2fc>
8000a19c:	2403fffd 	li	v1,-3
8000a1a0:	8e427d0c 	lw	v0,32012(s2)
8000a1a4:	3c068001 	lui	a2,0x8001
8000a1a8:	8c470004 	lw	a3,4(v0)
8000a1ac:	27a40018 	addiu	a0,sp,24
8000a1b0:	2405001f 	li	a1,31
8000a1b4:	0c000223 	jal	8000088c <snprintf>
8000a1b8:	24c664fc 	addiu	a2,a2,25852
8000a1bc:	080027b5 	j	80009ed4 <do_execve+0xac>
8000a1c0:	00101880 	sll	v1,s0,0x2
8000a1c4:	08002839 	j	8000a0e4 <do_execve+0x2bc>
8000a1c8:	2403fffd 	li	v1,-3
8000a1cc:	3084ffff 	andi	a0,a0,0xffff
8000a1d0:	1080001c 	beqz	a0,8000a244 <do_execve+0x41c>
8000a1d4:	afa40128 	sw	a0,296(sp)
8000a1d8:	afa00130 	sw	zero,304(sp)
8000a1dc:	afa00120 	sw	zero,288(sp)
8000a1e0:	afb00134 	sw	s0,308(sp)
8000a1e4:	8fa70118 	lw	a3,280(sp)
8000a1e8:	02e02021 	move	a0,s7
8000a1ec:	27a50038 	addiu	a1,sp,56
8000a1f0:	0c00247a 	jal	800091e8 <load_icode_read>
8000a1f4:	24060020 	li	a2,32
8000a1f8:	144000b8 	bnez	v0,8000a4dc <do_execve+0x6b4>
8000a1fc:	00000000 	nop
8000a200:	8fa20038 	lw	v0,56(sp)
8000a204:	24040001 	li	a0,1
8000a208:	1044005c 	beq	v0,a0,8000a37c <do_execve+0x554>
8000a20c:	00000000 	nop
8000a210:	8fa30120 	lw	v1,288(sp)
8000a214:	8fa40128 	lw	a0,296(sp)
8000a218:	24630001 	addiu	v1,v1,1
8000a21c:	afa30120 	sw	v1,288(sp)
8000a220:	8fa30118 	lw	v1,280(sp)
8000a224:	00000000 	nop
8000a228:	24630020 	addiu	v1,v1,32
8000a22c:	afa30118 	sw	v1,280(sp)
8000a230:	8fa30120 	lw	v1,288(sp)
8000a234:	00000000 	nop
8000a238:	1464ffea 	bne	v1,a0,8000a1e4 <do_execve+0x3bc>
8000a23c:	00000000 	nop
8000a240:	8fb00134 	lw	s0,308(sp)
8000a244:	0c003486 	jal	8000d218 <sysfile_close>
8000a248:	02e02021 	move	a0,s7
8000a24c:	02802021 	move	a0,s4
8000a250:	3c057fff 	lui	a1,0x7fff
8000a254:	3c060001 	lui	a2,0x1
8000a258:	2407000b 	li	a3,11
8000a25c:	0c001f6e 	jal	80007db8 <mm_map>
8000a260:	afa00010 	sw	zero,16(sp)
8000a264:	14400095 	bnez	v0,8000a4bc <do_execve+0x694>
8000a268:	00401821 	move	v1,v0
8000a26c:	40026000 	mfc0	v0,c0_status
8000a270:	00000000 	nop
8000a274:	30420001 	andi	v0,v0,0x1
8000a278:	14400103 	bnez	v0,8000a688 <do_execve+0x860>
8000a27c:	00000000 	nop
8000a280:	8e820018 	lw	v0,24(s4)
8000a284:	00000000 	nop
8000a288:	24420001 	addiu	v0,v0,1
8000a28c:	ae820018 	sw	v0,24(s4)
8000a290:	8e427d0c 	lw	v0,32012(s2)
8000a294:	8e87000c 	lw	a3,12(s4)
8000a298:	8e840018 	lw	a0,24(s4)
8000a29c:	04e100f4 	bgez	a3,8000a670 <do_execve+0x848>
8000a2a0:	ac540018 	sw	s4,24(v0)
8000a2a4:	ac470050 	sw	a3,80(v0)
8000a2a8:	00e02021 	move	a0,a3
8000a2ac:	afa30138 	sw	v1,312(sp)
8000a2b0:	0c001799 	jal	80005e64 <lcr3>
8000a2b4:	3c118000 	lui	s1,0x8000
8000a2b8:	00101300 	sll	v0,s0,0xc
8000a2bc:	8fa50114 	lw	a1,276(sp)
8000a2c0:	02228823 	subu	s1,s1,v0
8000a2c4:	8fb50124 	lw	s5,292(sp)
8000a2c8:	8fa30138 	lw	v1,312(sp)
8000a2cc:	02259823 	subu	s3,s1,a1
8000a2d0:	0000a021 	move	s4,zero
8000a2d4:	8ea50000 	lw	a1,0(s5)
8000a2d8:	02202021 	move	a0,s1
8000a2dc:	0c0007d4 	jal	80001f50 <strcpy>
8000a2e0:	afa30138 	sw	v1,312(sp)
8000a2e4:	8fa60110 	lw	a2,272(sp)
8000a2e8:	26940001 	addiu	s4,s4,1
8000a2ec:	02a62823 	subu	a1,s5,a2
8000a2f0:	00b32821 	addu	a1,a1,s3
8000a2f4:	0290202a 	slt	a0,s4,s0
8000a2f8:	aca20000 	sw	v0,0(a1)
8000a2fc:	26b50004 	addiu	s5,s5,4
8000a300:	8fa30138 	lw	v1,312(sp)
8000a304:	1480fff3 	bnez	a0,8000a2d4 <do_execve+0x4ac>
8000a308:	26311000 	addiu	s1,s1,4096
8000a30c:	8e427d0c 	lw	v0,32012(s2)
8000a310:	00002821 	move	a1,zero
8000a314:	8c51004c 	lw	s1,76(v0)
8000a318:	24060094 	li	a2,148
8000a31c:	0c00083d 	jal	800020f4 <memset>
8000a320:	02202021 	move	a0,s1
8000a324:	8fa2012c 	lw	v0,300(sp)
8000a328:	00000000 	nop
8000a32c:	ae220090 	sw	v0,144(s1)
8000a330:	40046000 	mfc0	a0,c0_status
8000a334:	2402ffe7 	li	v0,-25
8000a338:	00821024 	and	v0,a0,v0
8000a33c:	34420012 	ori	v0,v0,0x12
8000a340:	ae220004 	sw	v0,4(s1)
8000a344:	3c027fff 	lui	v0,0x7fff
8000a348:	3442fff8 	ori	v0,v0,0xfff8
8000a34c:	02002021 	move	a0,s0
8000a350:	27a5008c 	addiu	a1,sp,140
8000a354:	ae220088 	sw	v0,136(s1)
8000a358:	ae300024 	sw	s0,36(s1)
8000a35c:	0c002462 	jal	80009188 <put_kargv>
8000a360:	ae330028 	sw	s3,40(s1)
8000a364:	8e447d0c 	lw	a0,32012(s2)
8000a368:	0c002515 	jal	80009454 <set_proc_name>
8000a36c:	27a50018 	addiu	a1,sp,24
8000a370:	8fa30138 	lw	v1,312(sp)
8000a374:	08002839 	j	8000a0e4 <do_execve+0x2bc>
8000a378:	00000000 	nop
8000a37c:	8fa6004c 	lw	a2,76(sp)
8000a380:	8fa20048 	lw	v0,72(sp)
8000a384:	00000000 	nop
8000a388:	00c2102b 	sltu	v0,a2,v0
8000a38c:	144000b3 	bnez	v0,8000a65c <do_execve+0x834>
8000a390:	00000000 	nop
8000a394:	8fa20050 	lw	v0,80(sp)
8000a398:	00000000 	nop
8000a39c:	30470001 	andi	a3,v0,0x1
8000a3a0:	30430002 	andi	v1,v0,0x2
8000a3a4:	10600002 	beqz	v1,8000a3b0 <do_execve+0x588>
8000a3a8:	00073880 	sll	a3,a3,0x2
8000a3ac:	34e70002 	ori	a3,a3,0x2
8000a3b0:	30420004 	andi	v0,v0,0x4
8000a3b4:	10400003 	beqz	v0,8000a3c4 <do_execve+0x59c>
8000a3b8:	30e20002 	andi	v0,a3,0x2
8000a3bc:	34e70001 	ori	a3,a3,0x1
8000a3c0:	30e20002 	andi	v0,a3,0x2
8000a3c4:	14400043 	bnez	v0,8000a4d4 <do_execve+0x6ac>
8000a3c8:	24030006 	li	v1,6
8000a3cc:	8fa30130 	lw	v1,304(sp)
8000a3d0:	00000000 	nop
8000a3d4:	34630004 	ori	v1,v1,0x4
8000a3d8:	afa30130 	sw	v1,304(sp)
8000a3dc:	8fa50040 	lw	a1,64(sp)
8000a3e0:	02802021 	move	a0,s4
8000a3e4:	0c001f6e 	jal	80007db8 <mm_map>
8000a3e8:	afa00010 	sw	zero,16(sp)
8000a3ec:	1440003b 	bnez	v0,8000a4dc <do_execve+0x6b4>
8000a3f0:	00000000 	nop
8000a3f4:	8fb10040 	lw	s1,64(sp)
8000a3f8:	8fbe0048 	lw	s8,72(sp)
8000a3fc:	2404f000 	li	a0,-4096
8000a400:	023ef021 	addu	s8,s1,s8
8000a404:	023e102b 	sltu	v0,s1,s8
8000a408:	8fb5003c 	lw	s5,60(sp)
8000a40c:	10400096 	beqz	v0,8000a668 <do_execve+0x840>
8000a410:	02248024 	and	s0,s1,a0
8000a414:	afb7011c 	sw	s7,284(sp)
8000a418:	8fb70130 	lw	s7,304(sp)
8000a41c:	08002927 	j	8000a49c <do_execve+0x674>
8000a420:	00000000 	nop
8000a424:	02301023 	subu	v0,s1,s0
8000a428:	26101000 	addiu	s0,s0,4096
8000a42c:	24051000 	li	a1,4096
8000a430:	03d0182b 	sltu	v1,s8,s0
8000a434:	10600003 	beqz	v1,8000a444 <do_execve+0x61c>
8000a438:	00a29823 	subu	s3,a1,v0
8000a43c:	02709823 	subu	s3,s3,s0
8000a440:	027e9821 	addu	s3,s3,s8
8000a444:	3c06800e 	lui	a2,0x800e
8000a448:	8cc5a9b4 	lw	a1,-22092(a2)
8000a44c:	3c04800d 	lui	a0,0x800d
8000a450:	02c52823 	subu	a1,s6,a1
8000a454:	00052943 	sra	a1,a1,0x5
8000a458:	8c837cfc 	lw	v1,31996(a0)
8000a45c:	00052b00 	sll	a1,a1,0xc
8000a460:	00052302 	srl	a0,a1,0xc
8000a464:	3c068000 	lui	a2,0x8000
8000a468:	0083182b 	sltu	v1,a0,v1
8000a46c:	10600091 	beqz	v1,8000a6b4 <do_execve+0x88c>
8000a470:	00a62821 	addu	a1,a1,a2
8000a474:	8fa4011c 	lw	a0,284(sp)
8000a478:	00a22821 	addu	a1,a1,v0
8000a47c:	02603021 	move	a2,s3
8000a480:	0c00247a 	jal	800091e8 <load_icode_read>
8000a484:	02a03821 	move	a3,s5
8000a488:	14400014 	bnez	v0,8000a4dc <do_execve+0x6b4>
8000a48c:	02338821 	addu	s1,s1,s3
8000a490:	023e102b 	sltu	v0,s1,s8
8000a494:	10400014 	beqz	v0,8000a4e8 <do_execve+0x6c0>
8000a498:	0275a821 	addu	s5,s3,s5
8000a49c:	8e84000c 	lw	a0,12(s4)
8000a4a0:	02002821 	move	a1,s0
8000a4a4:	0c001964 	jal	80006590 <pgdir_alloc_page>
8000a4a8:	02e03021 	move	a2,s7
8000a4ac:	1440ffdd 	bnez	v0,8000a424 <do_execve+0x5fc>
8000a4b0:	0040b021 	move	s6,v0
8000a4b4:	8fb00134 	lw	s0,308(sp)
8000a4b8:	2403fffc 	li	v1,-4
8000a4bc:	02802021 	move	a0,s4
8000a4c0:	0c001ff1 	jal	80007fc4 <exit_mmap>
8000a4c4:	afa30138 	sw	v1,312(sp)
8000a4c8:	8fa30138 	lw	v1,312(sp)
8000a4cc:	08002820 	j	8000a080 <do_execve+0x258>
8000a4d0:	02802021 	move	a0,s4
8000a4d4:	080028f7 	j	8000a3dc <do_execve+0x5b4>
8000a4d8:	afa30130 	sw	v1,304(sp)
8000a4dc:	8fb00134 	lw	s0,308(sp)
8000a4e0:	0800292f 	j	8000a4bc <do_execve+0x694>
8000a4e4:	00401821 	move	v1,v0
8000a4e8:	8fb7011c 	lw	s7,284(sp)
8000a4ec:	8fa20040 	lw	v0,64(sp)
8000a4f0:	8fb3004c 	lw	s3,76(sp)
8000a4f4:	0230182b 	sltu	v1,s1,s0
8000a4f8:	10600023 	beqz	v1,8000a588 <do_execve+0x760>
8000a4fc:	00539821 	addu	s3,v0,s3
8000a500:	0233102b 	sltu	v0,s1,s3
8000a504:	1040ff42 	beqz	v0,8000a210 <do_execve+0x3e8>
8000a508:	0270f02b 	sltu	s8,s3,s0
8000a50c:	17c00050 	bnez	s8,8000a650 <do_execve+0x828>
8000a510:	02301023 	subu	v0,s1,s0
8000a514:	0002a823 	negu	s5,v0
8000a518:	3c04800e 	lui	a0,0x800e
8000a51c:	8c83a9b4 	lw	v1,-22092(a0)
8000a520:	3c05800d 	lui	a1,0x800d
8000a524:	02c31823 	subu	v1,s6,v1
8000a528:	00031943 	sra	v1,v1,0x5
8000a52c:	8ca47cfc 	lw	a0,31996(a1)
8000a530:	00031b00 	sll	v1,v1,0xc
8000a534:	00032b02 	srl	a1,v1,0xc
8000a538:	3c078000 	lui	a3,0x8000
8000a53c:	00a4202b 	sltu	a0,a1,a0
8000a540:	1080005d 	beqz	a0,8000a6b8 <do_execve+0x890>
8000a544:	00673821 	addu	a3,v1,a3
8000a548:	24421000 	addiu	v0,v0,4096
8000a54c:	00e22021 	addu	a0,a3,v0
8000a550:	00002821 	move	a1,zero
8000a554:	0c00083d 	jal	800020f4 <memset>
8000a558:	02a03021 	move	a2,s5
8000a55c:	13c00008 	beqz	s8,8000a580 <do_execve+0x758>
8000a560:	02358821 	addu	s1,s1,s5
8000a564:	1271ff2a 	beq	s3,s1,8000a210 <do_execve+0x3e8>
8000a568:	3c048001 	lui	a0,0x8001
8000a56c:	3c068001 	lui	a2,0x8001
8000a570:	24846434 	addiu	a0,a0,25652
8000a574:	24050280 	li	a1,640
8000a578:	0c0009f2 	jal	800027c8 <__panic>
8000a57c:	24c6654c 	addiu	a2,a2,25932
8000a580:	1611fffa 	bne	s0,s1,8000a56c <do_execve+0x744>
8000a584:	3c048001 	lui	a0,0x8001
8000a588:	0233102b 	sltu	v0,s1,s3
8000a58c:	1040ff20 	beqz	v0,8000a210 <do_execve+0x3e8>
8000a590:	3c158000 	lui	s5,0x8000
8000a594:	8fbe0130 	lw	s8,304(sp)
8000a598:	08002983 	j	8000a60c <do_execve+0x7e4>
8000a59c:	00000000 	nop
8000a5a0:	02301823 	subu	v1,s1,s0
8000a5a4:	26101000 	addiu	s0,s0,4096
8000a5a8:	24061000 	li	a2,4096
8000a5ac:	0270202b 	sltu	a0,s3,s0
8000a5b0:	10800003 	beqz	a0,8000a5c0 <do_execve+0x798>
8000a5b4:	00c31023 	subu	v0,a2,v1
8000a5b8:	00501023 	subu	v0,v0,s0
8000a5bc:	00531021 	addu	v0,v0,s3
8000a5c0:	3c05800e 	lui	a1,0x800e
8000a5c4:	8ca4a9b4 	lw	a0,-22092(a1)
8000a5c8:	3c06800d 	lui	a2,0x800d
8000a5cc:	02c42023 	subu	a0,s6,a0
8000a5d0:	00042143 	sra	a0,a0,0x5
8000a5d4:	8cc57cfc 	lw	a1,31996(a2)
8000a5d8:	00042300 	sll	a0,a0,0xc
8000a5dc:	00043302 	srl	a2,a0,0xc
8000a5e0:	00c5282b 	sltu	a1,a2,a1
8000a5e4:	10a00034 	beqz	a1,8000a6b8 <do_execve+0x890>
8000a5e8:	00953821 	addu	a3,a0,s5
8000a5ec:	02228821 	addu	s1,s1,v0
8000a5f0:	00e32021 	addu	a0,a3,v1
8000a5f4:	00002821 	move	a1,zero
8000a5f8:	0c00083d 	jal	800020f4 <memset>
8000a5fc:	00403021 	move	a2,v0
8000a600:	0233102b 	sltu	v0,s1,s3
8000a604:	1040ff02 	beqz	v0,8000a210 <do_execve+0x3e8>
8000a608:	00000000 	nop
8000a60c:	8e84000c 	lw	a0,12(s4)
8000a610:	02002821 	move	a1,s0
8000a614:	0c001964 	jal	80006590 <pgdir_alloc_page>
8000a618:	03c03021 	move	a2,s8
8000a61c:	1440ffe0 	bnez	v0,8000a5a0 <do_execve+0x778>
8000a620:	0040b021 	move	s6,v0
8000a624:	0800292d 	j	8000a4b4 <do_execve+0x68c>
8000a628:	00000000 	nop
8000a62c:	12a0fee5 	beqz	s5,8000a1c4 <do_execve+0x39c>
8000a630:	00000000 	nop
8000a634:	0c0022f6 	jal	80008bd8 <up>
8000a638:	26a4001c 	addiu	a0,s5,28
8000a63c:	2403fffd 	li	v1,-3
8000a640:	08002839 	j	8000a0e4 <do_execve+0x2bc>
8000a644:	aea00028 	sw	zero,40(s5)
8000a648:	08002827 	j	8000a09c <do_execve+0x274>
8000a64c:	2403fffc 	li	v1,-4
8000a650:	0270a823 	subu	s5,s3,s0
8000a654:	08002946 	j	8000a518 <do_execve+0x6f0>
8000a658:	02a2a823 	subu	s5,s5,v0
8000a65c:	8fb00134 	lw	s0,308(sp)
8000a660:	0800292f 	j	8000a4bc <do_execve+0x694>
8000a664:	2403fff8 	li	v1,-8
8000a668:	0800293c 	j	8000a4f0 <do_execve+0x6c8>
8000a66c:	02201021 	move	v0,s1
8000a670:	3c048001 	lui	a0,0x8001
8000a674:	3c068001 	lui	a2,0x8001
8000a678:	24846434 	addiu	a0,a0,25652
8000a67c:	2405029b 	li	a1,667
8000a680:	0c0009f2 	jal	800027c8 <__panic>
8000a684:	24c6553c 	addiu	a2,a2,21820
8000a688:	0c000b7d 	jal	80002df4 <intr_disable>
8000a68c:	afa30138 	sw	v1,312(sp)
8000a690:	8e820018 	lw	v0,24(s4)
8000a694:	00000000 	nop
8000a698:	24420001 	addiu	v0,v0,1
8000a69c:	ae820018 	sw	v0,24(s4)
8000a6a0:	0c000b77 	jal	80002ddc <intr_enable>
8000a6a4:	00000000 	nop
8000a6a8:	8fa30138 	lw	v1,312(sp)
8000a6ac:	080028a4 	j	8000a290 <do_execve+0x468>
8000a6b0:	00000000 	nop
8000a6b4:	00a03821 	move	a3,a1
8000a6b8:	3c048001 	lui	a0,0x8001
8000a6bc:	3c068001 	lui	a2,0x8001
8000a6c0:	24845508 	addiu	a0,a0,21768
8000a6c4:	24050069 	li	a1,105
8000a6c8:	0c0009f2 	jal	800027c8 <__panic>
8000a6cc:	24c65518 	addiu	a2,a2,21784
8000a6d0:	3c048001 	lui	a0,0x8001
8000a6d4:	0c000727 	jal	80001c9c <kprintf>
8000a6d8:	24846508 	addiu	a0,a0,25864
8000a6dc:	0800282c 	j	8000a0b0 <do_execve+0x288>
8000a6e0:	02e01821 	move	v1,s7
8000a6e4:	3c068001 	lui	a2,0x8001
8000a6e8:	24846434 	addiu	a0,a0,25652
8000a6ec:	24050229 	li	a1,553
8000a6f0:	0c0009f2 	jal	800027c8 <__panic>
8000a6f4:	24c66524 	addiu	a2,a2,25892

8000a6f8 <do_yield>:
8000a6f8:	3c02800d 	lui	v0,0x800d
8000a6fc:	8c427d0c 	lw	v0,32012(v0)
8000a700:	24030001 	li	v1,1
8000a704:	ac430010 	sw	v1,16(v0)
8000a708:	03e00008 	jr	ra
8000a70c:	00001021 	move	v0,zero

8000a710 <do_wait>:
8000a710:	27bdffd0 	addiu	sp,sp,-48
8000a714:	afb00010 	sw	s0,16(sp)
8000a718:	3c10800d 	lui	s0,0x800d
8000a71c:	8e027d0c 	lw	v0,32012(s0)
8000a720:	afb20018 	sw	s2,24(sp)
8000a724:	afb10014 	sw	s1,20(sp)
8000a728:	afbf002c 	sw	ra,44(sp)
8000a72c:	afb60028 	sw	s6,40(sp)
8000a730:	afb50024 	sw	s5,36(sp)
8000a734:	afb40020 	sw	s4,32(sp)
8000a738:	afb3001c 	sw	s3,28(sp)
8000a73c:	00808821 	move	s1,a0
8000a740:	1040008c 	beqz	v0,8000a974 <do_wait+0x264>
8000a744:	00a09021 	move	s2,a1
8000a748:	8c440018 	lw	a0,24(v0)
8000a74c:	10a00005 	beqz	a1,8000a764 <do_wait+0x54>
8000a750:	24060004 	li	a2,4
8000a754:	0c0021a5 	jal	80008694 <user_mem_check>
8000a758:	24070001 	li	a3,1
8000a75c:	10400059 	beqz	v0,8000a8c4 <do_wait+0x1b4>
8000a760:	2402fffd 	li	v0,-3
8000a764:	3c158000 	lui	s5,0x8000
8000a768:	24140003 	li	s4,3
8000a76c:	24160001 	li	s6,1
8000a770:	26b50001 	addiu	s5,s5,1
8000a774:	1620005d 	bnez	s1,8000a8ec <do_wait+0x1dc>
8000a778:	00000000 	nop
8000a77c:	8e027d0c 	lw	v0,32012(s0)
8000a780:	00000000 	nop
8000a784:	8c530090 	lw	s3,144(v0)
8000a788:	00000000 	nop
8000a78c:	16600007 	bnez	s3,8000a7ac <do_wait+0x9c>
8000a790:	00000000 	nop
8000a794:	08002a31 	j	8000a8c4 <do_wait+0x1b4>
8000a798:	2402fffe 	li	v0,-2
8000a79c:	8e730098 	lw	s3,152(s3)
8000a7a0:	00000000 	nop
8000a7a4:	1260005e 	beqz	s3,8000a920 <do_wait+0x210>
8000a7a8:	00000000 	nop
8000a7ac:	8e630000 	lw	v1,0(s3)
8000a7b0:	00000000 	nop
8000a7b4:	1474fff9 	bne	v1,s4,8000a79c <do_wait+0x8c>
8000a7b8:	00000000 	nop
8000a7bc:	3c02800d 	lui	v0,0x800d
8000a7c0:	8c427d14 	lw	v0,32020(v0)
8000a7c4:	00000000 	nop
8000a7c8:	12620070 	beq	s3,v0,8000a98c <do_wait+0x27c>
8000a7cc:	3c02800d 	lui	v0,0x800d
8000a7d0:	8c427d10 	lw	v0,32016(v0)
8000a7d4:	00000000 	nop
8000a7d8:	1262006d 	beq	s3,v0,8000a990 <do_wait+0x280>
8000a7dc:	3c048001 	lui	a0,0x8001
8000a7e0:	12400004 	beqz	s2,8000a7f4 <do_wait+0xe4>
8000a7e4:	00000000 	nop
8000a7e8:	8e620088 	lw	v0,136(s3)
8000a7ec:	00000000 	nop
8000a7f0:	ae420000 	sw	v0,0(s2)
8000a7f4:	40026000 	mfc0	v0,c0_status
8000a7f8:	00000000 	nop
8000a7fc:	30420001 	andi	v0,v0,0x1
8000a800:	14400055 	bnez	v0,8000a958 <do_wait+0x248>
8000a804:	00000000 	nop
8000a808:	00002821 	move	a1,zero
8000a80c:	8e640080 	lw	a0,128(s3)
8000a810:	8e630084 	lw	v1,132(s3)
8000a814:	8e620098 	lw	v0,152(s3)
8000a818:	ac830004 	sw	v1,4(a0)
8000a81c:	ac640000 	sw	a0,0(v1)
8000a820:	8e640078 	lw	a0,120(s3)
8000a824:	8e63007c 	lw	v1,124(s3)
8000a828:	00000000 	nop
8000a82c:	ac830004 	sw	v1,4(a0)
8000a830:	10400004 	beqz	v0,8000a844 <do_wait+0x134>
8000a834:	ac640000 	sw	a0,0(v1)
8000a838:	8e630094 	lw	v1,148(s3)
8000a83c:	00000000 	nop
8000a840:	ac430094 	sw	v1,148(v0)
8000a844:	8e630094 	lw	v1,148(s3)
8000a848:	00000000 	nop
8000a84c:	10600046 	beqz	v1,8000a968 <do_wait+0x258>
8000a850:	00000000 	nop
8000a854:	ac620098 	sw	v0,152(v1)
8000a858:	3c02800e 	lui	v0,0x800e
8000a85c:	8c439d38 	lw	v1,-25288(v0)
8000a860:	00000000 	nop
8000a864:	2463ffff 	addiu	v1,v1,-1
8000a868:	10a00003 	beqz	a1,8000a878 <do_wait+0x168>
8000a86c:	ac439d38 	sw	v1,-25288(v0)
8000a870:	0c000b77 	jal	80002ddc <intr_enable>
8000a874:	00000000 	nop
8000a878:	8e67000c 	lw	a3,12(s3)
8000a87c:	00000000 	nop
8000a880:	04e10048 	bgez	a3,8000a9a4 <do_wait+0x294>
8000a884:	3c028000 	lui	v0,0x8000
8000a888:	00e23821 	addu	a3,a3,v0
8000a88c:	3c02800d 	lui	v0,0x800d
8000a890:	8c427cfc 	lw	v0,31996(v0)
8000a894:	00073b02 	srl	a3,a3,0xc
8000a898:	00e2102b 	sltu	v0,a3,v0
8000a89c:	10400047 	beqz	v0,8000a9bc <do_wait+0x2ac>
8000a8a0:	3c02800e 	lui	v0,0x800e
8000a8a4:	8c44a9b4 	lw	a0,-22092(v0)
8000a8a8:	00073940 	sll	a3,a3,0x5
8000a8ac:	00872021 	addu	a0,a0,a3
8000a8b0:	0c0017bc 	jal	80005ef0 <free_pages>
8000a8b4:	24050002 	li	a1,2
8000a8b8:	0c001740 	jal	80005d00 <kfree>
8000a8bc:	02602021 	move	a0,s3
8000a8c0:	00001021 	move	v0,zero
8000a8c4:	8fbf002c 	lw	ra,44(sp)
8000a8c8:	8fb60028 	lw	s6,40(sp)
8000a8cc:	8fb50024 	lw	s5,36(sp)
8000a8d0:	8fb40020 	lw	s4,32(sp)
8000a8d4:	8fb3001c 	lw	s3,28(sp)
8000a8d8:	8fb20018 	lw	s2,24(sp)
8000a8dc:	8fb10014 	lw	s1,20(sp)
8000a8e0:	8fb00010 	lw	s0,16(sp)
8000a8e4:	03e00008 	jr	ra
8000a8e8:	27bd0030 	addiu	sp,sp,48
8000a8ec:	0c00256a 	jal	800095a8 <find_proc>
8000a8f0:	02202021 	move	a0,s1
8000a8f4:	10400016 	beqz	v0,8000a950 <do_wait+0x240>
8000a8f8:	00409821 	move	s3,v0
8000a8fc:	8c420014 	lw	v0,20(v0)
8000a900:	8e037d0c 	lw	v1,32012(s0)
8000a904:	00000000 	nop
8000a908:	14430011 	bne	v0,v1,8000a950 <do_wait+0x240>
8000a90c:	00000000 	nop
8000a910:	8e630000 	lw	v1,0(s3)
8000a914:	00000000 	nop
8000a918:	1074ffa8 	beq	v1,s4,8000a7bc <do_wait+0xac>
8000a91c:	00000000 	nop
8000a920:	ac560000 	sw	s6,0(v0)
8000a924:	0c002c8a 	jal	8000b228 <schedule>
8000a928:	ac55008c 	sw	s5,140(v0)
8000a92c:	8e027d0c 	lw	v0,32012(s0)
8000a930:	00000000 	nop
8000a934:	8c420054 	lw	v0,84(v0)
8000a938:	00000000 	nop
8000a93c:	30420001 	andi	v0,v0,0x1
8000a940:	1040ff8c 	beqz	v0,8000a774 <do_wait+0x64>
8000a944:	00000000 	nop
8000a948:	0c0026fb 	jal	80009bec <do_exit>
8000a94c:	2404fff7 	li	a0,-9
8000a950:	08002a31 	j	8000a8c4 <do_wait+0x1b4>
8000a954:	2402fffe 	li	v0,-2
8000a958:	0c000b7d 	jal	80002df4 <intr_disable>
8000a95c:	00000000 	nop
8000a960:	08002a03 	j	8000a80c <do_wait+0xfc>
8000a964:	24050001 	li	a1,1
8000a968:	8e630014 	lw	v1,20(s3)
8000a96c:	08002a16 	j	8000a858 <do_wait+0x148>
8000a970:	ac620090 	sw	v0,144(v1)
8000a974:	3c048001 	lui	a0,0x8001
8000a978:	3c068001 	lui	a2,0x8001
8000a97c:	24846434 	addiu	a0,a0,25652
8000a980:	24050346 	li	a1,838
8000a984:	0c0009f2 	jal	800027c8 <__panic>
8000a988:	24c665ac 	addiu	a2,a2,26028
8000a98c:	3c048001 	lui	a0,0x8001
8000a990:	3c068001 	lui	a2,0x8001
8000a994:	24846434 	addiu	a0,a0,25652
8000a998:	24050371 	li	a1,881
8000a99c:	0c0009f2 	jal	800027c8 <__panic>
8000a9a0:	24c665c8 	addiu	a2,a2,26056
8000a9a4:	3c048001 	lui	a0,0x8001
8000a9a8:	3c068001 	lui	a2,0x8001
8000a9ac:	24845508 	addiu	a0,a0,21768
8000a9b0:	2405006e 	li	a1,110
8000a9b4:	0c0009f2 	jal	800027c8 <__panic>
8000a9b8:	24c6553c 	addiu	a2,a2,21820
8000a9bc:	3c048001 	lui	a0,0x8001
8000a9c0:	3c068001 	lui	a2,0x8001
8000a9c4:	24845508 	addiu	a0,a0,21768
8000a9c8:	24050062 	li	a1,98
8000a9cc:	0c0009f2 	jal	800027c8 <__panic>
8000a9d0:	24c65560 	addiu	a2,a2,21856

8000a9d4 <init_main>:
8000a9d4:	3c048001 	lui	a0,0x8001
8000a9d8:	27bdffe0 	addiu	sp,sp,-32
8000a9dc:	248465e4 	addiu	a0,a0,26084
8000a9e0:	afbf001c 	sw	ra,28(sp)
8000a9e4:	afb10018 	sw	s1,24(sp)
8000a9e8:	0c0037f0 	jal	8000dfc0 <vfs_set_bootfs>
8000a9ec:	afb00014 	sw	s0,20(sp)
8000a9f0:	14400052 	bnez	v0,8000ab3c <init_main+0x168>
8000a9f4:	3c048001 	lui	a0,0x8001
8000a9f8:	0c0017dd 	jal	80005f74 <nr_free_pages>
8000a9fc:	00000000 	nop
8000aa00:	0c0016db 	jal	80005b6c <kallocated>
8000aa04:	00408821 	move	s1,v0
8000aa08:	3c048001 	lui	a0,0x8001
8000aa0c:	248490e4 	addiu	a0,a0,-28444
8000aa10:	00002821 	move	a1,zero
8000aa14:	00003021 	move	a2,zero
8000aa18:	0c0026d8 	jal	80009b60 <kernel_thread>
8000aa1c:	00408021 	move	s0,v0
8000aa20:	1c400005 	bgtz	v0,8000aa38 <init_main+0x64>
8000aa24:	3c048001 	lui	a0,0x8001
8000aa28:	08002acb 	j	8000ab2c <init_main+0x158>
8000aa2c:	3c068001 	lui	a2,0x8001
8000aa30:	0c002c8a 	jal	8000b228 <schedule>
8000aa34:	00000000 	nop
8000aa38:	00002021 	move	a0,zero
8000aa3c:	0c0029c4 	jal	8000a710 <do_wait>
8000aa40:	00002821 	move	a1,zero
8000aa44:	1040fffa 	beqz	v0,8000aa30 <init_main+0x5c>
8000aa48:	00000000 	nop
8000aa4c:	0c00330f 	jal	8000cc3c <fs_cleanup>
8000aa50:	00000000 	nop
8000aa54:	3c048001 	lui	a0,0x8001
8000aa58:	0c000727 	jal	80001c9c <kprintf>
8000aa5c:	24846624 	addiu	a0,a0,26148
8000aa60:	3c02800d 	lui	v0,0x800d
8000aa64:	8c427d10 	lw	v0,32016(v0)
8000aa68:	00000000 	nop
8000aa6c:	8c430090 	lw	v1,144(v0)
8000aa70:	00000000 	nop
8000aa74:	14600027 	bnez	v1,8000ab14 <init_main+0x140>
8000aa78:	00000000 	nop
8000aa7c:	8c430094 	lw	v1,148(v0)
8000aa80:	00000000 	nop
8000aa84:	14600023 	bnez	v1,8000ab14 <init_main+0x140>
8000aa88:	00000000 	nop
8000aa8c:	8c430098 	lw	v1,152(v0)
8000aa90:	00000000 	nop
8000aa94:	1460001f 	bnez	v1,8000ab14 <init_main+0x140>
8000aa98:	3c03800e 	lui	v1,0x800e
8000aa9c:	8c649d38 	lw	a0,-25288(v1)
8000aaa0:	24030002 	li	v1,2
8000aaa4:	1483003e 	bne	a0,v1,8000aba0 <init_main+0x1cc>
8000aaa8:	3c03800e 	lui	v1,0x800e
8000aaac:	2464a9bc 	addiu	a0,v1,-22084
8000aab0:	8c840004 	lw	a0,4(a0)
8000aab4:	24420078 	addiu	v0,v0,120
8000aab8:	14440034 	bne	v0,a0,8000ab8c <init_main+0x1b8>
8000aabc:	3c048001 	lui	a0,0x8001
8000aac0:	8c63a9bc 	lw	v1,-22084(v1)
8000aac4:	00000000 	nop
8000aac8:	1443002c 	bne	v0,v1,8000ab7c <init_main+0x1a8>
8000aacc:	3c068001 	lui	a2,0x8001
8000aad0:	0c0017dd 	jal	80005f74 <nr_free_pages>
8000aad4:	00000000 	nop
8000aad8:	14510023 	bne	v0,s1,8000ab68 <init_main+0x194>
8000aadc:	3c048001 	lui	a0,0x8001
8000aae0:	0c0016db 	jal	80005b6c <kallocated>
8000aae4:	00000000 	nop
8000aae8:	1450001a 	bne	v0,s0,8000ab54 <init_main+0x180>
8000aaec:	3c068001 	lui	a2,0x8001
8000aaf0:	3c048001 	lui	a0,0x8001
8000aaf4:	0c000727 	jal	80001c9c <kprintf>
8000aaf8:	2484678c 	addiu	a0,a0,26508
8000aafc:	8fbf001c 	lw	ra,28(sp)
8000ab00:	00001021 	move	v0,zero
8000ab04:	8fb10018 	lw	s1,24(sp)
8000ab08:	8fb00014 	lw	s0,20(sp)
8000ab0c:	03e00008 	jr	ra
8000ab10:	27bd0020 	addiu	sp,sp,32
8000ab14:	3c048001 	lui	a0,0x8001
8000ab18:	3c068001 	lui	a2,0x8001
8000ab1c:	24846434 	addiu	a0,a0,25652
8000ab20:	240503d6 	li	a1,982
8000ab24:	0c0009f2 	jal	800027c8 <__panic>
8000ab28:	24c66648 	addiu	a2,a2,26184
8000ab2c:	24846434 	addiu	a0,a0,25652
8000ab30:	240503cd 	li	a1,973
8000ab34:	0c0009f2 	jal	800027c8 <__panic>
8000ab38:	24c66608 	addiu	a2,a2,26120
8000ab3c:	3c068001 	lui	a2,0x8001
8000ab40:	24846434 	addiu	a0,a0,25652
8000ab44:	240503c5 	li	a1,965
8000ab48:	24c665ec 	addiu	a2,a2,26092
8000ab4c:	0c0009f2 	jal	800027c8 <__panic>
8000ab50:	00403821 	move	a3,v0
8000ab54:	3c048001 	lui	a0,0x8001
8000ab58:	24846434 	addiu	a0,a0,25652
8000ab5c:	240503db 	li	a1,987
8000ab60:	0c0009f2 	jal	800027c8 <__panic>
8000ab64:	24c66754 	addiu	a2,a2,26452
8000ab68:	3c068001 	lui	a2,0x8001
8000ab6c:	24846434 	addiu	a0,a0,25652
8000ab70:	240503da 	li	a1,986
8000ab74:	0c0009f2 	jal	800027c8 <__panic>
8000ab78:	24c660dc 	addiu	a2,a2,24796
8000ab7c:	24846434 	addiu	a0,a0,25652
8000ab80:	240503d9 	li	a1,985
8000ab84:	0c0009f2 	jal	800027c8 <__panic>
8000ab88:	24c66710 	addiu	a2,a2,26384
8000ab8c:	3c068001 	lui	a2,0x8001
8000ab90:	24846434 	addiu	a0,a0,25652
8000ab94:	240503d8 	li	a1,984
8000ab98:	0c0009f2 	jal	800027c8 <__panic>
8000ab9c:	24c666cc 	addiu	a2,a2,26316
8000aba0:	3c048001 	lui	a0,0x8001
8000aba4:	3c068001 	lui	a2,0x8001
8000aba8:	24846434 	addiu	a0,a0,25652
8000abac:	240503d7 	li	a1,983
8000abb0:	0c0009f2 	jal	800027c8 <__panic>
8000abb4:	24c666a8 	addiu	a2,a2,26280

8000abb8 <do_kill>:
8000abb8:	27bdffe8 	addiu	sp,sp,-24
8000abbc:	afbf0014 	sw	ra,20(sp)
8000abc0:	0c00256a 	jal	800095a8 <find_proc>
8000abc4:	00000000 	nop
8000abc8:	10400017 	beqz	v0,8000ac28 <do_kill+0x70>
8000abcc:	00000000 	nop
8000abd0:	8c430054 	lw	v1,84(v0)
8000abd4:	00000000 	nop
8000abd8:	30640001 	andi	a0,v1,0x1
8000abdc:	14800010 	bnez	a0,8000ac20 <do_kill+0x68>
8000abe0:	00000000 	nop
8000abe4:	8c44008c 	lw	a0,140(v0)
8000abe8:	34630001 	ori	v1,v1,0x1
8000abec:	04800006 	bltz	a0,8000ac08 <do_kill+0x50>
8000abf0:	ac430054 	sw	v1,84(v0)
8000abf4:	00001021 	move	v0,zero
8000abf8:	8fbf0014 	lw	ra,20(sp)
8000abfc:	00000000 	nop
8000ac00:	03e00008 	jr	ra
8000ac04:	27bd0018 	addiu	sp,sp,24
8000ac08:	0c002c4c 	jal	8000b130 <wakeup_proc>
8000ac0c:	00402021 	move	a0,v0
8000ac10:	8fbf0014 	lw	ra,20(sp)
8000ac14:	00001021 	move	v0,zero
8000ac18:	03e00008 	jr	ra
8000ac1c:	27bd0018 	addiu	sp,sp,24
8000ac20:	08002afe 	j	8000abf8 <do_kill+0x40>
8000ac24:	2402fff7 	li	v0,-9
8000ac28:	08002afe 	j	8000abf8 <do_kill+0x40>
8000ac2c:	2402fffd 	li	v0,-3

8000ac30 <proc_init>:
8000ac30:	3c03800e 	lui	v1,0x800e
8000ac34:	27bdffe0 	addiu	sp,sp,-32
8000ac38:	2462a9bc 	addiu	v0,v1,-22084
8000ac3c:	3c05800d 	lui	a1,0x800d
8000ac40:	afbf001c 	sw	ra,28(sp)
8000ac44:	afb10018 	sw	s1,24(sp)
8000ac48:	afb00014 	sw	s0,20(sp)
8000ac4c:	ac62a9bc 	sw	v0,-22084(v1)
8000ac50:	ac420004 	sw	v0,4(v0)
8000ac54:	00001821 	move	v1,zero
8000ac58:	24a57d38 	addiu	a1,a1,32056
8000ac5c:	24040400 	li	a0,1024
8000ac60:	000310c0 	sll	v0,v1,0x3
8000ac64:	00a21021 	addu	v0,a1,v0
8000ac68:	24630001 	addiu	v1,v1,1
8000ac6c:	ac420004 	sw	v0,4(v0)
8000ac70:	1464fffb 	bne	v1,a0,8000ac60 <proc_init+0x30>
8000ac74:	ac420000 	sw	v0,0(v0)
8000ac78:	0c00240a 	jal	80009028 <alloc_proc>
8000ac7c:	3c10800d 	lui	s0,0x800d
8000ac80:	00408821 	move	s1,v0
8000ac84:	1040005a 	beqz	v0,8000adf0 <proc_init+0x1c0>
8000ac88:	ae027d14 	sw	v0,32020(s0)
8000ac8c:	ac400004 	sw	zero,4(v0)
8000ac90:	24020002 	li	v0,2
8000ac94:	ae220000 	sw	v0,0(s1)
8000ac98:	3c028002 	lui	v0,0x8002
8000ac9c:	24429424 	addiu	v0,v0,-27612
8000aca0:	ae22000c 	sw	v0,12(s1)
8000aca4:	24020001 	li	v0,1
8000aca8:	0c003315 	jal	8000cc54 <fs_create>
8000acac:	ae220010 	sw	v0,16(s1)
8000acb0:	10400049 	beqz	v0,8000add8 <proc_init+0x1a8>
8000acb4:	ae2200ac 	sw	v0,172(s1)
8000acb8:	8e047d14 	lw	a0,32020(s0)
8000acbc:	00000000 	nop
8000acc0:	8c9100ac 	lw	s1,172(a0)
8000acc4:	40026000 	mfc0	v0,c0_status
8000acc8:	00000000 	nop
8000accc:	30420001 	andi	v0,v0,0x1
8000acd0:	14400036 	bnez	v0,8000adac <proc_init+0x17c>
8000acd4:	00000000 	nop
8000acd8:	8e220008 	lw	v0,8(s1)
8000acdc:	00000000 	nop
8000ace0:	24420001 	addiu	v0,v0,1
8000ace4:	ae220008 	sw	v0,8(s1)
8000ace8:	3c058001 	lui	a1,0x8001
8000acec:	24a567e8 	addiu	a1,a1,26600
8000acf0:	8e220008 	lw	v0,8(s1)
8000acf4:	0c002515 	jal	80009454 <set_proc_name>
8000acf8:	00000000 	nop
8000acfc:	3c02800e 	lui	v0,0x800e
8000ad00:	8c479d38 	lw	a3,-25288(v0)
8000ad04:	8e037d14 	lw	v1,32020(s0)
8000ad08:	24e70001 	addiu	a3,a3,1
8000ad0c:	3c048001 	lui	a0,0x8001
8000ad10:	ac479d38 	sw	a3,-25288(v0)
8000ad14:	2484a9d4 	addiu	a0,a0,-22060
8000ad18:	3c02800d 	lui	v0,0x800d
8000ad1c:	00002821 	move	a1,zero
8000ad20:	00003021 	move	a2,zero
8000ad24:	0c0026d8 	jal	80009b60 <kernel_thread>
8000ad28:	ac437d0c 	sw	v1,32012(v0)
8000ad2c:	1840003f 	blez	v0,8000ae2c <proc_init+0x1fc>
8000ad30:	3c048001 	lui	a0,0x8001
8000ad34:	0c00256a 	jal	800095a8 <find_proc>
8000ad38:	00402021 	move	a0,v0
8000ad3c:	3c058001 	lui	a1,0x8001
8000ad40:	3c10800d 	lui	s0,0x800d
8000ad44:	00402021 	move	a0,v0
8000ad48:	24a5680c 	addiu	a1,a1,26636
8000ad4c:	0c002515 	jal	80009454 <set_proc_name>
8000ad50:	ae027d10 	sw	v0,32016(s0)
8000ad54:	3c02800d 	lui	v0,0x800d
8000ad58:	8c427d14 	lw	v0,32020(v0)
8000ad5c:	00000000 	nop
8000ad60:	1040002d 	beqz	v0,8000ae18 <proc_init+0x1e8>
8000ad64:	3c048001 	lui	a0,0x8001
8000ad68:	8c420004 	lw	v0,4(v0)
8000ad6c:	00000000 	nop
8000ad70:	1440002a 	bnez	v0,8000ae1c <proc_init+0x1ec>
8000ad74:	3c068001 	lui	a2,0x8001
8000ad78:	8e027d10 	lw	v0,32016(s0)
8000ad7c:	00000000 	nop
8000ad80:	10400021 	beqz	v0,8000ae08 <proc_init+0x1d8>
8000ad84:	3c068001 	lui	a2,0x8001
8000ad88:	8c430004 	lw	v1,4(v0)
8000ad8c:	24020001 	li	v0,1
8000ad90:	1462001d 	bne	v1,v0,8000ae08 <proc_init+0x1d8>
8000ad94:	00000000 	nop
8000ad98:	8fbf001c 	lw	ra,28(sp)
8000ad9c:	8fb10018 	lw	s1,24(sp)
8000ada0:	8fb00014 	lw	s0,20(sp)
8000ada4:	03e00008 	jr	ra
8000ada8:	27bd0020 	addiu	sp,sp,32
8000adac:	0c000b7d 	jal	80002df4 <intr_disable>
8000adb0:	00000000 	nop
8000adb4:	8e220008 	lw	v0,8(s1)
8000adb8:	00000000 	nop
8000adbc:	24420001 	addiu	v0,v0,1
8000adc0:	ae220008 	sw	v0,8(s1)
8000adc4:	0c000b77 	jal	80002ddc <intr_enable>
8000adc8:	00000000 	nop
8000adcc:	8e047d14 	lw	a0,32020(s0)
8000add0:	08002b3b 	j	8000acec <proc_init+0xbc>
8000add4:	3c058001 	lui	a1,0x8001
8000add8:	3c048001 	lui	a0,0x8001
8000addc:	3c068001 	lui	a2,0x8001
8000ade0:	24846434 	addiu	a0,a0,25652
8000ade4:	240503f5 	li	a1,1013
8000ade8:	0c0009f2 	jal	800027c8 <__panic>
8000adec:	24c667c0 	addiu	a2,a2,26560
8000adf0:	3c048001 	lui	a0,0x8001
8000adf4:	3c068001 	lui	a2,0x8001
8000adf8:	24846434 	addiu	a0,a0,25652
8000adfc:	240503ec 	li	a1,1004
8000ae00:	0c0009f2 	jal	800027c8 <__panic>
8000ae04:	24c667a8 	addiu	a2,a2,26536
8000ae08:	24846434 	addiu	a0,a0,25652
8000ae0c:	24050407 	li	a1,1031
8000ae10:	0c0009f2 	jal	800027c8 <__panic>
8000ae14:	24c66850 	addiu	a2,a2,26704
8000ae18:	3c068001 	lui	a2,0x8001
8000ae1c:	24846434 	addiu	a0,a0,25652
8000ae20:	24050406 	li	a1,1030
8000ae24:	0c0009f2 	jal	800027c8 <__panic>
8000ae28:	24c66814 	addiu	a2,a2,26644
8000ae2c:	3c068001 	lui	a2,0x8001
8000ae30:	24846434 	addiu	a0,a0,25652
8000ae34:	24050400 	li	a1,1024
8000ae38:	0c0009f2 	jal	800027c8 <__panic>
8000ae3c:	24c667f0 	addiu	a2,a2,26608

8000ae40 <cpu_idle>:
8000ae40:	27bdffe8 	addiu	sp,sp,-24
8000ae44:	afb00010 	sw	s0,16(sp)
8000ae48:	afbf0014 	sw	ra,20(sp)
8000ae4c:	3c10800d 	lui	s0,0x800d
8000ae50:	8e037d0c 	lw	v1,32012(s0)
8000ae54:	00000000 	nop
8000ae58:	8c620010 	lw	v0,16(v1)
8000ae5c:	00000000 	nop
8000ae60:	1040fffd 	beqz	v0,8000ae58 <cpu_idle+0x18>
8000ae64:	00000000 	nop
8000ae68:	0c002c8a 	jal	8000b228 <schedule>
8000ae6c:	00000000 	nop
8000ae70:	08002b94 	j	8000ae50 <cpu_idle+0x10>
8000ae74:	00000000 	nop

8000ae78 <do_sleep>:
8000ae78:	27bdffd0 	addiu	sp,sp,-48
8000ae7c:	afbf002c 	sw	ra,44(sp)
8000ae80:	14800006 	bnez	a0,8000ae9c <do_sleep+0x24>
8000ae84:	afb00028 	sw	s0,40(sp)
8000ae88:	8fbf002c 	lw	ra,44(sp)
8000ae8c:	00001021 	move	v0,zero
8000ae90:	8fb00028 	lw	s0,40(sp)
8000ae94:	03e00008 	jr	ra
8000ae98:	27bd0030 	addiu	sp,sp,48
8000ae9c:	40026000 	mfc0	v0,c0_status
8000aea0:	00000000 	nop
8000aea4:	30420001 	andi	v0,v0,0x1
8000aea8:	14400018 	bnez	v0,8000af0c <do_sleep+0x94>
8000aeac:	27a30018 	addiu	v1,sp,24
8000aeb0:	3c02800d 	lui	v0,0x800d
8000aeb4:	8c427d0c 	lw	v0,32012(v0)
8000aeb8:	afa3001c 	sw	v1,28(sp)
8000aebc:	afa30018 	sw	v1,24(sp)
8000aec0:	3c038000 	lui	v1,0x8000
8000aec4:	24630002 	addiu	v1,v1,2
8000aec8:	27b00010 	addiu	s0,sp,16
8000aecc:	ac43008c 	sw	v1,140(v0)
8000aed0:	24030001 	li	v1,1
8000aed4:	afa40010 	sw	a0,16(sp)
8000aed8:	afa20014 	sw	v0,20(sp)
8000aedc:	02002021 	move	a0,s0
8000aee0:	0c002ce7 	jal	8000b39c <add_timer>
8000aee4:	ac430000 	sw	v1,0(v0)
8000aee8:	0c002c8a 	jal	8000b228 <schedule>
8000aeec:	00000000 	nop
8000aef0:	0c002d36 	jal	8000b4d8 <del_timer>
8000aef4:	02002021 	move	a0,s0
8000aef8:	8fbf002c 	lw	ra,44(sp)
8000aefc:	00001021 	move	v0,zero
8000af00:	8fb00028 	lw	s0,40(sp)
8000af04:	03e00008 	jr	ra
8000af08:	27bd0030 	addiu	sp,sp,48
8000af0c:	0c000b7d 	jal	80002df4 <intr_disable>
8000af10:	afa40020 	sw	a0,32(sp)
8000af14:	3c02800d 	lui	v0,0x800d
8000af18:	8c427d0c 	lw	v0,32012(v0)
8000af1c:	8fa40020 	lw	a0,32(sp)
8000af20:	27a30018 	addiu	v1,sp,24
8000af24:	afa3001c 	sw	v1,28(sp)
8000af28:	afa30018 	sw	v1,24(sp)
8000af2c:	24030001 	li	v1,1
8000af30:	afa40010 	sw	a0,16(sp)
8000af34:	afa20014 	sw	v0,20(sp)
8000af38:	ac430000 	sw	v1,0(v0)
8000af3c:	3c038000 	lui	v1,0x8000
8000af40:	24630002 	addiu	v1,v1,2
8000af44:	27b00010 	addiu	s0,sp,16
8000af48:	02002021 	move	a0,s0
8000af4c:	0c002ce7 	jal	8000b39c <add_timer>
8000af50:	ac43008c 	sw	v1,140(v0)
8000af54:	0c000b77 	jal	80002ddc <intr_enable>
8000af58:	00000000 	nop
8000af5c:	08002bba 	j	8000aee8 <do_sleep+0x70>
8000af60:	00000000 	nop

8000af64 <RR_init>:
8000af64:	ac840004 	sw	a0,4(a0)
8000af68:	ac840000 	sw	a0,0(a0)
8000af6c:	03e00008 	jr	ra
8000af70:	ac800008 	sw	zero,8(a0)

8000af74 <RR_pick_next>:
8000af74:	8c820004 	lw	v0,4(a0)
8000af78:	00000000 	nop
8000af7c:	10820003 	beq	a0,v0,8000af8c <RR_pick_next+0x18>
8000af80:	00000000 	nop
8000af84:	03e00008 	jr	ra
8000af88:	2442ff60 	addiu	v0,v0,-160
8000af8c:	03e00008 	jr	ra
8000af90:	00001021 	move	v0,zero

8000af94 <RR_proc_tick>:
8000af94:	8ca200a8 	lw	v0,168(a1)
8000af98:	00000000 	nop
8000af9c:	18400003 	blez	v0,8000afac <RR_proc_tick+0x18>
8000afa0:	00000000 	nop
8000afa4:	2442ffff 	addiu	v0,v0,-1
8000afa8:	aca200a8 	sw	v0,168(a1)
8000afac:	14400002 	bnez	v0,8000afb8 <RR_proc_tick+0x24>
8000afb0:	24020001 	li	v0,1
8000afb4:	aca20010 	sw	v0,16(a1)
8000afb8:	03e00008 	jr	ra
8000afbc:	00000000 	nop

8000afc0 <RR_dequeue>:
8000afc0:	8ca300a4 	lw	v1,164(a1)
8000afc4:	27bdffe8 	addiu	sp,sp,-24
8000afc8:	24a200a0 	addiu	v0,a1,160
8000afcc:	10430010 	beq	v0,v1,8000b010 <RR_dequeue+0x50>
8000afd0:	afbf0014 	sw	ra,20(sp)
8000afd4:	8ca6009c 	lw	a2,156(a1)
8000afd8:	00000000 	nop
8000afdc:	14c4000d 	bne	a2,a0,8000b014 <RR_dequeue+0x54>
8000afe0:	3c048001 	lui	a0,0x8001
8000afe4:	8cc70008 	lw	a3,8(a2)
8000afe8:	8ca400a0 	lw	a0,160(a1)
8000afec:	8fbf0014 	lw	ra,20(sp)
8000aff0:	24e7ffff 	addiu	a3,a3,-1
8000aff4:	ac830004 	sw	v1,4(a0)
8000aff8:	ac640000 	sw	a0,0(v1)
8000affc:	aca200a4 	sw	v0,164(a1)
8000b000:	aca200a0 	sw	v0,160(a1)
8000b004:	27bd0018 	addiu	sp,sp,24
8000b008:	03e00008 	jr	ra
8000b00c:	acc70008 	sw	a3,8(a2)
8000b010:	3c048001 	lui	a0,0x8001
8000b014:	3c068001 	lui	a2,0x8001
8000b018:	2484688c 	addiu	a0,a0,26764
8000b01c:	2405001a 	li	a1,26
8000b020:	0c0009f2 	jal	800027c8 <__panic>
8000b024:	24c668ac 	addiu	a2,a2,26796

8000b028 <RR_enqueue>:
8000b028:	8ca300a4 	lw	v1,164(a1)
8000b02c:	27bdffe8 	addiu	sp,sp,-24
8000b030:	24a200a0 	addiu	v0,a1,160
8000b034:	1443001c 	bne	v0,v1,8000b0a8 <RR_enqueue+0x80>
8000b038:	afbf0014 	sw	ra,20(sp)
8000b03c:	8c830000 	lw	v1,0(a0)
8000b040:	8ca600a8 	lw	a2,168(a1)
8000b044:	ac820000 	sw	v0,0(a0)
8000b048:	ac620004 	sw	v0,4(v1)
8000b04c:	aca300a0 	sw	v1,160(a1)
8000b050:	aca400a4 	sw	a0,164(a1)
8000b054:	8c82000c 	lw	v0,12(a0)
8000b058:	14c00009 	bnez	a2,8000b080 <RR_enqueue+0x58>
8000b05c:	00000000 	nop
8000b060:	aca200a8 	sw	v0,168(a1)
8000b064:	8c820008 	lw	v0,8(a0)
8000b068:	8fbf0014 	lw	ra,20(sp)
8000b06c:	24420001 	addiu	v0,v0,1
8000b070:	aca4009c 	sw	a0,156(a1)
8000b074:	27bd0018 	addiu	sp,sp,24
8000b078:	03e00008 	jr	ra
8000b07c:	ac820008 	sw	v0,8(a0)
8000b080:	0046302a 	slt	a2,v0,a2
8000b084:	14c0fff6 	bnez	a2,8000b060 <RR_enqueue+0x38>
8000b088:	00000000 	nop
8000b08c:	8c820008 	lw	v0,8(a0)
8000b090:	8fbf0014 	lw	ra,20(sp)
8000b094:	24420001 	addiu	v0,v0,1
8000b098:	aca4009c 	sw	a0,156(a1)
8000b09c:	27bd0018 	addiu	sp,sp,24
8000b0a0:	03e00008 	jr	ra
8000b0a4:	ac820008 	sw	v0,8(a0)
8000b0a8:	3c048001 	lui	a0,0x8001
8000b0ac:	3c068001 	lui	a2,0x8001
8000b0b0:	2484688c 	addiu	a0,a0,26764
8000b0b4:	2405000f 	li	a1,15
8000b0b8:	0c0009f2 	jal	800027c8 <__panic>
8000b0bc:	24c668f0 	addiu	a2,a2,26864

8000b0c0 <sched_init>:
8000b0c0:	3c07800e 	lui	a3,0x800e
8000b0c4:	27bdffe8 	addiu	sp,sp,-24
8000b0c8:	24e59d3c 	addiu	a1,a3,-25284
8000b0cc:	3c068002 	lui	a2,0x8002
8000b0d0:	3c03800e 	lui	v1,0x800e
8000b0d4:	afbf0014 	sw	ra,20(sp)
8000b0d8:	afb00010 	sw	s0,16(sp)
8000b0dc:	24639d4c 	addiu	v1,v1,-25268
8000b0e0:	24c6940c 	addiu	a2,a2,-27636
8000b0e4:	aca50004 	sw	a1,4(a1)
8000b0e8:	ace59d3c 	sw	a1,-25284(a3)
8000b0ec:	3c05800e 	lui	a1,0x800e
8000b0f0:	3c10800e 	lui	s0,0x800e
8000b0f4:	8cc20004 	lw	v0,4(a2)
8000b0f8:	aca39d48 	sw	v1,-25272(a1)
8000b0fc:	24050014 	li	a1,20
8000b100:	00602021 	move	a0,v1
8000b104:	ae069d44 	sw	a2,-25276(s0)
8000b108:	0040f809 	jalr	v0
8000b10c:	ac65000c 	sw	a1,12(v1)
8000b110:	8e029d44 	lw	v0,-25276(s0)
8000b114:	3c048001 	lui	a0,0x8001
8000b118:	8fbf0014 	lw	ra,20(sp)
8000b11c:	8fb00010 	lw	s0,16(sp)
8000b120:	8c450000 	lw	a1,0(v0)
8000b124:	24846930 	addiu	a0,a0,26928
8000b128:	08000727 	j	80001c9c <kprintf>
8000b12c:	27bd0018 	addiu	sp,sp,24

8000b130 <wakeup_proc>:
8000b130:	8c820000 	lw	v0,0(a0)
8000b134:	27bdffe0 	addiu	sp,sp,-32
8000b138:	24030003 	li	v1,3
8000b13c:	afbf001c 	sw	ra,28(sp)
8000b140:	afb00018 	sw	s0,24(sp)
8000b144:	10430032 	beq	v0,v1,8000b210 <wakeup_proc+0xe0>
8000b148:	00802821 	move	a1,a0
8000b14c:	40036000 	mfc0	v1,c0_status
8000b150:	00000000 	nop
8000b154:	30630001 	andi	v1,v1,0x1
8000b158:	14600019 	bnez	v1,8000b1c0 <wakeup_proc+0x90>
8000b15c:	24030002 	li	v1,2
8000b160:	1043001f 	beq	v0,v1,8000b1e0 <wakeup_proc+0xb0>
8000b164:	00008021 	move	s0,zero
8000b168:	3c02800d 	lui	v0,0x800d
8000b16c:	8c427d0c 	lw	v0,32012(v0)
8000b170:	aca0008c 	sw	zero,140(a1)
8000b174:	10a2000c 	beq	a1,v0,8000b1a8 <wakeup_proc+0x78>
8000b178:	aca30000 	sw	v1,0(a1)
8000b17c:	3c02800d 	lui	v0,0x800d
8000b180:	8c427d14 	lw	v0,32020(v0)
8000b184:	00000000 	nop
8000b188:	10a20007 	beq	a1,v0,8000b1a8 <wakeup_proc+0x78>
8000b18c:	3c02800e 	lui	v0,0x800e
8000b190:	8c429d44 	lw	v0,-25276(v0)
8000b194:	3c03800e 	lui	v1,0x800e
8000b198:	8c420008 	lw	v0,8(v0)
8000b19c:	8c649d48 	lw	a0,-25272(v1)
8000b1a0:	0040f809 	jalr	v0
8000b1a4:	00000000 	nop
8000b1a8:	16000015 	bnez	s0,8000b200 <wakeup_proc+0xd0>
8000b1ac:	00000000 	nop
8000b1b0:	8fbf001c 	lw	ra,28(sp)
8000b1b4:	8fb00018 	lw	s0,24(sp)
8000b1b8:	03e00008 	jr	ra
8000b1bc:	27bd0020 	addiu	sp,sp,32
8000b1c0:	0c000b7d 	jal	80002df4 <intr_disable>
8000b1c4:	afa40010 	sw	a0,16(sp)
8000b1c8:	8fa50010 	lw	a1,16(sp)
8000b1cc:	24030002 	li	v1,2
8000b1d0:	8ca20000 	lw	v0,0(a1)
8000b1d4:	00000000 	nop
8000b1d8:	1443ffe3 	bne	v0,v1,8000b168 <wakeup_proc+0x38>
8000b1dc:	24100001 	li	s0,1
8000b1e0:	3c048001 	lui	a0,0x8001
8000b1e4:	3c068001 	lui	a2,0x8001
8000b1e8:	24846944 	addiu	a0,a0,26948
8000b1ec:	24050047 	li	a1,71
8000b1f0:	0c000a12 	jal	80002848 <__warn>
8000b1f4:	24c6698c 	addiu	a2,a2,27020
8000b1f8:	1200ffed 	beqz	s0,8000b1b0 <wakeup_proc+0x80>
8000b1fc:	00000000 	nop
8000b200:	8fbf001c 	lw	ra,28(sp)
8000b204:	8fb00018 	lw	s0,24(sp)
8000b208:	08000b77 	j	80002ddc <intr_enable>
8000b20c:	27bd0020 	addiu	sp,sp,32
8000b210:	3c048001 	lui	a0,0x8001
8000b214:	3c068001 	lui	a2,0x8001
8000b218:	24846944 	addiu	a0,a0,26948
8000b21c:	2405003b 	li	a1,59
8000b220:	0c0009f2 	jal	800027c8 <__panic>
8000b224:	24c6695c 	addiu	a2,a2,26972

8000b228 <schedule>:
8000b228:	27bdffd0 	addiu	sp,sp,-48
8000b22c:	afbf002c 	sw	ra,44(sp)
8000b230:	afb30028 	sw	s3,40(sp)
8000b234:	afb20024 	sw	s2,36(sp)
8000b238:	afb10020 	sw	s1,32(sp)
8000b23c:	afb0001c 	sw	s0,28(sp)
8000b240:	40026000 	mfc0	v0,c0_status
8000b244:	00000000 	nop
8000b248:	30420001 	andi	v0,v0,0x1
8000b24c:	1440002b 	bnez	v0,8000b2fc <schedule+0xd4>
8000b250:	3c10800d 	lui	s0,0x800d
8000b254:	8e057d0c 	lw	a1,32012(s0)
8000b258:	24020002 	li	v0,2
8000b25c:	8ca30000 	lw	v1,0(a1)
8000b260:	00008821 	move	s1,zero
8000b264:	aca00010 	sw	zero,16(a1)
8000b268:	1062002d 	beq	v1,v0,8000b320 <schedule+0xf8>
8000b26c:	3c02800d 	lui	v0,0x800d
8000b270:	3c13800e 	lui	s3,0x800e
8000b274:	3c12800e 	lui	s2,0x800e
8000b278:	8e629d44 	lw	v0,-25276(s3)
8000b27c:	8e449d48 	lw	a0,-25272(s2)
8000b280:	8c420010 	lw	v0,16(v0)
8000b284:	00000000 	nop
8000b288:	0040f809 	jalr	v0
8000b28c:	00000000 	nop
8000b290:	10400035 	beqz	v0,8000b368 <schedule+0x140>
8000b294:	3c03800e 	lui	v1,0x800e
8000b298:	8c639d44 	lw	v1,-25276(v1)
8000b29c:	3c04800e 	lui	a0,0x800e
8000b2a0:	8c63000c 	lw	v1,12(v1)
8000b2a4:	8c849d48 	lw	a0,-25272(a0)
8000b2a8:	00402821 	move	a1,v0
8000b2ac:	0060f809 	jalr	v1
8000b2b0:	afa20010 	sw	v0,16(sp)
8000b2b4:	8fa20010 	lw	v0,16(sp)
8000b2b8:	00000000 	nop
8000b2bc:	8c440008 	lw	a0,8(v0)
8000b2c0:	8e037d0c 	lw	v1,32012(s0)
8000b2c4:	24840001 	addiu	a0,a0,1
8000b2c8:	10430003 	beq	v0,v1,8000b2d8 <schedule+0xb0>
8000b2cc:	ac440008 	sw	a0,8(v0)
8000b2d0:	0c002539 	jal	800094e4 <proc_run>
8000b2d4:	00402021 	move	a0,v0
8000b2d8:	16200027 	bnez	s1,8000b378 <schedule+0x150>
8000b2dc:	00000000 	nop
8000b2e0:	8fbf002c 	lw	ra,44(sp)
8000b2e4:	8fb30028 	lw	s3,40(sp)
8000b2e8:	8fb20024 	lw	s2,36(sp)
8000b2ec:	8fb10020 	lw	s1,32(sp)
8000b2f0:	8fb0001c 	lw	s0,28(sp)
8000b2f4:	03e00008 	jr	ra
8000b2f8:	27bd0030 	addiu	sp,sp,48
8000b2fc:	0c000b7d 	jal	80002df4 <intr_disable>
8000b300:	24110001 	li	s1,1
8000b304:	8e057d0c 	lw	a1,32012(s0)
8000b308:	24020002 	li	v0,2
8000b30c:	8ca30000 	lw	v1,0(a1)
8000b310:	aca00010 	sw	zero,16(a1)
8000b314:	1462ffd7 	bne	v1,v0,8000b274 <schedule+0x4c>
8000b318:	3c13800e 	lui	s3,0x800e
8000b31c:	3c02800d 	lui	v0,0x800d
8000b320:	8c427d14 	lw	v0,32020(v0)
8000b324:	00000000 	nop
8000b328:	10a2001a 	beq	a1,v0,8000b394 <schedule+0x16c>
8000b32c:	3c13800e 	lui	s3,0x800e
8000b330:	8e629d44 	lw	v0,-25276(s3)
8000b334:	3c12800e 	lui	s2,0x800e
8000b338:	8c420008 	lw	v0,8(v0)
8000b33c:	8e449d48 	lw	a0,-25272(s2)
8000b340:	0040f809 	jalr	v0
8000b344:	00000000 	nop
8000b348:	8e629d44 	lw	v0,-25276(s3)
8000b34c:	8e449d48 	lw	a0,-25272(s2)
8000b350:	8c420010 	lw	v0,16(v0)
8000b354:	00000000 	nop
8000b358:	0040f809 	jalr	v0
8000b35c:	00000000 	nop
8000b360:	1440ffcd 	bnez	v0,8000b298 <schedule+0x70>
8000b364:	3c03800e 	lui	v1,0x800e
8000b368:	3c02800d 	lui	v0,0x800d
8000b36c:	8c427d14 	lw	v0,32020(v0)
8000b370:	08002caf 	j	8000b2bc <schedule+0x94>
8000b374:	00000000 	nop
8000b378:	8fbf002c 	lw	ra,44(sp)
8000b37c:	8fb30028 	lw	s3,40(sp)
8000b380:	8fb20024 	lw	s2,36(sp)
8000b384:	8fb10020 	lw	s1,32(sp)
8000b388:	8fb0001c 	lw	s0,28(sp)
8000b38c:	08000b77 	j	80002ddc <intr_enable>
8000b390:	27bd0030 	addiu	sp,sp,48
8000b394:	08002c9e 	j	8000b278 <schedule+0x50>
8000b398:	3c12800e 	lui	s2,0x800e

8000b39c <add_timer>:
8000b39c:	27bdffe0 	addiu	sp,sp,-32
8000b3a0:	afbf001c 	sw	ra,28(sp)
8000b3a4:	40026000 	mfc0	v0,c0_status
8000b3a8:	00000000 	nop
8000b3ac:	30420001 	andi	v0,v0,0x1
8000b3b0:	14400038 	bnez	v0,8000b494 <add_timer+0xf8>
8000b3b4:	00000000 	nop
8000b3b8:	00004821 	move	t1,zero
8000b3bc:	8c830000 	lw	v1,0(a0)
8000b3c0:	00000000 	nop
8000b3c4:	10600038 	beqz	v1,8000b4a8 <add_timer+0x10c>
8000b3c8:	00000000 	nop
8000b3cc:	8c820004 	lw	v0,4(a0)
8000b3d0:	00000000 	nop
8000b3d4:	10400034 	beqz	v0,8000b4a8 <add_timer+0x10c>
8000b3d8:	24880008 	addiu	t0,a0,8
8000b3dc:	8c82000c 	lw	v0,12(a0)
8000b3e0:	00000000 	nop
8000b3e4:	15020036 	bne	t0,v0,8000b4c0 <add_timer+0x124>
8000b3e8:	3c07800e 	lui	a3,0x800e
8000b3ec:	24e79d3c 	addiu	a3,a3,-25284
8000b3f0:	8ce20004 	lw	v0,4(a3)
8000b3f4:	00000000 	nop
8000b3f8:	10470011 	beq	v0,a3,8000b440 <add_timer+0xa4>
8000b3fc:	00000000 	nop
8000b400:	8c45fff8 	lw	a1,-8(v0)
8000b404:	00000000 	nop
8000b408:	0065302b 	sltu	a2,v1,a1
8000b40c:	10c00008 	beqz	a2,8000b430 <add_timer+0x94>
8000b410:	00000000 	nop
8000b414:	08002d1b 	j	8000b46c <add_timer+0xd0>
8000b418:	00a31823 	subu	v1,a1,v1
8000b41c:	8c45fff8 	lw	a1,-8(v0)
8000b420:	00000000 	nop
8000b424:	0065302b 	sltu	a2,v1,a1
8000b428:	14c0000f 	bnez	a2,8000b468 <add_timer+0xcc>
8000b42c:	00000000 	nop
8000b430:	8c420004 	lw	v0,4(v0)
8000b434:	00651823 	subu	v1,v1,a1
8000b438:	1447fff8 	bne	v0,a3,8000b41c <add_timer+0x80>
8000b43c:	ac830000 	sw	v1,0(a0)
8000b440:	8c430000 	lw	v1,0(v0)
8000b444:	ac480000 	sw	t0,0(v0)
8000b448:	ac680004 	sw	t0,4(v1)
8000b44c:	ac830008 	sw	v1,8(a0)
8000b450:	1520000d 	bnez	t1,8000b488 <add_timer+0xec>
8000b454:	ac82000c 	sw	v0,12(a0)
8000b458:	8fbf001c 	lw	ra,28(sp)
8000b45c:	00000000 	nop
8000b460:	03e00008 	jr	ra
8000b464:	27bd0020 	addiu	sp,sp,32
8000b468:	00a31823 	subu	v1,a1,v1
8000b46c:	ac43fff8 	sw	v1,-8(v0)
8000b470:	8c430000 	lw	v1,0(v0)
8000b474:	ac480000 	sw	t0,0(v0)
8000b478:	ac680004 	sw	t0,4(v1)
8000b47c:	ac830008 	sw	v1,8(a0)
8000b480:	1120fff5 	beqz	t1,8000b458 <add_timer+0xbc>
8000b484:	ac82000c 	sw	v0,12(a0)
8000b488:	8fbf001c 	lw	ra,28(sp)
8000b48c:	08000b77 	j	80002ddc <intr_enable>
8000b490:	27bd0020 	addiu	sp,sp,32
8000b494:	0c000b7d 	jal	80002df4 <intr_disable>
8000b498:	afa40010 	sw	a0,16(sp)
8000b49c:	8fa40010 	lw	a0,16(sp)
8000b4a0:	08002cef 	j	8000b3bc <add_timer+0x20>
8000b4a4:	24090001 	li	t1,1
8000b4a8:	3c048001 	lui	a0,0x8001
8000b4ac:	3c068001 	lui	a2,0x8001
8000b4b0:	24846944 	addiu	a0,a0,26948
8000b4b4:	2405006e 	li	a1,110
8000b4b8:	0c0009f2 	jal	800027c8 <__panic>
8000b4bc:	24c669a8 	addiu	a2,a2,27048
8000b4c0:	3c048001 	lui	a0,0x8001
8000b4c4:	3c068001 	lui	a2,0x8001
8000b4c8:	24846944 	addiu	a0,a0,26948
8000b4cc:	2405006f 	li	a1,111
8000b4d0:	0c0009f2 	jal	800027c8 <__panic>
8000b4d4:	24c669e4 	addiu	a2,a2,27108

8000b4d8 <del_timer>:
8000b4d8:	27bdffe0 	addiu	sp,sp,-32
8000b4dc:	afbf001c 	sw	ra,28(sp)
8000b4e0:	40026000 	mfc0	v0,c0_status
8000b4e4:	00000000 	nop
8000b4e8:	30420001 	andi	v0,v0,0x1
8000b4ec:	1440001d 	bnez	v0,8000b564 <del_timer+0x8c>
8000b4f0:	00000000 	nop
8000b4f4:	00003021 	move	a2,zero
8000b4f8:	8c82000c 	lw	v0,12(a0)
8000b4fc:	24830008 	addiu	v1,a0,8
8000b500:	10620012 	beq	v1,v0,8000b54c <del_timer+0x74>
8000b504:	00000000 	nop
8000b508:	8c850000 	lw	a1,0(a0)
8000b50c:	00000000 	nop
8000b510:	10a00008 	beqz	a1,8000b534 <del_timer+0x5c>
8000b514:	3c07800e 	lui	a3,0x800e
8000b518:	24e79d3c 	addiu	a3,a3,-25284
8000b51c:	10470005 	beq	v0,a3,8000b534 <del_timer+0x5c>
8000b520:	00000000 	nop
8000b524:	8c47fff8 	lw	a3,-8(v0)
8000b528:	00000000 	nop
8000b52c:	00e52821 	addu	a1,a3,a1
8000b530:	ac45fff8 	sw	a1,-8(v0)
8000b534:	8c850008 	lw	a1,8(a0)
8000b538:	00000000 	nop
8000b53c:	aca20004 	sw	v0,4(a1)
8000b540:	ac450000 	sw	a1,0(v0)
8000b544:	ac83000c 	sw	v1,12(a0)
8000b548:	ac830008 	sw	v1,8(a0)
8000b54c:	14c0000a 	bnez	a2,8000b578 <del_timer+0xa0>
8000b550:	00000000 	nop
8000b554:	8fbf001c 	lw	ra,28(sp)
8000b558:	00000000 	nop
8000b55c:	03e00008 	jr	ra
8000b560:	27bd0020 	addiu	sp,sp,32
8000b564:	0c000b7d 	jal	80002df4 <intr_disable>
8000b568:	afa40010 	sw	a0,16(sp)
8000b56c:	8fa40010 	lw	a0,16(sp)
8000b570:	08002d3e 	j	8000b4f8 <del_timer+0x20>
8000b574:	24060001 	li	a2,1
8000b578:	8fbf001c 	lw	ra,28(sp)
8000b57c:	08000b77 	j	80002ddc <intr_enable>
8000b580:	27bd0020 	addiu	sp,sp,32

8000b584 <run_timer_list>:
8000b584:	27bdffd0 	addiu	sp,sp,-48
8000b588:	afbf002c 	sw	ra,44(sp)
8000b58c:	afb60028 	sw	s6,40(sp)
8000b590:	afb50024 	sw	s5,36(sp)
8000b594:	afb40020 	sw	s4,32(sp)
8000b598:	afb3001c 	sw	s3,28(sp)
8000b59c:	afb20018 	sw	s2,24(sp)
8000b5a0:	afb10014 	sw	s1,20(sp)
8000b5a4:	afb00010 	sw	s0,16(sp)
8000b5a8:	40026000 	mfc0	v0,c0_status
8000b5ac:	00000000 	nop
8000b5b0:	30420001 	andi	v0,v0,0x1
8000b5b4:	14400049 	bnez	v0,8000b6dc <run_timer_list+0x158>
8000b5b8:	00000000 	nop
8000b5bc:	0000b021 	move	s6,zero
8000b5c0:	3c13800e 	lui	s3,0x800e
8000b5c4:	26739d3c 	addiu	s3,s3,-25284
8000b5c8:	8e700004 	lw	s0,4(s3)
8000b5cc:	00000000 	nop
8000b5d0:	1213002a 	beq	s0,s3,8000b67c <run_timer_list+0xf8>
8000b5d4:	3c02800d 	lui	v0,0x800d
8000b5d8:	8e02fff8 	lw	v0,-8(s0)
8000b5dc:	00000000 	nop
8000b5e0:	10400054 	beqz	v0,8000b734 <run_timer_list+0x1b0>
8000b5e4:	2442ffff 	addiu	v0,v0,-1
8000b5e8:	14400023 	bnez	v0,8000b678 <run_timer_list+0xf4>
8000b5ec:	ae02fff8 	sw	v0,-8(s0)
8000b5f0:	3c158001 	lui	s5,0x8001
8000b5f4:	3c148001 	lui	s4,0x8001
8000b5f8:	2612fff8 	addiu	s2,s0,-8
8000b5fc:	26b56944 	addiu	s5,s5,26948
8000b600:	08002d8e 	j	8000b638 <run_timer_list+0xb4>
8000b604:	26946a74 	addiu	s4,s4,27252
8000b608:	04410045 	bgez	v0,8000b720 <run_timer_list+0x19c>
8000b60c:	3c048001 	lui	a0,0x8001
8000b610:	0c002c4c 	jal	8000b130 <wakeup_proc>
8000b614:	02202021 	move	a0,s1
8000b618:	0c002d36 	jal	8000b4d8 <del_timer>
8000b61c:	02402021 	move	a0,s2
8000b620:	12130016 	beq	s0,s3,8000b67c <run_timer_list+0xf8>
8000b624:	3c02800d 	lui	v0,0x800d
8000b628:	8e02fff8 	lw	v0,-8(s0)
8000b62c:	00000000 	nop
8000b630:	14400011 	bnez	v0,8000b678 <run_timer_list+0xf4>
8000b634:	2612fff8 	addiu	s2,s0,-8
8000b638:	8e510004 	lw	s1,4(s2)
8000b63c:	8e100004 	lw	s0,4(s0)
8000b640:	8e22008c 	lw	v0,140(s1)
8000b644:	00000000 	nop
8000b648:	1440ffef 	bnez	v0,8000b608 <run_timer_list+0x84>
8000b64c:	02a02021 	move	a0,s5
8000b650:	8e270004 	lw	a3,4(s1)
8000b654:	240500a3 	li	a1,163
8000b658:	0c000a12 	jal	80002848 <__warn>
8000b65c:	02803021 	move	a2,s4
8000b660:	0c002c4c 	jal	8000b130 <wakeup_proc>
8000b664:	02202021 	move	a0,s1
8000b668:	0c002d36 	jal	8000b4d8 <del_timer>
8000b66c:	02402021 	move	a0,s2
8000b670:	1613ffed 	bne	s0,s3,8000b628 <run_timer_list+0xa4>
8000b674:	00000000 	nop
8000b678:	3c02800d 	lui	v0,0x800d
8000b67c:	8c457d0c 	lw	a1,32012(v0)
8000b680:	3c02800d 	lui	v0,0x800d
8000b684:	8c427d14 	lw	v0,32020(v0)
8000b688:	00000000 	nop
8000b68c:	10a20021 	beq	a1,v0,8000b714 <run_timer_list+0x190>
8000b690:	3c02800e 	lui	v0,0x800e
8000b694:	8c429d44 	lw	v0,-25276(v0)
8000b698:	3c03800e 	lui	v1,0x800e
8000b69c:	8c420014 	lw	v0,20(v0)
8000b6a0:	8c649d48 	lw	a0,-25272(v1)
8000b6a4:	0040f809 	jalr	v0
8000b6a8:	00000000 	nop
8000b6ac:	16c0000f 	bnez	s6,8000b6ec <run_timer_list+0x168>
8000b6b0:	00000000 	nop
8000b6b4:	8fbf002c 	lw	ra,44(sp)
8000b6b8:	8fb60028 	lw	s6,40(sp)
8000b6bc:	8fb50024 	lw	s5,36(sp)
8000b6c0:	8fb40020 	lw	s4,32(sp)
8000b6c4:	8fb3001c 	lw	s3,28(sp)
8000b6c8:	8fb20018 	lw	s2,24(sp)
8000b6cc:	8fb10014 	lw	s1,20(sp)
8000b6d0:	8fb00010 	lw	s0,16(sp)
8000b6d4:	03e00008 	jr	ra
8000b6d8:	27bd0030 	addiu	sp,sp,48
8000b6dc:	0c000b7d 	jal	80002df4 <intr_disable>
8000b6e0:	24160001 	li	s6,1
8000b6e4:	08002d71 	j	8000b5c4 <run_timer_list+0x40>
8000b6e8:	3c13800e 	lui	s3,0x800e
8000b6ec:	8fbf002c 	lw	ra,44(sp)
8000b6f0:	8fb60028 	lw	s6,40(sp)
8000b6f4:	8fb50024 	lw	s5,36(sp)
8000b6f8:	8fb40020 	lw	s4,32(sp)
8000b6fc:	8fb3001c 	lw	s3,28(sp)
8000b700:	8fb20018 	lw	s2,24(sp)
8000b704:	8fb10014 	lw	s1,20(sp)
8000b708:	8fb00010 	lw	s0,16(sp)
8000b70c:	08000b77 	j	80002ddc <intr_enable>
8000b710:	27bd0030 	addiu	sp,sp,48
8000b714:	24020001 	li	v0,1
8000b718:	08002dab 	j	8000b6ac <run_timer_list+0x128>
8000b71c:	aca20010 	sw	v0,16(a1)
8000b720:	3c068001 	lui	a2,0x8001
8000b724:	24846944 	addiu	a0,a0,26948
8000b728:	240500a0 	li	a1,160
8000b72c:	0c0009f2 	jal	800027c8 <__panic>
8000b730:	24c66a40 	addiu	a2,a2,27200
8000b734:	3c048001 	lui	a0,0x8001
8000b738:	3c068001 	lui	a2,0x8001
8000b73c:	24846944 	addiu	a0,a0,26948
8000b740:	2405009a 	li	a1,154
8000b744:	0c0009f2 	jal	800027c8 <__panic>
8000b748:	24c66a18 	addiu	a2,a2,27160

8000b74c <sys_getpid>:
8000b74c:	3c02800d 	lui	v0,0x800d
8000b750:	8c427d0c 	lw	v0,32012(v0)
8000b754:	00000000 	nop
8000b758:	8c420004 	lw	v0,4(v0)
8000b75c:	03e00008 	jr	ra
8000b760:	00000000 	nop

8000b764 <sys_gettime>:
8000b764:	3c02800e 	lui	v0,0x800e
8000b768:	8c42a9a8 	lw	v0,-22104(v0)
8000b76c:	03e00008 	jr	ra
8000b770:	00000000 	nop

8000b774 <sys_redraw_console>:
8000b774:	27bdffe8 	addiu	sp,sp,-24
8000b778:	afbf0014 	sw	ra,20(sp)
8000b77c:	40026000 	mfc0	v0,c0_status
8000b780:	00000000 	nop
8000b784:	30420001 	andi	v0,v0,0x1
8000b788:	14400007 	bnez	v0,8000b7a8 <sys_redraw_console+0x34>
8000b78c:	00000000 	nop
8000b790:	0c000caa 	jal	800032a8 <vga_redraw>
8000b794:	00000000 	nop
8000b798:	8fbf0014 	lw	ra,20(sp)
8000b79c:	00001021 	move	v0,zero
8000b7a0:	03e00008 	jr	ra
8000b7a4:	27bd0018 	addiu	sp,sp,24
8000b7a8:	0c000b7d 	jal	80002df4 <intr_disable>
8000b7ac:	00000000 	nop
8000b7b0:	0c000caa 	jal	800032a8 <vga_redraw>
8000b7b4:	00000000 	nop
8000b7b8:	0c000b77 	jal	80002ddc <intr_enable>
8000b7bc:	00000000 	nop
8000b7c0:	8fbf0014 	lw	ra,20(sp)
8000b7c4:	00001021 	move	v0,zero
8000b7c8:	03e00008 	jr	ra
8000b7cc:	27bd0018 	addiu	sp,sp,24

8000b7d0 <sys_fetchrun>:
8000b7d0:	00801021 	move	v0,a0
8000b7d4:	8c450004 	lw	a1,4(v0)
8000b7d8:	8c840000 	lw	a0,0(a0)
8000b7dc:	8c460008 	lw	a2,8(v0)
8000b7e0:	08004be0 	j	80012f80 <fetchrun>
8000b7e4:	00000000 	nop

8000b7e8 <sys_dup>:
8000b7e8:	00801021 	move	v0,a0
8000b7ec:	8c450004 	lw	a1,4(v0)
8000b7f0:	8c840000 	lw	a0,0(a0)
8000b7f4:	080036ab 	j	8000daac <sysfile_dup>
8000b7f8:	00000000 	nop

8000b7fc <sys_getdirentry>:
8000b7fc:	00801021 	move	v0,a0
8000b800:	8c450004 	lw	a1,4(v0)
8000b804:	8c840000 	lw	a0,0(a0)
8000b808:	08003653 	j	8000d94c <sysfile_getdirentry>
8000b80c:	00000000 	nop

8000b810 <sys_getcwd>:
8000b810:	00801021 	move	v0,a0
8000b814:	8c450004 	lw	a1,4(v0)
8000b818:	8c840000 	lw	a0,0(a0)
8000b81c:	0800361e 	j	8000d878 <sysfile_getcwd>
8000b820:	00000000 	nop

8000b824 <sys_fsync>:
8000b824:	8c840000 	lw	a0,0(a0)
8000b828:	080035a8 	j	8000d6a0 <sysfile_fsync>
8000b82c:	00000000 	nop

8000b830 <sys_fstat>:
8000b830:	00801021 	move	v0,a0
8000b834:	8c450004 	lw	a1,4(v0)
8000b838:	8c840000 	lw	a0,0(a0)
8000b83c:	08003572 	j	8000d5c8 <sysfile_fstat>
8000b840:	00000000 	nop

8000b844 <sys_seek>:
8000b844:	00801021 	move	v0,a0
8000b848:	8c450004 	lw	a1,4(v0)
8000b84c:	8c840000 	lw	a0,0(a0)
8000b850:	8c460008 	lw	a2,8(v0)
8000b854:	08003570 	j	8000d5c0 <sysfile_seek>
8000b858:	00000000 	nop

8000b85c <sys_write>:
8000b85c:	00801021 	move	v0,a0
8000b860:	8c450004 	lw	a1,4(v0)
8000b864:	8c840000 	lw	a0,0(a0)
8000b868:	8c460008 	lw	a2,8(v0)
8000b86c:	08003501 	j	8000d404 <sysfile_write>
8000b870:	00000000 	nop

8000b874 <sys_read>:
8000b874:	00801021 	move	v0,a0
8000b878:	8c450004 	lw	a1,4(v0)
8000b87c:	8c840000 	lw	a0,0(a0)
8000b880:	8c460008 	lw	a2,8(v0)
8000b884:	08003488 	j	8000d220 <sysfile_read>
8000b888:	00000000 	nop

8000b88c <sys_close>:
8000b88c:	8c840000 	lw	a0,0(a0)
8000b890:	08003486 	j	8000d218 <sysfile_close>
8000b894:	00000000 	nop

8000b898 <sys_open>:
8000b898:	00801021 	move	v0,a0
8000b89c:	8c450004 	lw	a1,4(v0)
8000b8a0:	8c840000 	lw	a0,0(a0)
8000b8a4:	08003471 	j	8000d1c4 <sysfile_open>
8000b8a8:	00000000 	nop

8000b8ac <sys_pgdir>:
8000b8ac:	27bdffe8 	addiu	sp,sp,-24
8000b8b0:	afbf0014 	sw	ra,20(sp)
8000b8b4:	0c00198c 	jal	80006630 <print_pgdir>
8000b8b8:	00000000 	nop
8000b8bc:	8fbf0014 	lw	ra,20(sp)
8000b8c0:	00001021 	move	v0,zero
8000b8c4:	03e00008 	jr	ra
8000b8c8:	27bd0018 	addiu	sp,sp,24

8000b8cc <sys_putc>:
8000b8cc:	8c840000 	lw	a0,0(a0)
8000b8d0:	27bdffe8 	addiu	sp,sp,-24
8000b8d4:	afbf0014 	sw	ra,20(sp)
8000b8d8:	0c00078a 	jal	80001e28 <kputchar>
8000b8dc:	00000000 	nop
8000b8e0:	8fbf0014 	lw	ra,20(sp)
8000b8e4:	00001021 	move	v0,zero
8000b8e8:	03e00008 	jr	ra
8000b8ec:	27bd0018 	addiu	sp,sp,24

8000b8f0 <sys_kill>:
8000b8f0:	8c840000 	lw	a0,0(a0)
8000b8f4:	08002aee 	j	8000abb8 <do_kill>
8000b8f8:	00000000 	nop

8000b8fc <sys_sleep>:
8000b8fc:	8c840000 	lw	a0,0(a0)
8000b900:	08002b9e 	j	8000ae78 <do_sleep>
8000b904:	00000000 	nop

8000b908 <sys_yield>:
8000b908:	080029be 	j	8000a6f8 <do_yield>
8000b90c:	00000000 	nop

8000b910 <sys_exec>:
8000b910:	00801021 	move	v0,a0
8000b914:	8c450004 	lw	a1,4(v0)
8000b918:	8c840000 	lw	a0,0(a0)
8000b91c:	8c460008 	lw	a2,8(v0)
8000b920:	0800278a 	j	80009e28 <do_execve>
8000b924:	00000000 	nop

8000b928 <sys_wait>:
8000b928:	00801021 	move	v0,a0
8000b92c:	8c450004 	lw	a1,4(v0)
8000b930:	8c840000 	lw	a0,0(a0)
8000b934:	080029c4 	j	8000a710 <do_wait>
8000b938:	00000000 	nop

8000b93c <sys_fork>:
8000b93c:	3c02800d 	lui	v0,0x800d
8000b940:	8c427d0c 	lw	v0,32012(v0)
8000b944:	00000000 	nop
8000b948:	8c46004c 	lw	a2,76(v0)
8000b94c:	00000000 	nop
8000b950:	8cc50088 	lw	a1,136(a2)
8000b954:	08002589 	j	80009624 <do_fork>
8000b958:	00002021 	move	a0,zero

8000b95c <sys_exit>:
8000b95c:	8c840000 	lw	a0,0(a0)
8000b960:	080026fb 	j	80009bec <do_exit>
8000b964:	00000000 	nop

8000b968 <syscall>:
8000b968:	27bdffc0 	addiu	sp,sp,-64
8000b96c:	afb10038 	sw	s1,56(sp)
8000b970:	3c11800d 	lui	s1,0x800d
8000b974:	8e227d0c 	lw	v0,32012(s1)
8000b978:	afbf003c 	sw	ra,60(sp)
8000b97c:	1040002f 	beqz	v0,8000ba3c <syscall+0xd4>
8000b980:	afb00034 	sw	s0,52(sp)
8000b984:	8c50004c 	lw	s0,76(v0)
8000b988:	00000000 	nop
8000b98c:	8e07001c 	lw	a3,28(s0)
8000b990:	00000000 	nop
8000b994:	24e7ff80 	addiu	a3,a3,-128
8000b998:	2ce200f3 	sltiu	v0,a3,243
8000b99c:	10400018 	beqz	v0,8000ba00 <syscall+0x98>
8000b9a0:	3c038001 	lui	v1,0x8001
8000b9a4:	00071080 	sll	v0,a3,0x2
8000b9a8:	24633fd8 	addiu	v1,v1,16344
8000b9ac:	00431021 	addu	v0,v0,v1
8000b9b0:	8c420000 	lw	v0,0(v0)
8000b9b4:	00000000 	nop
8000b9b8:	10400011 	beqz	v0,8000ba00 <syscall+0x98>
8000b9bc:	00000000 	nop
8000b9c0:	8e04002c 	lw	a0,44(s0)
8000b9c4:	8e060024 	lw	a2,36(s0)
8000b9c8:	8e050028 	lw	a1,40(s0)
8000b9cc:	8e030030 	lw	v1,48(s0)
8000b9d0:	afa40020 	sw	a0,32(sp)
8000b9d4:	afa60018 	sw	a2,24(sp)
8000b9d8:	afa5001c 	sw	a1,28(sp)
8000b9dc:	afa30024 	sw	v1,36(sp)
8000b9e0:	0040f809 	jalr	v0
8000b9e4:	27a40018 	addiu	a0,sp,24
8000b9e8:	8fbf003c 	lw	ra,60(sp)
8000b9ec:	ae02001c 	sw	v0,28(s0)
8000b9f0:	8fb10038 	lw	s1,56(sp)
8000b9f4:	8fb00034 	lw	s0,52(sp)
8000b9f8:	03e00008 	jr	ra
8000b9fc:	27bd0040 	addiu	sp,sp,64
8000ba00:	02002021 	move	a0,s0
8000ba04:	0c000d7d 	jal	800035f4 <print_trapframe>
8000ba08:	afa70028 	sw	a3,40(sp)
8000ba0c:	8e227d0c 	lw	v0,32012(s1)
8000ba10:	3c048001 	lui	a0,0x8001
8000ba14:	8c430004 	lw	v1,4(v0)
8000ba18:	3c068001 	lui	a2,0x8001
8000ba1c:	8fa70028 	lw	a3,40(sp)
8000ba20:	24420058 	addiu	v0,v0,88
8000ba24:	24846a94 	addiu	a0,a0,27284
8000ba28:	240500f3 	li	a1,243
8000ba2c:	24c66aac 	addiu	a2,a2,27308
8000ba30:	afa30010 	sw	v1,16(sp)
8000ba34:	0c0009f2 	jal	800027c8 <__panic>
8000ba38:	afa20014 	sw	v0,20(sp)
8000ba3c:	3c048001 	lui	a0,0x8001
8000ba40:	3c068001 	lui	a2,0x8001
8000ba44:	24846a94 	addiu	a0,a0,27284
8000ba48:	240500e1 	li	a1,225
8000ba4c:	0c0009f2 	jal	800027c8 <__panic>
8000ba50:	24c663e4 	addiu	a2,a2,25572

8000ba54 <get_filemap>:
8000ba54:	3c02800d 	lui	v0,0x800d
8000ba58:	8c427d0c 	lw	v0,32012(v0)
8000ba5c:	27bdffe8 	addiu	sp,sp,-24
8000ba60:	8c4200ac 	lw	v0,172(v0)
8000ba64:	00000000 	nop
8000ba68:	10400009 	beqz	v0,8000ba90 <get_filemap+0x3c>
8000ba6c:	afbf0014 	sw	ra,20(sp)
8000ba70:	8c430008 	lw	v1,8(v0)
8000ba74:	00000000 	nop
8000ba78:	1860000b 	blez	v1,8000baa8 <get_filemap+0x54>
8000ba7c:	3c048001 	lui	a0,0x8001
8000ba80:	8fbf0014 	lw	ra,20(sp)
8000ba84:	8c420004 	lw	v0,4(v0)
8000ba88:	03e00008 	jr	ra
8000ba8c:	27bd0018 	addiu	sp,sp,24
8000ba90:	3c048001 	lui	a0,0x8001
8000ba94:	3c068001 	lui	a2,0x8001
8000ba98:	24846ad8 	addiu	a0,a0,27352
8000ba9c:	24050013 	li	a1,19
8000baa0:	0c0009f2 	jal	800027c8 <__panic>
8000baa4:	24c66ae8 	addiu	a2,a2,27368
8000baa8:	3c068001 	lui	a2,0x8001
8000baac:	24846ad8 	addiu	a0,a0,27352
8000bab0:	24050014 	li	a1,20
8000bab4:	0c0009f2 	jal	800027c8 <__panic>
8000bab8:	24c66b0c 	addiu	a2,a2,27404

8000babc <filemap_alloc>:
8000babc:	27bdffe0 	addiu	sp,sp,-32
8000bac0:	afa40010 	sw	a0,16(sp)
8000bac4:	afa50014 	sw	a1,20(sp)
8000bac8:	afbf001c 	sw	ra,28(sp)
8000bacc:	0c002e95 	jal	8000ba54 <get_filemap>
8000bad0:	00000000 	nop
8000bad4:	3c03ffff 	lui	v1,0xffff
8000bad8:	8fa40010 	lw	a0,16(sp)
8000badc:	24636ad9 	addiu	v1,v1,27353
8000bae0:	8fa50014 	lw	a1,20(sp)
8000bae4:	10830016 	beq	a0,v1,8000bb40 <filemap_alloc+0x84>
8000bae8:	2c830091 	sltiu	v1,a0,145
8000baec:	10600023 	beqz	v1,8000bb7c <filemap_alloc+0xc0>
8000baf0:	00041880 	sll	v1,a0,0x2
8000baf4:	00042140 	sll	a0,a0,0x5
8000baf8:	00832023 	subu	a0,a0,v1
8000bafc:	00442021 	addu	a0,v0,a0
8000bb00:	8c820000 	lw	v0,0(a0)
8000bb04:	00000000 	nop
8000bb08:	14400009 	bnez	v0,8000bb30 <filemap_alloc+0x74>
8000bb0c:	2402fff1 	li	v0,-15
8000bb10:	8c820018 	lw	v0,24(a0)
8000bb14:	00000000 	nop
8000bb18:	1440001a 	bnez	v0,8000bb84 <filemap_alloc+0xc8>
8000bb1c:	24020001 	li	v0,1
8000bb20:	ac820000 	sw	v0,0(a0)
8000bb24:	ac800014 	sw	zero,20(a0)
8000bb28:	00001021 	move	v0,zero
8000bb2c:	aca40000 	sw	a0,0(a1)
8000bb30:	8fbf001c 	lw	ra,28(sp)
8000bb34:	00000000 	nop
8000bb38:	03e00008 	jr	ra
8000bb3c:	27bd0020 	addiu	sp,sp,32
8000bb40:	8c430000 	lw	v1,0(v0)
8000bb44:	00000000 	nop
8000bb48:	1060fff1 	beqz	v1,8000bb10 <filemap_alloc+0x54>
8000bb4c:	00402021 	move	a0,v0
8000bb50:	2444001c 	addiu	a0,v0,28
8000bb54:	24420fdc 	addiu	v0,v0,4060
8000bb58:	8c830000 	lw	v1,0(a0)
8000bb5c:	00000000 	nop
8000bb60:	1060ffeb 	beqz	v1,8000bb10 <filemap_alloc+0x54>
8000bb64:	00000000 	nop
8000bb68:	2484001c 	addiu	a0,a0,28
8000bb6c:	1482fffa 	bne	a0,v0,8000bb58 <filemap_alloc+0x9c>
8000bb70:	00000000 	nop
8000bb74:	08002ecc 	j	8000bb30 <filemap_alloc+0x74>
8000bb78:	2402ffea 	li	v0,-22
8000bb7c:	08002ecc 	j	8000bb30 <filemap_alloc+0x74>
8000bb80:	2402fffd 	li	v0,-3
8000bb84:	3c048001 	lui	a0,0x8001
8000bb88:	3c068001 	lui	a2,0x8001
8000bb8c:	24846ad8 	addiu	a0,a0,27352
8000bb90:	24050039 	li	a1,57
8000bb94:	0c0009f2 	jal	800027c8 <__panic>
8000bb98:	24c66b38 	addiu	a2,a2,27448

8000bb9c <filemap_free>:
8000bb9c:	8c820000 	lw	v0,0(a0)
8000bba0:	27bdffe8 	addiu	sp,sp,-24
8000bba4:	24030001 	li	v1,1
8000bba8:	afb00010 	sw	s0,16(sp)
8000bbac:	afbf0014 	sw	ra,20(sp)
8000bbb0:	10430004 	beq	v0,v1,8000bbc4 <filemap_free+0x28>
8000bbb4:	00808021 	move	s0,a0
8000bbb8:	24030003 	li	v1,3
8000bbbc:	1443001a 	bne	v0,v1,8000bc28 <filemap_free+0x8c>
8000bbc0:	3c068001 	lui	a2,0x8001
8000bbc4:	8e030018 	lw	v1,24(s0)
8000bbc8:	00000000 	nop
8000bbcc:	14600010 	bnez	v1,8000bc10 <filemap_free+0x74>
8000bbd0:	24030003 	li	v1,3
8000bbd4:	10430006 	beq	v0,v1,8000bbf0 <filemap_free+0x54>
8000bbd8:	00000000 	nop
8000bbdc:	8fbf0014 	lw	ra,20(sp)
8000bbe0:	ae000000 	sw	zero,0(s0)
8000bbe4:	8fb00010 	lw	s0,16(sp)
8000bbe8:	03e00008 	jr	ra
8000bbec:	27bd0018 	addiu	sp,sp,24
8000bbf0:	8e040014 	lw	a0,20(s0)
8000bbf4:	0c003b08 	jal	8000ec20 <vfs_close>
8000bbf8:	00000000 	nop
8000bbfc:	8fbf0014 	lw	ra,20(sp)
8000bc00:	ae000000 	sw	zero,0(s0)
8000bc04:	8fb00010 	lw	s0,16(sp)
8000bc08:	03e00008 	jr	ra
8000bc0c:	27bd0018 	addiu	sp,sp,24
8000bc10:	3c048001 	lui	a0,0x8001
8000bc14:	3c068001 	lui	a2,0x8001
8000bc18:	24846ad8 	addiu	a0,a0,27352
8000bc1c:	24050042 	li	a1,66
8000bc20:	0c0009f2 	jal	800027c8 <__panic>
8000bc24:	24c66b38 	addiu	a2,a2,27448
8000bc28:	3c048001 	lui	a0,0x8001
8000bc2c:	24846ad8 	addiu	a0,a0,27352
8000bc30:	24050041 	li	a1,65
8000bc34:	0c0009f2 	jal	800027c8 <__panic>
8000bc38:	24c66b64 	addiu	a2,a2,27492

8000bc3c <filemap_acquire>:
8000bc3c:	8c830000 	lw	v1,0(a0)
8000bc40:	27bdffe0 	addiu	sp,sp,-32
8000bc44:	24020002 	li	v0,2
8000bc48:	1462001c 	bne	v1,v0,8000bcbc <filemap_acquire+0x80>
8000bc4c:	afbf001c 	sw	ra,28(sp)
8000bc50:	40026000 	mfc0	v0,c0_status
8000bc54:	00000000 	nop
8000bc58:	30420001 	andi	v0,v0,0x1
8000bc5c:	14400008 	bnez	v0,8000bc80 <filemap_acquire+0x44>
8000bc60:	00000000 	nop
8000bc64:	8c820018 	lw	v0,24(a0)
8000bc68:	8fbf001c 	lw	ra,28(sp)
8000bc6c:	24420001 	addiu	v0,v0,1
8000bc70:	ac820018 	sw	v0,24(a0)
8000bc74:	8c820018 	lw	v0,24(a0)
8000bc78:	03e00008 	jr	ra
8000bc7c:	27bd0020 	addiu	sp,sp,32
8000bc80:	0c000b7d 	jal	80002df4 <intr_disable>
8000bc84:	afa40010 	sw	a0,16(sp)
8000bc88:	8fa40010 	lw	a0,16(sp)
8000bc8c:	00000000 	nop
8000bc90:	8c820018 	lw	v0,24(a0)
8000bc94:	00000000 	nop
8000bc98:	24420001 	addiu	v0,v0,1
8000bc9c:	ac820018 	sw	v0,24(a0)
8000bca0:	0c000b77 	jal	80002ddc <intr_enable>
8000bca4:	00000000 	nop
8000bca8:	8fa40010 	lw	a0,16(sp)
8000bcac:	8fbf001c 	lw	ra,28(sp)
8000bcb0:	8c820018 	lw	v0,24(a0)
8000bcb4:	03e00008 	jr	ra
8000bcb8:	27bd0020 	addiu	sp,sp,32
8000bcbc:	3c048001 	lui	a0,0x8001
8000bcc0:	3c068001 	lui	a2,0x8001
8000bcc4:	24846ad8 	addiu	a0,a0,27352
8000bcc8:	2405004b 	li	a1,75
8000bccc:	0c0009f2 	jal	800027c8 <__panic>
8000bcd0:	24c66bac 	addiu	a2,a2,27564

8000bcd4 <filemap_release>:
8000bcd4:	8c820000 	lw	v0,0(a0)
8000bcd8:	27bdffe0 	addiu	sp,sp,-32
8000bcdc:	2442fffe 	addiu	v0,v0,-2
8000bce0:	2c420002 	sltiu	v0,v0,2
8000bce4:	1040002e 	beqz	v0,8000bda0 <filemap_release+0xcc>
8000bce8:	afbf001c 	sw	ra,28(sp)
8000bcec:	8c820018 	lw	v0,24(a0)
8000bcf0:	00000000 	nop
8000bcf4:	18400025 	blez	v0,8000bd8c <filemap_release+0xb8>
8000bcf8:	3c068001 	lui	a2,0x8001
8000bcfc:	40026000 	mfc0	v0,c0_status
8000bd00:	00000000 	nop
8000bd04:	30420001 	andi	v0,v0,0x1
8000bd08:	1440000d 	bnez	v0,8000bd40 <filemap_release+0x6c>
8000bd0c:	00000000 	nop
8000bd10:	8c820018 	lw	v0,24(a0)
8000bd14:	00000000 	nop
8000bd18:	2442ffff 	addiu	v0,v0,-1
8000bd1c:	ac820018 	sw	v0,24(a0)
8000bd20:	8c820018 	lw	v0,24(a0)
8000bd24:	00000000 	nop
8000bd28:	10400015 	beqz	v0,8000bd80 <filemap_release+0xac>
8000bd2c:	00000000 	nop
8000bd30:	8fbf001c 	lw	ra,28(sp)
8000bd34:	00000000 	nop
8000bd38:	03e00008 	jr	ra
8000bd3c:	27bd0020 	addiu	sp,sp,32
8000bd40:	0c000b7d 	jal	80002df4 <intr_disable>
8000bd44:	afa40010 	sw	a0,16(sp)
8000bd48:	8fa40010 	lw	a0,16(sp)
8000bd4c:	00000000 	nop
8000bd50:	8c820018 	lw	v0,24(a0)
8000bd54:	00000000 	nop
8000bd58:	2442ffff 	addiu	v0,v0,-1
8000bd5c:	ac820018 	sw	v0,24(a0)
8000bd60:	0c000b77 	jal	80002ddc <intr_enable>
8000bd64:	00000000 	nop
8000bd68:	8fa40010 	lw	a0,16(sp)
8000bd6c:	00000000 	nop
8000bd70:	8c820018 	lw	v0,24(a0)
8000bd74:	00000000 	nop
8000bd78:	1440ffed 	bnez	v0,8000bd30 <filemap_release+0x5c>
8000bd7c:	00000000 	nop
8000bd80:	8fbf001c 	lw	ra,28(sp)
8000bd84:	08002ee7 	j	8000bb9c <filemap_free>
8000bd88:	27bd0020 	addiu	sp,sp,32
8000bd8c:	3c048001 	lui	a0,0x8001
8000bd90:	24846ad8 	addiu	a0,a0,27352
8000bd94:	24050052 	li	a1,82
8000bd98:	0c0009f2 	jal	800027c8 <__panic>
8000bd9c:	24c66c24 	addiu	a2,a2,27684
8000bda0:	3c048001 	lui	a0,0x8001
8000bda4:	3c068001 	lui	a2,0x8001
8000bda8:	24846ad8 	addiu	a0,a0,27352
8000bdac:	24050051 	li	a1,81
8000bdb0:	0c0009f2 	jal	800027c8 <__panic>
8000bdb4:	24c66bd8 	addiu	a2,a2,27608

8000bdb8 <filemap_init>:
8000bdb8:	00001021 	move	v0,zero
8000bdbc:	24030091 	li	v1,145
8000bdc0:	ac82000c 	sw	v0,12(a0)
8000bdc4:	24420001 	addiu	v0,v0,1
8000bdc8:	ac800018 	sw	zero,24(a0)
8000bdcc:	ac800000 	sw	zero,0(a0)
8000bdd0:	1443fffb 	bne	v0,v1,8000bdc0 <filemap_init+0x8>
8000bdd4:	2484001c 	addiu	a0,a0,28
8000bdd8:	03e00008 	jr	ra
8000bddc:	00000000 	nop

8000bde0 <filemap_open>:
8000bde0:	8c830000 	lw	v1,0(a0)
8000bde4:	27bdffe0 	addiu	sp,sp,-32
8000bde8:	24020001 	li	v0,1
8000bdec:	14620021 	bne	v1,v0,8000be74 <filemap_open+0x94>
8000bdf0:	afbf001c 	sw	ra,28(sp)
8000bdf4:	8c820014 	lw	v0,20(a0)
8000bdf8:	00000000 	nop
8000bdfc:	1040001d 	beqz	v0,8000be74 <filemap_open+0x94>
8000be00:	24020002 	li	v0,2
8000be04:	ac820000 	sw	v0,0(a0)
8000be08:	40026000 	mfc0	v0,c0_status
8000be0c:	00000000 	nop
8000be10:	30420001 	andi	v0,v0,0x1
8000be14:	14400008 	bnez	v0,8000be38 <filemap_open+0x58>
8000be18:	00000000 	nop
8000be1c:	8c820018 	lw	v0,24(a0)
8000be20:	8fbf001c 	lw	ra,28(sp)
8000be24:	24420001 	addiu	v0,v0,1
8000be28:	ac820018 	sw	v0,24(a0)
8000be2c:	8c820018 	lw	v0,24(a0)
8000be30:	03e00008 	jr	ra
8000be34:	27bd0020 	addiu	sp,sp,32
8000be38:	0c000b7d 	jal	80002df4 <intr_disable>
8000be3c:	afa40010 	sw	a0,16(sp)
8000be40:	8fa40010 	lw	a0,16(sp)
8000be44:	00000000 	nop
8000be48:	8c820018 	lw	v0,24(a0)
8000be4c:	00000000 	nop
8000be50:	24420001 	addiu	v0,v0,1
8000be54:	ac820018 	sw	v0,24(a0)
8000be58:	0c000b77 	jal	80002ddc <intr_enable>
8000be5c:	00000000 	nop
8000be60:	8fa40010 	lw	a0,16(sp)
8000be64:	8fbf001c 	lw	ra,28(sp)
8000be68:	8c820018 	lw	v0,24(a0)
8000be6c:	03e00008 	jr	ra
8000be70:	27bd0020 	addiu	sp,sp,32
8000be74:	3c048001 	lui	a0,0x8001
8000be78:	3c068001 	lui	a2,0x8001
8000be7c:	24846ad8 	addiu	a0,a0,27352
8000be80:	2405005a 	li	a1,90
8000be84:	0c0009f2 	jal	800027c8 <__panic>
8000be88:	24c66c4c 	addiu	a2,a2,27724

8000be8c <filemap_close>:
8000be8c:	8c830000 	lw	v1,0(a0)
8000be90:	27bdffe0 	addiu	sp,sp,-32
8000be94:	24020002 	li	v0,2
8000be98:	14620030 	bne	v1,v0,8000bf5c <filemap_close+0xd0>
8000be9c:	afbf001c 	sw	ra,28(sp)
8000bea0:	8c820018 	lw	v0,24(a0)
8000bea4:	00000000 	nop
8000bea8:	18400026 	blez	v0,8000bf44 <filemap_close+0xb8>
8000beac:	24020003 	li	v0,3
8000beb0:	ac820000 	sw	v0,0(a0)
8000beb4:	40026000 	mfc0	v0,c0_status
8000beb8:	00000000 	nop
8000bebc:	30420001 	andi	v0,v0,0x1
8000bec0:	1440000d 	bnez	v0,8000bef8 <filemap_close+0x6c>
8000bec4:	00000000 	nop
8000bec8:	8c820018 	lw	v0,24(a0)
8000becc:	00000000 	nop
8000bed0:	2442ffff 	addiu	v0,v0,-1
8000bed4:	ac820018 	sw	v0,24(a0)
8000bed8:	8c820018 	lw	v0,24(a0)
8000bedc:	00000000 	nop
8000bee0:	10400015 	beqz	v0,8000bf38 <filemap_close+0xac>
8000bee4:	00000000 	nop
8000bee8:	8fbf001c 	lw	ra,28(sp)
8000beec:	00000000 	nop
8000bef0:	03e00008 	jr	ra
8000bef4:	27bd0020 	addiu	sp,sp,32
8000bef8:	0c000b7d 	jal	80002df4 <intr_disable>
8000befc:	afa40010 	sw	a0,16(sp)
8000bf00:	8fa40010 	lw	a0,16(sp)
8000bf04:	00000000 	nop
8000bf08:	8c820018 	lw	v0,24(a0)
8000bf0c:	00000000 	nop
8000bf10:	2442ffff 	addiu	v0,v0,-1
8000bf14:	ac820018 	sw	v0,24(a0)
8000bf18:	0c000b77 	jal	80002ddc <intr_enable>
8000bf1c:	00000000 	nop
8000bf20:	8fa40010 	lw	a0,16(sp)
8000bf24:	00000000 	nop
8000bf28:	8c820018 	lw	v0,24(a0)
8000bf2c:	00000000 	nop
8000bf30:	1440ffed 	bnez	v0,8000bee8 <filemap_close+0x5c>
8000bf34:	00000000 	nop
8000bf38:	8fbf001c 	lw	ra,28(sp)
8000bf3c:	08002ee7 	j	8000bb9c <filemap_free>
8000bf40:	27bd0020 	addiu	sp,sp,32
8000bf44:	3c048001 	lui	a0,0x8001
8000bf48:	3c068001 	lui	a2,0x8001
8000bf4c:	24846ad8 	addiu	a0,a0,27352
8000bf50:	24050062 	li	a1,98
8000bf54:	0c0009f2 	jal	800027c8 <__panic>
8000bf58:	24c66c24 	addiu	a2,a2,27684
8000bf5c:	3c048001 	lui	a0,0x8001
8000bf60:	3c068001 	lui	a2,0x8001
8000bf64:	24846ad8 	addiu	a0,a0,27352
8000bf68:	24050061 	li	a1,97
8000bf6c:	0c0009f2 	jal	800027c8 <__panic>
8000bf70:	24c66bac 	addiu	a2,a2,27564

8000bf74 <filemap_dup>:
8000bf74:	8c820000 	lw	v0,0(a0)
8000bf78:	27bdffe0 	addiu	sp,sp,-32
8000bf7c:	24030001 	li	v1,1
8000bf80:	afb00014 	sw	s0,20(sp)
8000bf84:	afbf001c 	sw	ra,28(sp)
8000bf88:	afb10018 	sw	s1,24(sp)
8000bf8c:	14430017 	bne	v0,v1,8000bfec <filemap_dup+0x78>
8000bf90:	00808021 	move	s0,a0
8000bf94:	8ca30000 	lw	v1,0(a1)
8000bf98:	24020002 	li	v0,2
8000bf9c:	14620013 	bne	v1,v0,8000bfec <filemap_dup+0x78>
8000bfa0:	00000000 	nop
8000bfa4:	8cb10014 	lw	s1,20(a1)
8000bfa8:	8ca40010 	lw	a0,16(a1)
8000bfac:	8ca30004 	lw	v1,4(a1)
8000bfb0:	8ca20008 	lw	v0,8(a1)
8000bfb4:	ae040010 	sw	a0,16(s0)
8000bfb8:	ae030004 	sw	v1,4(s0)
8000bfbc:	02202021 	move	a0,s1
8000bfc0:	0c0036d4 	jal	8000db50 <inode_ref_inc>
8000bfc4:	ae020008 	sw	v0,8(s0)
8000bfc8:	0c0036f6 	jal	8000dbd8 <inode_open_inc>
8000bfcc:	02202021 	move	a0,s1
8000bfd0:	ae110014 	sw	s1,20(s0)
8000bfd4:	02002021 	move	a0,s0
8000bfd8:	8fbf001c 	lw	ra,28(sp)
8000bfdc:	8fb10018 	lw	s1,24(sp)
8000bfe0:	8fb00014 	lw	s0,20(sp)
8000bfe4:	08002f78 	j	8000bde0 <filemap_open>
8000bfe8:	27bd0020 	addiu	sp,sp,32
8000bfec:	3c048001 	lui	a0,0x8001
8000bff0:	3c068001 	lui	a2,0x8001
8000bff4:	24846ad8 	addiu	a0,a0,27352
8000bff8:	2405006c 	li	a1,108
8000bffc:	0c0009f2 	jal	800027c8 <__panic>
8000c000:	24c66c8c 	addiu	a2,a2,27788

8000c004 <file_testfd>:
8000c004:	27bdffd8 	addiu	sp,sp,-40
8000c008:	2c820091 	sltiu	v0,a0,145
8000c00c:	10400021 	beqz	v0,8000c094 <file_testfd+0x90>
8000c010:	afbf0024 	sw	ra,36(sp)
8000c014:	afa40010 	sw	a0,16(sp)
8000c018:	afa50014 	sw	a1,20(sp)
8000c01c:	0c002e95 	jal	8000ba54 <get_filemap>
8000c020:	afa60018 	sw	a2,24(sp)
8000c024:	8fa40010 	lw	a0,16(sp)
8000c028:	8fa50014 	lw	a1,20(sp)
8000c02c:	00043940 	sll	a3,a0,0x5
8000c030:	00041880 	sll	v1,a0,0x2
8000c034:	00e31823 	subu	v1,a3,v1
8000c038:	00431021 	addu	v0,v0,v1
8000c03c:	8c470000 	lw	a3,0(v0)
8000c040:	24030002 	li	v1,2
8000c044:	8fa60018 	lw	a2,24(sp)
8000c048:	14e30012 	bne	a3,v1,8000c094 <file_testfd+0x90>
8000c04c:	00000000 	nop
8000c050:	8c43000c 	lw	v1,12(v0)
8000c054:	00000000 	nop
8000c058:	1483000e 	bne	a0,v1,8000c094 <file_testfd+0x90>
8000c05c:	00000000 	nop
8000c060:	14a00008 	bnez	a1,8000c084 <file_testfd+0x80>
8000c064:	00000000 	nop
8000c068:	10c0000e 	beqz	a2,8000c0a4 <file_testfd+0xa0>
8000c06c:	00000000 	nop
8000c070:	8c420008 	lw	v0,8(v0)
8000c074:	8fbf0024 	lw	ra,36(sp)
8000c078:	0002102b 	sltu	v0,zero,v0
8000c07c:	03e00008 	jr	ra
8000c080:	27bd0028 	addiu	sp,sp,40
8000c084:	8c430004 	lw	v1,4(v0)
8000c088:	00000000 	nop
8000c08c:	1460fff6 	bnez	v1,8000c068 <file_testfd+0x64>
8000c090:	00000000 	nop
8000c094:	8fbf0024 	lw	ra,36(sp)
8000c098:	00001021 	move	v0,zero
8000c09c:	03e00008 	jr	ra
8000c0a0:	27bd0028 	addiu	sp,sp,40
8000c0a4:	8fbf0024 	lw	ra,36(sp)
8000c0a8:	24020001 	li	v0,1
8000c0ac:	03e00008 	jr	ra
8000c0b0:	27bd0028 	addiu	sp,sp,40

8000c0b4 <file_open>:
8000c0b4:	27bdffc0 	addiu	sp,sp,-64
8000c0b8:	30a20003 	andi	v0,a1,0x3
8000c0bc:	24030001 	li	v1,1
8000c0c0:	afb30034 	sw	s3,52(sp)
8000c0c4:	afb00028 	sw	s0,40(sp)
8000c0c8:	afbf003c 	sw	ra,60(sp)
8000c0cc:	afb40038 	sw	s4,56(sp)
8000c0d0:	afb20030 	sw	s2,48(sp)
8000c0d4:	afb1002c 	sw	s1,44(sp)
8000c0d8:	00a08021 	move	s0,a1
8000c0dc:	1043004b 	beq	v0,v1,8000c20c <file_open+0x158>
8000c0e0:	00809821 	move	s3,a0
8000c0e4:	1440003e 	bnez	v0,8000c1e0 <file_open+0x12c>
8000c0e8:	24030002 	li	v1,2
8000c0ec:	00008821 	move	s1,zero
8000c0f0:	24120001 	li	s2,1
8000c0f4:	3c04ffff 	lui	a0,0xffff
8000c0f8:	24846ad9 	addiu	a0,a0,27353
8000c0fc:	0c002eaf 	jal	8000babc <filemap_alloc>
8000c100:	27a50014 	addiu	a1,sp,20
8000c104:	14400038 	bnez	v0,8000c1e8 <file_open+0x134>
8000c108:	0040a021 	move	s4,v0
8000c10c:	02602021 	move	a0,s3
8000c110:	02002821 	move	a1,s0
8000c114:	0c003a5a 	jal	8000e968 <vfs_open>
8000c118:	27a60010 	addiu	a2,sp,16
8000c11c:	8fa40014 	lw	a0,20(sp)
8000c120:	14400044 	bnez	v0,8000c234 <file_open+0x180>
8000c124:	0040a021 	move	s4,v0
8000c128:	32100020 	andi	s0,s0,0x20
8000c12c:	1200001c 	beqz	s0,8000c1a0 <file_open+0xec>
8000c130:	ac800010 	sw	zero,16(a0)
8000c134:	8fb00010 	lw	s0,16(sp)
8000c138:	00000000 	nop
8000c13c:	12000041 	beqz	s0,8000c244 <file_open+0x190>
8000c140:	3c048001 	lui	a0,0x8001
8000c144:	8e02003c 	lw	v0,60(s0)
8000c148:	00000000 	nop
8000c14c:	1040003d 	beqz	v0,8000c244 <file_open+0x190>
8000c150:	00000000 	nop
8000c154:	8c420014 	lw	v0,20(v0)
8000c158:	00000000 	nop
8000c15c:	10400039 	beqz	v0,8000c244 <file_open+0x190>
8000c160:	3c058001 	lui	a1,0x8001
8000c164:	02002021 	move	a0,s0
8000c168:	0c003713 	jal	8000dc4c <inode_check>
8000c16c:	24a56d34 	addiu	a1,a1,27956
8000c170:	8e02003c 	lw	v0,60(s0)
8000c174:	8fa40010 	lw	a0,16(sp)
8000c178:	8c420014 	lw	v0,20(v0)
8000c17c:	00000000 	nop
8000c180:	0040f809 	jalr	v0
8000c184:	27a50018 	addiu	a1,sp,24
8000c188:	14400026 	bnez	v0,8000c224 <file_open+0x170>
8000c18c:	0040a021 	move	s4,v0
8000c190:	8fa40014 	lw	a0,20(sp)
8000c194:	8fa20024 	lw	v0,36(sp)
8000c198:	00000000 	nop
8000c19c:	ac820010 	sw	v0,16(a0)
8000c1a0:	8fa20010 	lw	v0,16(sp)
8000c1a4:	ac920004 	sw	s2,4(a0)
8000c1a8:	ac820014 	sw	v0,20(a0)
8000c1ac:	0c002f78 	jal	8000bde0 <filemap_open>
8000c1b0:	ac910008 	sw	s1,8(a0)
8000c1b4:	8fa20014 	lw	v0,20(sp)
8000c1b8:	8fbf003c 	lw	ra,60(sp)
8000c1bc:	8c54000c 	lw	s4,12(v0)
8000c1c0:	8fb30034 	lw	s3,52(sp)
8000c1c4:	02801021 	move	v0,s4
8000c1c8:	8fb20030 	lw	s2,48(sp)
8000c1cc:	8fb40038 	lw	s4,56(sp)
8000c1d0:	8fb1002c 	lw	s1,44(sp)
8000c1d4:	8fb00028 	lw	s0,40(sp)
8000c1d8:	03e00008 	jr	ra
8000c1dc:	27bd0040 	addiu	sp,sp,64
8000c1e0:	1043000d 	beq	v0,v1,8000c218 <file_open+0x164>
8000c1e4:	2414fffd 	li	s4,-3
8000c1e8:	8fbf003c 	lw	ra,60(sp)
8000c1ec:	02801021 	move	v0,s4
8000c1f0:	8fb30034 	lw	s3,52(sp)
8000c1f4:	8fb40038 	lw	s4,56(sp)
8000c1f8:	8fb20030 	lw	s2,48(sp)
8000c1fc:	8fb1002c 	lw	s1,44(sp)
8000c200:	8fb00028 	lw	s0,40(sp)
8000c204:	03e00008 	jr	ra
8000c208:	27bd0040 	addiu	sp,sp,64
8000c20c:	24110001 	li	s1,1
8000c210:	0800303d 	j	8000c0f4 <file_open+0x40>
8000c214:	00009021 	move	s2,zero
8000c218:	24110001 	li	s1,1
8000c21c:	0800303d 	j	8000c0f4 <file_open+0x40>
8000c220:	24120001 	li	s2,1
8000c224:	8fa40010 	lw	a0,16(sp)
8000c228:	0c003b08 	jal	8000ec20 <vfs_close>
8000c22c:	00000000 	nop
8000c230:	8fa40014 	lw	a0,20(sp)
8000c234:	0c002ee7 	jal	8000bb9c <filemap_free>
8000c238:	00000000 	nop
8000c23c:	0800307a 	j	8000c1e8 <file_open+0x134>
8000c240:	00000000 	nop
8000c244:	3c068001 	lui	a2,0x8001
8000c248:	24846ad8 	addiu	a0,a0,27352
8000c24c:	240500ae 	li	a1,174
8000c250:	0c0009f2 	jal	800027c8 <__panic>
8000c254:	24c66cd4 	addiu	a2,a2,27860

8000c258 <file_close>:
8000c258:	27bdffe8 	addiu	sp,sp,-24
8000c25c:	2c820091 	sltiu	v0,a0,145
8000c260:	afb00010 	sw	s0,16(sp)
8000c264:	afbf0014 	sw	ra,20(sp)
8000c268:	10400016 	beqz	v0,8000c2c4 <file_close+0x6c>
8000c26c:	00808021 	move	s0,a0
8000c270:	0c002e95 	jal	8000ba54 <get_filemap>
8000c274:	00000000 	nop
8000c278:	00101940 	sll	v1,s0,0x5
8000c27c:	00102080 	sll	a0,s0,0x2
8000c280:	00642023 	subu	a0,v1,a0
8000c284:	00442021 	addu	a0,v0,a0
8000c288:	8c830000 	lw	v1,0(a0)
8000c28c:	24020002 	li	v0,2
8000c290:	1462000c 	bne	v1,v0,8000c2c4 <file_close+0x6c>
8000c294:	00000000 	nop
8000c298:	8c82000c 	lw	v0,12(a0)
8000c29c:	00000000 	nop
8000c2a0:	16020008 	bne	s0,v0,8000c2c4 <file_close+0x6c>
8000c2a4:	00000000 	nop
8000c2a8:	0c002fa3 	jal	8000be8c <filemap_close>
8000c2ac:	00000000 	nop
8000c2b0:	8fbf0014 	lw	ra,20(sp)
8000c2b4:	00001021 	move	v0,zero
8000c2b8:	8fb00010 	lw	s0,16(sp)
8000c2bc:	03e00008 	jr	ra
8000c2c0:	27bd0018 	addiu	sp,sp,24
8000c2c4:	8fbf0014 	lw	ra,20(sp)
8000c2c8:	2402fffd 	li	v0,-3
8000c2cc:	8fb00010 	lw	s0,16(sp)
8000c2d0:	03e00008 	jr	ra
8000c2d4:	27bd0018 	addiu	sp,sp,24

8000c2d8 <file_read>:
8000c2d8:	27bdffb8 	addiu	sp,sp,-72
8000c2dc:	2c820091 	sltiu	v0,a0,145
8000c2e0:	afb10034 	sw	s1,52(sp)
8000c2e4:	afbf0044 	sw	ra,68(sp)
8000c2e8:	afb40040 	sw	s4,64(sp)
8000c2ec:	afb3003c 	sw	s3,60(sp)
8000c2f0:	afb20038 	sw	s2,56(sp)
8000c2f4:	afb00030 	sw	s0,48(sp)
8000c2f8:	00e08821 	move	s1,a3
8000c2fc:	10400048 	beqz	v0,8000c420 <file_read+0x148>
8000c300:	ace00000 	sw	zero,0(a3)
8000c304:	afa40020 	sw	a0,32(sp)
8000c308:	afa50024 	sw	a1,36(sp)
8000c30c:	0c002e95 	jal	8000ba54 <get_filemap>
8000c310:	afa60028 	sw	a2,40(sp)
8000c314:	8fa40020 	lw	a0,32(sp)
8000c318:	8fa50024 	lw	a1,36(sp)
8000c31c:	00048080 	sll	s0,a0,0x2
8000c320:	00041940 	sll	v1,a0,0x5
8000c324:	00708023 	subu	s0,v1,s0
8000c328:	00508021 	addu	s0,v0,s0
8000c32c:	8e120000 	lw	s2,0(s0)
8000c330:	24020002 	li	v0,2
8000c334:	8fa60028 	lw	a2,40(sp)
8000c338:	16420039 	bne	s2,v0,8000c420 <file_read+0x148>
8000c33c:	00000000 	nop
8000c340:	8e02000c 	lw	v0,12(s0)
8000c344:	00000000 	nop
8000c348:	14820035 	bne	a0,v0,8000c420 <file_read+0x148>
8000c34c:	00000000 	nop
8000c350:	8e020004 	lw	v0,4(s0)
8000c354:	00000000 	nop
8000c358:	10400031 	beqz	v0,8000c420 <file_read+0x148>
8000c35c:	02002021 	move	a0,s0
8000c360:	afa50024 	sw	a1,36(sp)
8000c364:	0c002f0f 	jal	8000bc3c <filemap_acquire>
8000c368:	afa60028 	sw	a2,40(sp)
8000c36c:	8e070010 	lw	a3,16(s0)
8000c370:	8fa50024 	lw	a1,36(sp)
8000c374:	8fa60028 	lw	a2,40(sp)
8000c378:	0c0033cb 	jal	8000cf2c <iobuf_init>
8000c37c:	27a40010 	addiu	a0,sp,16
8000c380:	8e140014 	lw	s4,20(s0)
8000c384:	00000000 	nop
8000c388:	12800033 	beqz	s4,8000c458 <file_read+0x180>
8000c38c:	00409821 	move	s3,v0
8000c390:	8e82003c 	lw	v0,60(s4)
8000c394:	00000000 	nop
8000c398:	10400030 	beqz	v0,8000c45c <file_read+0x184>
8000c39c:	3c048001 	lui	a0,0x8001
8000c3a0:	8c42000c 	lw	v0,12(v0)
8000c3a4:	00000000 	nop
8000c3a8:	1040002c 	beqz	v0,8000c45c <file_read+0x184>
8000c3ac:	3c058001 	lui	a1,0x8001
8000c3b0:	02802021 	move	a0,s4
8000c3b4:	0c003713 	jal	8000dc4c <inode_check>
8000c3b8:	24a56d9c 	addiu	a1,a1,28060
8000c3bc:	8e82003c 	lw	v0,60(s4)
8000c3c0:	8e040014 	lw	a0,20(s0)
8000c3c4:	8c42000c 	lw	v0,12(v0)
8000c3c8:	00000000 	nop
8000c3cc:	0040f809 	jalr	v0
8000c3d0:	02602821 	move	a1,s3
8000c3d4:	8e650008 	lw	a1,8(s3)
8000c3d8:	8e63000c 	lw	v1,12(s3)
8000c3dc:	8e040000 	lw	a0,0(s0)
8000c3e0:	00000000 	nop
8000c3e4:	10920017 	beq	a0,s2,8000c444 <file_read+0x16c>
8000c3e8:	00a31823 	subu	v1,a1,v1
8000c3ec:	ae230000 	sw	v1,0(s1)
8000c3f0:	02002021 	move	a0,s0
8000c3f4:	0c002f35 	jal	8000bcd4 <filemap_release>
8000c3f8:	afa20020 	sw	v0,32(sp)
8000c3fc:	8fbf0044 	lw	ra,68(sp)
8000c400:	8fa20020 	lw	v0,32(sp)
8000c404:	8fb40040 	lw	s4,64(sp)
8000c408:	8fb3003c 	lw	s3,60(sp)
8000c40c:	8fb20038 	lw	s2,56(sp)
8000c410:	8fb10034 	lw	s1,52(sp)
8000c414:	8fb00030 	lw	s0,48(sp)
8000c418:	03e00008 	jr	ra
8000c41c:	27bd0048 	addiu	sp,sp,72
8000c420:	8fbf0044 	lw	ra,68(sp)
8000c424:	2402fffd 	li	v0,-3
8000c428:	8fb40040 	lw	s4,64(sp)
8000c42c:	8fb3003c 	lw	s3,60(sp)
8000c430:	8fb20038 	lw	s2,56(sp)
8000c434:	8fb10034 	lw	s1,52(sp)
8000c438:	8fb00030 	lw	s0,48(sp)
8000c43c:	03e00008 	jr	ra
8000c440:	27bd0048 	addiu	sp,sp,72
8000c444:	8e040010 	lw	a0,16(s0)
8000c448:	00000000 	nop
8000c44c:	00832021 	addu	a0,a0,v1
8000c450:	080030fb 	j	8000c3ec <file_read+0x114>
8000c454:	ae040010 	sw	a0,16(s0)
8000c458:	3c048001 	lui	a0,0x8001
8000c45c:	3c068001 	lui	a2,0x8001
8000c460:	24846ad8 	addiu	a0,a0,27352
8000c464:	240500d6 	li	a1,214
8000c468:	0c0009f2 	jal	800027c8 <__panic>
8000c46c:	24c66d3c 	addiu	a2,a2,27964

8000c470 <file_write>:
8000c470:	27bdffb8 	addiu	sp,sp,-72
8000c474:	2c820091 	sltiu	v0,a0,145
8000c478:	afb10034 	sw	s1,52(sp)
8000c47c:	afbf0044 	sw	ra,68(sp)
8000c480:	afb40040 	sw	s4,64(sp)
8000c484:	afb3003c 	sw	s3,60(sp)
8000c488:	afb20038 	sw	s2,56(sp)
8000c48c:	afb00030 	sw	s0,48(sp)
8000c490:	00e08821 	move	s1,a3
8000c494:	10400048 	beqz	v0,8000c5b8 <file_write+0x148>
8000c498:	ace00000 	sw	zero,0(a3)
8000c49c:	afa40020 	sw	a0,32(sp)
8000c4a0:	afa50024 	sw	a1,36(sp)
8000c4a4:	0c002e95 	jal	8000ba54 <get_filemap>
8000c4a8:	afa60028 	sw	a2,40(sp)
8000c4ac:	8fa40020 	lw	a0,32(sp)
8000c4b0:	8fa50024 	lw	a1,36(sp)
8000c4b4:	00048080 	sll	s0,a0,0x2
8000c4b8:	00041940 	sll	v1,a0,0x5
8000c4bc:	00708023 	subu	s0,v1,s0
8000c4c0:	00508021 	addu	s0,v0,s0
8000c4c4:	8e120000 	lw	s2,0(s0)
8000c4c8:	24020002 	li	v0,2
8000c4cc:	8fa60028 	lw	a2,40(sp)
8000c4d0:	16420039 	bne	s2,v0,8000c5b8 <file_write+0x148>
8000c4d4:	00000000 	nop
8000c4d8:	8e02000c 	lw	v0,12(s0)
8000c4dc:	00000000 	nop
8000c4e0:	14820035 	bne	a0,v0,8000c5b8 <file_write+0x148>
8000c4e4:	00000000 	nop
8000c4e8:	8e020008 	lw	v0,8(s0)
8000c4ec:	00000000 	nop
8000c4f0:	10400031 	beqz	v0,8000c5b8 <file_write+0x148>
8000c4f4:	02002021 	move	a0,s0
8000c4f8:	afa50024 	sw	a1,36(sp)
8000c4fc:	0c002f0f 	jal	8000bc3c <filemap_acquire>
8000c500:	afa60028 	sw	a2,40(sp)
8000c504:	8e070010 	lw	a3,16(s0)
8000c508:	8fa50024 	lw	a1,36(sp)
8000c50c:	8fa60028 	lw	a2,40(sp)
8000c510:	0c0033cb 	jal	8000cf2c <iobuf_init>
8000c514:	27a40010 	addiu	a0,sp,16
8000c518:	8e140014 	lw	s4,20(s0)
8000c51c:	00000000 	nop
8000c520:	12800033 	beqz	s4,8000c5f0 <file_write+0x180>
8000c524:	00409821 	move	s3,v0
8000c528:	8e82003c 	lw	v0,60(s4)
8000c52c:	00000000 	nop
8000c530:	10400030 	beqz	v0,8000c5f4 <file_write+0x184>
8000c534:	3c048001 	lui	a0,0x8001
8000c538:	8c420010 	lw	v0,16(v0)
8000c53c:	00000000 	nop
8000c540:	1040002c 	beqz	v0,8000c5f4 <file_write+0x184>
8000c544:	3c058001 	lui	a1,0x8001
8000c548:	02802021 	move	a0,s4
8000c54c:	0c003713 	jal	8000dc4c <inode_check>
8000c550:	24a56e04 	addiu	a1,a1,28164
8000c554:	8e82003c 	lw	v0,60(s4)
8000c558:	8e040014 	lw	a0,20(s0)
8000c55c:	8c420010 	lw	v0,16(v0)
8000c560:	00000000 	nop
8000c564:	0040f809 	jalr	v0
8000c568:	02602821 	move	a1,s3
8000c56c:	8e650008 	lw	a1,8(s3)
8000c570:	8e63000c 	lw	v1,12(s3)
8000c574:	8e040000 	lw	a0,0(s0)
8000c578:	00000000 	nop
8000c57c:	10920017 	beq	a0,s2,8000c5dc <file_write+0x16c>
8000c580:	00a31823 	subu	v1,a1,v1
8000c584:	ae230000 	sw	v1,0(s1)
8000c588:	02002021 	move	a0,s0
8000c58c:	0c002f35 	jal	8000bcd4 <filemap_release>
8000c590:	afa20020 	sw	v0,32(sp)
8000c594:	8fbf0044 	lw	ra,68(sp)
8000c598:	8fa20020 	lw	v0,32(sp)
8000c59c:	8fb40040 	lw	s4,64(sp)
8000c5a0:	8fb3003c 	lw	s3,60(sp)
8000c5a4:	8fb20038 	lw	s2,56(sp)
8000c5a8:	8fb10034 	lw	s1,52(sp)
8000c5ac:	8fb00030 	lw	s0,48(sp)
8000c5b0:	03e00008 	jr	ra
8000c5b4:	27bd0048 	addiu	sp,sp,72
8000c5b8:	8fbf0044 	lw	ra,68(sp)
8000c5bc:	2402fffd 	li	v0,-3
8000c5c0:	8fb40040 	lw	s4,64(sp)
8000c5c4:	8fb3003c 	lw	s3,60(sp)
8000c5c8:	8fb20038 	lw	s2,56(sp)
8000c5cc:	8fb10034 	lw	s1,52(sp)
8000c5d0:	8fb00030 	lw	s0,48(sp)
8000c5d4:	03e00008 	jr	ra
8000c5d8:	27bd0048 	addiu	sp,sp,72
8000c5dc:	8e040010 	lw	a0,16(s0)
8000c5e0:	00000000 	nop
8000c5e4:	00832021 	addu	a0,a0,v1
8000c5e8:	08003161 	j	8000c584 <file_write+0x114>
8000c5ec:	ae040010 	sw	a0,16(s0)
8000c5f0:	3c048001 	lui	a0,0x8001
8000c5f4:	3c068001 	lui	a2,0x8001
8000c5f8:	24846ad8 	addiu	a0,a0,27352
8000c5fc:	240500ef 	li	a1,239
8000c600:	0c0009f2 	jal	800027c8 <__panic>
8000c604:	24c66da4 	addiu	a2,a2,28068

8000c608 <file_seek>:
8000c608:	27bdffc0 	addiu	sp,sp,-64
8000c60c:	2c820091 	sltiu	v0,a0,145
8000c610:	afb30034 	sw	s3,52(sp)
8000c614:	afb1002c 	sw	s1,44(sp)
8000c618:	afb00028 	sw	s0,40(sp)
8000c61c:	afbf003c 	sw	ra,60(sp)
8000c620:	afb40038 	sw	s4,56(sp)
8000c624:	afb20030 	sw	s2,48(sp)
8000c628:	00808821 	move	s1,a0
8000c62c:	00a08021 	move	s0,a1
8000c630:	10400030 	beqz	v0,8000c6f4 <file_seek+0xec>
8000c634:	00c09821 	move	s3,a2
8000c638:	0c002e95 	jal	8000ba54 <get_filemap>
8000c63c:	00119080 	sll	s2,s1,0x2
8000c640:	00111940 	sll	v1,s1,0x5
8000c644:	00729023 	subu	s2,v1,s2
8000c648:	00529021 	addu	s2,v0,s2
8000c64c:	8e540000 	lw	s4,0(s2)
8000c650:	24020002 	li	v0,2
8000c654:	16820027 	bne	s4,v0,8000c6f4 <file_seek+0xec>
8000c658:	00000000 	nop
8000c65c:	8e42000c 	lw	v0,12(s2)
8000c660:	00000000 	nop
8000c664:	16220023 	bne	s1,v0,8000c6f4 <file_seek+0xec>
8000c668:	00000000 	nop
8000c66c:	0c002f0f 	jal	8000bc3c <filemap_acquire>
8000c670:	02402021 	move	a0,s2
8000c674:	24020001 	li	v0,1
8000c678:	1262004d 	beq	s3,v0,8000c7b0 <file_seek+0x1a8>
8000c67c:	00000000 	nop
8000c680:	12740031 	beq	s3,s4,8000c748 <file_seek+0x140>
8000c684:	00000000 	nop
8000c688:	16600023 	bnez	s3,8000c718 <file_seek+0x110>
8000c68c:	2402fffd 	li	v0,-3
8000c690:	8e510014 	lw	s1,20(s2)
8000c694:	00000000 	nop
8000c698:	12200048 	beqz	s1,8000c7bc <file_seek+0x1b4>
8000c69c:	00000000 	nop
8000c6a0:	8e22003c 	lw	v0,60(s1)
8000c6a4:	00000000 	nop
8000c6a8:	10400045 	beqz	v0,8000c7c0 <file_seek+0x1b8>
8000c6ac:	3c048001 	lui	a0,0x8001
8000c6b0:	8c42002c 	lw	v0,44(v0)
8000c6b4:	00000000 	nop
8000c6b8:	10400041 	beqz	v0,8000c7c0 <file_seek+0x1b8>
8000c6bc:	3c058001 	lui	a1,0x8001
8000c6c0:	02202021 	move	a0,s1
8000c6c4:	0c003713 	jal	8000dc4c <inode_check>
8000c6c8:	24a56e70 	addiu	a1,a1,28272
8000c6cc:	8e22003c 	lw	v0,60(s1)
8000c6d0:	8e440014 	lw	a0,20(s2)
8000c6d4:	8c42002c 	lw	v0,44(v0)
8000c6d8:	00000000 	nop
8000c6dc:	0040f809 	jalr	v0
8000c6e0:	02002821 	move	a1,s0
8000c6e4:	1440000d 	bnez	v0,8000c71c <file_seek+0x114>
8000c6e8:	02402021 	move	a0,s2
8000c6ec:	080031c7 	j	8000c71c <file_seek+0x114>
8000c6f0:	ae500010 	sw	s0,16(s2)
8000c6f4:	8fbf003c 	lw	ra,60(sp)
8000c6f8:	2402fffd 	li	v0,-3
8000c6fc:	8fb40038 	lw	s4,56(sp)
8000c700:	8fb30034 	lw	s3,52(sp)
8000c704:	8fb20030 	lw	s2,48(sp)
8000c708:	8fb1002c 	lw	s1,44(sp)
8000c70c:	8fb00028 	lw	s0,40(sp)
8000c710:	03e00008 	jr	ra
8000c714:	27bd0040 	addiu	sp,sp,64
8000c718:	02402021 	move	a0,s2
8000c71c:	0c002f35 	jal	8000bcd4 <filemap_release>
8000c720:	afa20020 	sw	v0,32(sp)
8000c724:	8fbf003c 	lw	ra,60(sp)
8000c728:	8fa20020 	lw	v0,32(sp)
8000c72c:	8fb40038 	lw	s4,56(sp)
8000c730:	8fb30034 	lw	s3,52(sp)
8000c734:	8fb20030 	lw	s2,48(sp)
8000c738:	8fb1002c 	lw	s1,44(sp)
8000c73c:	8fb00028 	lw	s0,40(sp)
8000c740:	03e00008 	jr	ra
8000c744:	27bd0040 	addiu	sp,sp,64
8000c748:	8e510014 	lw	s1,20(s2)
8000c74c:	00000000 	nop
8000c750:	12200020 	beqz	s1,8000c7d4 <file_seek+0x1cc>
8000c754:	3c048001 	lui	a0,0x8001
8000c758:	8e22003c 	lw	v0,60(s1)
8000c75c:	00000000 	nop
8000c760:	1040001d 	beqz	v0,8000c7d8 <file_seek+0x1d0>
8000c764:	3c068001 	lui	a2,0x8001
8000c768:	8c420014 	lw	v0,20(v0)
8000c76c:	00000000 	nop
8000c770:	10400018 	beqz	v0,8000c7d4 <file_seek+0x1cc>
8000c774:	3c058001 	lui	a1,0x8001
8000c778:	02202021 	move	a0,s1
8000c77c:	0c003713 	jal	8000dc4c <inode_check>
8000c780:	24a56d34 	addiu	a1,a1,27956
8000c784:	8e22003c 	lw	v0,60(s1)
8000c788:	8e440014 	lw	a0,20(s2)
8000c78c:	8c420014 	lw	v0,20(v0)
8000c790:	00000000 	nop
8000c794:	0040f809 	jalr	v0
8000c798:	27a50010 	addiu	a1,sp,16
8000c79c:	1440ffde 	bnez	v0,8000c718 <file_seek+0x110>
8000c7a0:	00000000 	nop
8000c7a4:	8fa2001c 	lw	v0,28(sp)
8000c7a8:	080031a4 	j	8000c690 <file_seek+0x88>
8000c7ac:	02028021 	addu	s0,s0,v0
8000c7b0:	8e420010 	lw	v0,16(s2)
8000c7b4:	080031a4 	j	8000c690 <file_seek+0x88>
8000c7b8:	02028021 	addu	s0,s0,v0
8000c7bc:	3c048001 	lui	a0,0x8001
8000c7c0:	3c068001 	lui	a2,0x8001
8000c7c4:	24846ad8 	addiu	a0,a0,27352
8000c7c8:	24050110 	li	a1,272
8000c7cc:	0c0009f2 	jal	800027c8 <__panic>
8000c7d0:	24c66e0c 	addiu	a2,a2,28172
8000c7d4:	3c068001 	lui	a2,0x8001
8000c7d8:	24846ad8 	addiu	a0,a0,27352
8000c7dc:	24050108 	li	a1,264
8000c7e0:	0c0009f2 	jal	800027c8 <__panic>
8000c7e4:	24c66cd4 	addiu	a2,a2,27860

8000c7e8 <file_fstat>:
8000c7e8:	27bdffd8 	addiu	sp,sp,-40
8000c7ec:	2c820091 	sltiu	v0,a0,145
8000c7f0:	afb1001c 	sw	s1,28(sp)
8000c7f4:	afbf0024 	sw	ra,36(sp)
8000c7f8:	afb20020 	sw	s2,32(sp)
8000c7fc:	afb00018 	sw	s0,24(sp)
8000c800:	10400032 	beqz	v0,8000c8cc <file_fstat+0xe4>
8000c804:	00a08821 	move	s1,a1
8000c808:	0c002e95 	jal	8000ba54 <get_filemap>
8000c80c:	afa40010 	sw	a0,16(sp)
8000c810:	8fa40010 	lw	a0,16(sp)
8000c814:	00000000 	nop
8000c818:	00041940 	sll	v1,a0,0x5
8000c81c:	00048080 	sll	s0,a0,0x2
8000c820:	00708023 	subu	s0,v1,s0
8000c824:	00508021 	addu	s0,v0,s0
8000c828:	8e030000 	lw	v1,0(s0)
8000c82c:	24020002 	li	v0,2
8000c830:	14620026 	bne	v1,v0,8000c8cc <file_fstat+0xe4>
8000c834:	00000000 	nop
8000c838:	8e02000c 	lw	v0,12(s0)
8000c83c:	00000000 	nop
8000c840:	14820022 	bne	a0,v0,8000c8cc <file_fstat+0xe4>
8000c844:	00000000 	nop
8000c848:	0c002f0f 	jal	8000bc3c <filemap_acquire>
8000c84c:	02002021 	move	a0,s0
8000c850:	8e120014 	lw	s2,20(s0)
8000c854:	00000000 	nop
8000c858:	12400023 	beqz	s2,8000c8e8 <file_fstat+0x100>
8000c85c:	3c048001 	lui	a0,0x8001
8000c860:	8e42003c 	lw	v0,60(s2)
8000c864:	00000000 	nop
8000c868:	1040001f 	beqz	v0,8000c8e8 <file_fstat+0x100>
8000c86c:	00000000 	nop
8000c870:	8c420014 	lw	v0,20(v0)
8000c874:	00000000 	nop
8000c878:	1040001b 	beqz	v0,8000c8e8 <file_fstat+0x100>
8000c87c:	3c058001 	lui	a1,0x8001
8000c880:	02402021 	move	a0,s2
8000c884:	0c003713 	jal	8000dc4c <inode_check>
8000c888:	24a56d34 	addiu	a1,a1,27956
8000c88c:	8e42003c 	lw	v0,60(s2)
8000c890:	8e040014 	lw	a0,20(s0)
8000c894:	8c420014 	lw	v0,20(v0)
8000c898:	00000000 	nop
8000c89c:	0040f809 	jalr	v0
8000c8a0:	02202821 	move	a1,s1
8000c8a4:	02002021 	move	a0,s0
8000c8a8:	0c002f35 	jal	8000bcd4 <filemap_release>
8000c8ac:	afa20010 	sw	v0,16(sp)
8000c8b0:	8fbf0024 	lw	ra,36(sp)
8000c8b4:	8fa20010 	lw	v0,16(sp)
8000c8b8:	8fb20020 	lw	s2,32(sp)
8000c8bc:	8fb1001c 	lw	s1,28(sp)
8000c8c0:	8fb00018 	lw	s0,24(sp)
8000c8c4:	03e00008 	jr	ra
8000c8c8:	27bd0028 	addiu	sp,sp,40
8000c8cc:	8fbf0024 	lw	ra,36(sp)
8000c8d0:	2402fffd 	li	v0,-3
8000c8d4:	8fb20020 	lw	s2,32(sp)
8000c8d8:	8fb1001c 	lw	s1,28(sp)
8000c8dc:	8fb00018 	lw	s0,24(sp)
8000c8e0:	03e00008 	jr	ra
8000c8e4:	27bd0028 	addiu	sp,sp,40
8000c8e8:	3c068001 	lui	a2,0x8001
8000c8ec:	24846ad8 	addiu	a0,a0,27352
8000c8f0:	24050121 	li	a1,289
8000c8f4:	0c0009f2 	jal	800027c8 <__panic>
8000c8f8:	24c66cd4 	addiu	a2,a2,27860

8000c8fc <file_fsync>:
8000c8fc:	27bdffd8 	addiu	sp,sp,-40
8000c900:	2c820091 	sltiu	v0,a0,145
8000c904:	afbf0024 	sw	ra,36(sp)
8000c908:	afb10020 	sw	s1,32(sp)
8000c90c:	10400031 	beqz	v0,8000c9d4 <file_fsync+0xd8>
8000c910:	afb0001c 	sw	s0,28(sp)
8000c914:	0c002e95 	jal	8000ba54 <get_filemap>
8000c918:	afa40010 	sw	a0,16(sp)
8000c91c:	8fa40010 	lw	a0,16(sp)
8000c920:	00000000 	nop
8000c924:	00041940 	sll	v1,a0,0x5
8000c928:	00048080 	sll	s0,a0,0x2
8000c92c:	00708023 	subu	s0,v1,s0
8000c930:	00508021 	addu	s0,v0,s0
8000c934:	8e030000 	lw	v1,0(s0)
8000c938:	24020002 	li	v0,2
8000c93c:	14620025 	bne	v1,v0,8000c9d4 <file_fsync+0xd8>
8000c940:	00000000 	nop
8000c944:	8e02000c 	lw	v0,12(s0)
8000c948:	00000000 	nop
8000c94c:	14820021 	bne	a0,v0,8000c9d4 <file_fsync+0xd8>
8000c950:	00000000 	nop
8000c954:	0c002f0f 	jal	8000bc3c <filemap_acquire>
8000c958:	02002021 	move	a0,s0
8000c95c:	8e110014 	lw	s1,20(s0)
8000c960:	00000000 	nop
8000c964:	12200021 	beqz	s1,8000c9ec <file_fsync+0xf0>
8000c968:	3c048001 	lui	a0,0x8001
8000c96c:	8e22003c 	lw	v0,60(s1)
8000c970:	00000000 	nop
8000c974:	1040001d 	beqz	v0,8000c9ec <file_fsync+0xf0>
8000c978:	00000000 	nop
8000c97c:	8c420018 	lw	v0,24(v0)
8000c980:	00000000 	nop
8000c984:	10400019 	beqz	v0,8000c9ec <file_fsync+0xf0>
8000c988:	3c058001 	lui	a1,0x8001
8000c98c:	02202021 	move	a0,s1
8000c990:	0c003713 	jal	8000dc4c <inode_check>
8000c994:	24a56ed8 	addiu	a1,a1,28376
8000c998:	8e22003c 	lw	v0,60(s1)
8000c99c:	8e040014 	lw	a0,20(s0)
8000c9a0:	8c420018 	lw	v0,24(v0)
8000c9a4:	00000000 	nop
8000c9a8:	0040f809 	jalr	v0
8000c9ac:	00000000 	nop
8000c9b0:	02002021 	move	a0,s0
8000c9b4:	0c002f35 	jal	8000bcd4 <filemap_release>
8000c9b8:	afa20010 	sw	v0,16(sp)
8000c9bc:	8fbf0024 	lw	ra,36(sp)
8000c9c0:	8fa20010 	lw	v0,16(sp)
8000c9c4:	8fb10020 	lw	s1,32(sp)
8000c9c8:	8fb0001c 	lw	s0,28(sp)
8000c9cc:	03e00008 	jr	ra
8000c9d0:	27bd0028 	addiu	sp,sp,40
8000c9d4:	8fbf0024 	lw	ra,36(sp)
8000c9d8:	2402fffd 	li	v0,-3
8000c9dc:	8fb10020 	lw	s1,32(sp)
8000c9e0:	8fb0001c 	lw	s0,28(sp)
8000c9e4:	03e00008 	jr	ra
8000c9e8:	27bd0028 	addiu	sp,sp,40
8000c9ec:	3c068001 	lui	a2,0x8001
8000c9f0:	24846ad8 	addiu	a0,a0,27352
8000c9f4:	2405012e 	li	a1,302
8000c9f8:	0c0009f2 	jal	800027c8 <__panic>
8000c9fc:	24c66e78 	addiu	a2,a2,28280

8000ca00 <file_getdirentry>:
8000ca00:	27bdffc0 	addiu	sp,sp,-64
8000ca04:	2c820091 	sltiu	v0,a0,145
8000ca08:	afb10030 	sw	s1,48(sp)
8000ca0c:	afbf003c 	sw	ra,60(sp)
8000ca10:	afb30038 	sw	s3,56(sp)
8000ca14:	afb20034 	sw	s2,52(sp)
8000ca18:	afb0002c 	sw	s0,44(sp)
8000ca1c:	1040003a 	beqz	v0,8000cb08 <file_getdirentry+0x108>
8000ca20:	00a08821 	move	s1,a1
8000ca24:	0c002e95 	jal	8000ba54 <get_filemap>
8000ca28:	afa40020 	sw	a0,32(sp)
8000ca2c:	8fa40020 	lw	a0,32(sp)
8000ca30:	00000000 	nop
8000ca34:	00041940 	sll	v1,a0,0x5
8000ca38:	00048080 	sll	s0,a0,0x2
8000ca3c:	00708023 	subu	s0,v1,s0
8000ca40:	00508021 	addu	s0,v0,s0
8000ca44:	8e030000 	lw	v1,0(s0)
8000ca48:	24020002 	li	v0,2
8000ca4c:	1462002e 	bne	v1,v0,8000cb08 <file_getdirentry+0x108>
8000ca50:	00000000 	nop
8000ca54:	8e02000c 	lw	v0,12(s0)
8000ca58:	00000000 	nop
8000ca5c:	1482002a 	bne	a0,v0,8000cb08 <file_getdirentry+0x108>
8000ca60:	00000000 	nop
8000ca64:	0c002f0f 	jal	8000bc3c <filemap_acquire>
8000ca68:	02002021 	move	a0,s0
8000ca6c:	8e270000 	lw	a3,0(s1)
8000ca70:	27a40010 	addiu	a0,sp,16
8000ca74:	26250004 	addiu	a1,s1,4
8000ca78:	0c0033cb 	jal	8000cf2c <iobuf_init>
8000ca7c:	24060100 	li	a2,256
8000ca80:	8e130014 	lw	s3,20(s0)
8000ca84:	00000000 	nop
8000ca88:	1260002e 	beqz	s3,8000cb44 <file_getdirentry+0x144>
8000ca8c:	00409021 	move	s2,v0
8000ca90:	8e62003c 	lw	v0,60(s3)
8000ca94:	00000000 	nop
8000ca98:	1040002b 	beqz	v0,8000cb48 <file_getdirentry+0x148>
8000ca9c:	3c048001 	lui	a0,0x8001
8000caa0:	8c420020 	lw	v0,32(v0)
8000caa4:	00000000 	nop
8000caa8:	10400027 	beqz	v0,8000cb48 <file_getdirentry+0x148>
8000caac:	3c058001 	lui	a1,0x8001
8000cab0:	02602021 	move	a0,s3
8000cab4:	0c003713 	jal	8000dc4c <inode_check>
8000cab8:	24a56f48 	addiu	a1,a1,28488
8000cabc:	8e62003c 	lw	v0,60(s3)
8000cac0:	8e040014 	lw	a0,20(s0)
8000cac4:	8c420020 	lw	v0,32(v0)
8000cac8:	00000000 	nop
8000cacc:	0040f809 	jalr	v0
8000cad0:	02402821 	move	a1,s2
8000cad4:	10400014 	beqz	v0,8000cb28 <file_getdirentry+0x128>
8000cad8:	00000000 	nop
8000cadc:	02002021 	move	a0,s0
8000cae0:	0c002f35 	jal	8000bcd4 <filemap_release>
8000cae4:	afa20020 	sw	v0,32(sp)
8000cae8:	8fbf003c 	lw	ra,60(sp)
8000caec:	8fa20020 	lw	v0,32(sp)
8000caf0:	8fb30038 	lw	s3,56(sp)
8000caf4:	8fb20034 	lw	s2,52(sp)
8000caf8:	8fb10030 	lw	s1,48(sp)
8000cafc:	8fb0002c 	lw	s0,44(sp)
8000cb00:	03e00008 	jr	ra
8000cb04:	27bd0040 	addiu	sp,sp,64
8000cb08:	8fbf003c 	lw	ra,60(sp)
8000cb0c:	2402fffd 	li	v0,-3
8000cb10:	8fb30038 	lw	s3,56(sp)
8000cb14:	8fb20034 	lw	s2,52(sp)
8000cb18:	8fb10030 	lw	s1,48(sp)
8000cb1c:	8fb0002c 	lw	s0,44(sp)
8000cb20:	03e00008 	jr	ra
8000cb24:	27bd0040 	addiu	sp,sp,64
8000cb28:	8e250000 	lw	a1,0(s1)
8000cb2c:	8e43000c 	lw	v1,12(s2)
8000cb30:	8e440008 	lw	a0,8(s2)
8000cb34:	00a31823 	subu	v1,a1,v1
8000cb38:	00641821 	addu	v1,v1,a0
8000cb3c:	080032b7 	j	8000cadc <file_getdirentry+0xdc>
8000cb40:	ae230000 	sw	v1,0(s1)
8000cb44:	3c048001 	lui	a0,0x8001
8000cb48:	3c068001 	lui	a2,0x8001
8000cb4c:	24846ad8 	addiu	a0,a0,27352
8000cb50:	2405013d 	li	a1,317
8000cb54:	0c0009f2 	jal	800027c8 <__panic>
8000cb58:	24c66ee0 	addiu	a2,a2,28384

8000cb5c <file_dup>:
8000cb5c:	27bdffd0 	addiu	sp,sp,-48
8000cb60:	2c820091 	sltiu	v0,a0,145
8000cb64:	afb10028 	sw	s1,40(sp)
8000cb68:	afbf002c 	sw	ra,44(sp)
8000cb6c:	afb00024 	sw	s0,36(sp)
8000cb70:	10400019 	beqz	v0,8000cbd8 <file_dup+0x7c>
8000cb74:	00808821 	move	s1,a0
8000cb78:	afa50018 	sw	a1,24(sp)
8000cb7c:	0c002e95 	jal	8000ba54 <get_filemap>
8000cb80:	00118080 	sll	s0,s1,0x2
8000cb84:	00111940 	sll	v1,s1,0x5
8000cb88:	00708023 	subu	s0,v1,s0
8000cb8c:	00508021 	addu	s0,v0,s0
8000cb90:	8e030000 	lw	v1,0(s0)
8000cb94:	24020002 	li	v0,2
8000cb98:	8fa50018 	lw	a1,24(sp)
8000cb9c:	1462000e 	bne	v1,v0,8000cbd8 <file_dup+0x7c>
8000cba0:	00000000 	nop
8000cba4:	8e02000c 	lw	v0,12(s0)
8000cba8:	00000000 	nop
8000cbac:	1622000a 	bne	s1,v0,8000cbd8 <file_dup+0x7c>
8000cbb0:	00a02021 	move	a0,a1
8000cbb4:	0c002eaf 	jal	8000babc <filemap_alloc>
8000cbb8:	27a50010 	addiu	a1,sp,16
8000cbbc:	1040000c 	beqz	v0,8000cbf0 <file_dup+0x94>
8000cbc0:	00000000 	nop
8000cbc4:	8fbf002c 	lw	ra,44(sp)
8000cbc8:	8fb10028 	lw	s1,40(sp)
8000cbcc:	8fb00024 	lw	s0,36(sp)
8000cbd0:	03e00008 	jr	ra
8000cbd4:	27bd0030 	addiu	sp,sp,48
8000cbd8:	8fbf002c 	lw	ra,44(sp)
8000cbdc:	2402fffd 	li	v0,-3
8000cbe0:	8fb10028 	lw	s1,40(sp)
8000cbe4:	8fb00024 	lw	s0,36(sp)
8000cbe8:	03e00008 	jr	ra
8000cbec:	27bd0030 	addiu	sp,sp,48
8000cbf0:	8fa40010 	lw	a0,16(sp)
8000cbf4:	0c002fdd 	jal	8000bf74 <filemap_dup>
8000cbf8:	02002821 	move	a1,s0
8000cbfc:	8fa20010 	lw	v0,16(sp)
8000cc00:	8fbf002c 	lw	ra,44(sp)
8000cc04:	8c42000c 	lw	v0,12(v0)
8000cc08:	8fb10028 	lw	s1,40(sp)
8000cc0c:	8fb00024 	lw	s0,36(sp)
8000cc10:	03e00008 	jr	ra
8000cc14:	27bd0030 	addiu	sp,sp,48

8000cc18 <fs_init>:
8000cc18:	27bdffe8 	addiu	sp,sp,-24
8000cc1c:	afbf0014 	sw	ra,20(sp)
8000cc20:	0c0037e7 	jal	8000df9c <vfs_init>
8000cc24:	00000000 	nop
8000cc28:	0c004970 	jal	800125c0 <dev_init>
8000cc2c:	00000000 	nop
8000cc30:	8fbf0014 	lw	ra,20(sp)
8000cc34:	08003d82 	j	8000f608 <sfs_init>
8000cc38:	27bd0018 	addiu	sp,sp,24

8000cc3c <fs_cleanup>:
8000cc3c:	080038ef 	j	8000e3bc <vfs_cleanup>
8000cc40:	00000000 	nop

8000cc44 <lock_fs>:
8000cc44:	080022f8 	j	80008be0 <down>
8000cc48:	2484000c 	addiu	a0,a0,12

8000cc4c <unlock_fs>:
8000cc4c:	080022f6 	j	80008bd8 <up>
8000cc50:	2484000c 	addiu	a0,a0,12

8000cc54 <fs_create>:
8000cc54:	27bdffe0 	addiu	sp,sp,-32
8000cc58:	afbf001c 	sw	ra,28(sp)
8000cc5c:	0c001716 	jal	80005c58 <kmalloc>
8000cc60:	24041000 	li	a0,4096
8000cc64:	1040000e 	beqz	v0,8000cca0 <fs_create+0x4c>
8000cc68:	24430018 	addiu	v1,v0,24
8000cc6c:	ac430004 	sw	v1,4(v0)
8000cc70:	2444000c 	addiu	a0,v0,12
8000cc74:	ac400000 	sw	zero,0(v0)
8000cc78:	ac400008 	sw	zero,8(v0)
8000cc7c:	24050001 	li	a1,1
8000cc80:	0c0022f3 	jal	80008bcc <sem_init>
8000cc84:	afa20010 	sw	v0,16(sp)
8000cc88:	8fa20010 	lw	v0,16(sp)
8000cc8c:	00000000 	nop
8000cc90:	8c440004 	lw	a0,4(v0)
8000cc94:	0c002f6e 	jal	8000bdb8 <filemap_init>
8000cc98:	00000000 	nop
8000cc9c:	8fa20010 	lw	v0,16(sp)
8000cca0:	8fbf001c 	lw	ra,28(sp)
8000cca4:	00000000 	nop
8000cca8:	03e00008 	jr	ra
8000ccac:	27bd0020 	addiu	sp,sp,32

8000ccb0 <fs_destroy>:
8000ccb0:	27bdffd8 	addiu	sp,sp,-40
8000ccb4:	afb00014 	sw	s0,20(sp)
8000ccb8:	afbf0024 	sw	ra,36(sp)
8000ccbc:	afb30020 	sw	s3,32(sp)
8000ccc0:	afb2001c 	sw	s2,28(sp)
8000ccc4:	afb10018 	sw	s1,24(sp)
8000ccc8:	10800028 	beqz	a0,8000cd6c <fs_destroy+0xbc>
8000cccc:	00808021 	move	s0,a0
8000ccd0:	8c820008 	lw	v0,8(a0)
8000ccd4:	00000000 	nop
8000ccd8:	14400024 	bnez	v0,8000cd6c <fs_destroy+0xbc>
8000ccdc:	00000000 	nop
8000cce0:	8c840000 	lw	a0,0(a0)
8000cce4:	00000000 	nop
8000cce8:	10800003 	beqz	a0,8000ccf8 <fs_destroy+0x48>
8000ccec:	00000000 	nop
8000ccf0:	0c003793 	jal	8000de4c <inode_ref_dec>
8000ccf4:	00000000 	nop
8000ccf8:	8e110004 	lw	s1,4(s0)
8000ccfc:	24120002 	li	s2,2
8000cd00:	26330fdc 	addiu	s3,s1,4060
8000cd04:	8e220000 	lw	v0,0(s1)
8000cd08:	00000000 	nop
8000cd0c:	1052000c 	beq	v0,s2,8000cd40 <fs_destroy+0x90>
8000cd10:	00000000 	nop
8000cd14:	1440000f 	bnez	v0,8000cd54 <fs_destroy+0xa4>
8000cd18:	2631001c 	addiu	s1,s1,28
8000cd1c:	1633fff9 	bne	s1,s3,8000cd04 <fs_destroy+0x54>
8000cd20:	02002021 	move	a0,s0
8000cd24:	8fbf0024 	lw	ra,36(sp)
8000cd28:	8fb30020 	lw	s3,32(sp)
8000cd2c:	8fb2001c 	lw	s2,28(sp)
8000cd30:	8fb10018 	lw	s1,24(sp)
8000cd34:	8fb00014 	lw	s0,20(sp)
8000cd38:	08001740 	j	80005d00 <kfree>
8000cd3c:	27bd0028 	addiu	sp,sp,40
8000cd40:	0c002fa3 	jal	8000be8c <filemap_close>
8000cd44:	02202021 	move	a0,s1
8000cd48:	8e220000 	lw	v0,0(s1)
8000cd4c:	08003345 	j	8000cd14 <fs_destroy+0x64>
8000cd50:	00000000 	nop
8000cd54:	3c048001 	lui	a0,0x8001
8000cd58:	3c068001 	lui	a2,0x8001
8000cd5c:	24846f54 	addiu	a0,a0,28500
8000cd60:	2405003d 	li	a1,61
8000cd64:	0c0009f2 	jal	800027c8 <__panic>
8000cd68:	24c66fa4 	addiu	a2,a2,28580
8000cd6c:	3c048001 	lui	a0,0x8001
8000cd70:	3c068001 	lui	a2,0x8001
8000cd74:	24846f54 	addiu	a0,a0,28500
8000cd78:	24050033 	li	a1,51
8000cd7c:	0c0009f2 	jal	800027c8 <__panic>
8000cd80:	24c66f64 	addiu	a2,a2,28516

8000cd84 <fs_closeall>:
8000cd84:	27bdffe0 	addiu	sp,sp,-32
8000cd88:	afbf001c 	sw	ra,28(sp)
8000cd8c:	afb20018 	sw	s2,24(sp)
8000cd90:	afb10014 	sw	s1,20(sp)
8000cd94:	1080001b 	beqz	a0,8000ce04 <fs_closeall+0x80>
8000cd98:	afb00010 	sw	s0,16(sp)
8000cd9c:	8c820008 	lw	v0,8(a0)
8000cda0:	00000000 	nop
8000cda4:	18400017 	blez	v0,8000ce04 <fs_closeall+0x80>
8000cda8:	24120002 	li	s2,2
8000cdac:	8c910004 	lw	s1,4(a0)
8000cdb0:	00000000 	nop
8000cdb4:	26300038 	addiu	s0,s1,56
8000cdb8:	08003373 	j	8000cdcc <fs_closeall+0x48>
8000cdbc:	26310fdc 	addiu	s1,s1,4060
8000cdc0:	2610001c 	addiu	s0,s0,28
8000cdc4:	12110009 	beq	s0,s1,8000cdec <fs_closeall+0x68>
8000cdc8:	00000000 	nop
8000cdcc:	8e020000 	lw	v0,0(s0)
8000cdd0:	00000000 	nop
8000cdd4:	1452fffa 	bne	v0,s2,8000cdc0 <fs_closeall+0x3c>
8000cdd8:	02002021 	move	a0,s0
8000cddc:	0c002fa3 	jal	8000be8c <filemap_close>
8000cde0:	2610001c 	addiu	s0,s0,28
8000cde4:	1611fff9 	bne	s0,s1,8000cdcc <fs_closeall+0x48>
8000cde8:	00000000 	nop
8000cdec:	8fbf001c 	lw	ra,28(sp)
8000cdf0:	8fb20018 	lw	s2,24(sp)
8000cdf4:	8fb10014 	lw	s1,20(sp)
8000cdf8:	8fb00010 	lw	s0,16(sp)
8000cdfc:	03e00008 	jr	ra
8000ce00:	27bd0020 	addiu	sp,sp,32
8000ce04:	3c048001 	lui	a0,0x8001
8000ce08:	3c068001 	lui	a2,0x8001
8000ce0c:	24846f54 	addiu	a0,a0,28500
8000ce10:	24050045 	li	a1,69
8000ce14:	0c0009f2 	jal	800027c8 <__panic>
8000ce18:	24c66fd0 	addiu	a2,a2,28624

8000ce1c <dup_fs>:
8000ce1c:	27bdffd0 	addiu	sp,sp,-48
8000ce20:	afb00018 	sw	s0,24(sp)
8000ce24:	afbf002c 	sw	ra,44(sp)
8000ce28:	afb40028 	sw	s4,40(sp)
8000ce2c:	afb30024 	sw	s3,36(sp)
8000ce30:	afb20020 	sw	s2,32(sp)
8000ce34:	afb1001c 	sw	s1,28(sp)
8000ce38:	10800036 	beqz	a0,8000cf14 <dup_fs+0xf8>
8000ce3c:	00808021 	move	s0,a0
8000ce40:	10a00034 	beqz	a1,8000cf14 <dup_fs+0xf8>
8000ce44:	00000000 	nop
8000ce48:	8c820008 	lw	v0,8(a0)
8000ce4c:	00000000 	nop
8000ce50:	1440002b 	bnez	v0,8000cf00 <dup_fs+0xe4>
8000ce54:	3c048001 	lui	a0,0x8001
8000ce58:	8ca20008 	lw	v0,8(a1)
8000ce5c:	00000000 	nop
8000ce60:	18400028 	blez	v0,8000cf04 <dup_fs+0xe8>
8000ce64:	3c068001 	lui	a2,0x8001
8000ce68:	8ca40000 	lw	a0,0(a1)
8000ce6c:	00000000 	nop
8000ce70:	10800005 	beqz	a0,8000ce88 <dup_fs+0x6c>
8000ce74:	ae040000 	sw	a0,0(s0)
8000ce78:	0c0036d4 	jal	8000db50 <inode_ref_inc>
8000ce7c:	afa50010 	sw	a1,16(sp)
8000ce80:	8fa50010 	lw	a1,16(sp)
8000ce84:	00000000 	nop
8000ce88:	8cb10004 	lw	s1,4(a1)
8000ce8c:	24120002 	li	s2,2
8000ce90:	8e220000 	lw	v0,0(s1)
8000ce94:	8e100004 	lw	s0,4(s0)
8000ce98:	26330fdc 	addiu	s3,s1,4060
8000ce9c:	10520008 	beq	v0,s2,8000cec0 <dup_fs+0xa4>
8000cea0:	24140001 	li	s4,1
8000cea4:	2631001c 	addiu	s1,s1,28
8000cea8:	1233000c 	beq	s1,s3,8000cedc <dup_fs+0xc0>
8000ceac:	2610001c 	addiu	s0,s0,28
8000ceb0:	8e220000 	lw	v0,0(s1)
8000ceb4:	00000000 	nop
8000ceb8:	1452fffa 	bne	v0,s2,8000cea4 <dup_fs+0x88>
8000cebc:	00000000 	nop
8000cec0:	ae140000 	sw	s4,0(s0)
8000cec4:	02002021 	move	a0,s0
8000cec8:	02202821 	move	a1,s1
8000cecc:	0c002fdd 	jal	8000bf74 <filemap_dup>
8000ced0:	2631001c 	addiu	s1,s1,28
8000ced4:	1633fff6 	bne	s1,s3,8000ceb0 <dup_fs+0x94>
8000ced8:	2610001c 	addiu	s0,s0,28
8000cedc:	8fbf002c 	lw	ra,44(sp)
8000cee0:	00001021 	move	v0,zero
8000cee4:	8fb40028 	lw	s4,40(sp)
8000cee8:	8fb30024 	lw	s3,36(sp)
8000ceec:	8fb20020 	lw	s2,32(sp)
8000cef0:	8fb1001c 	lw	s1,28(sp)
8000cef4:	8fb00018 	lw	s0,24(sp)
8000cef8:	03e00008 	jr	ra
8000cefc:	27bd0030 	addiu	sp,sp,48
8000cf00:	3c068001 	lui	a2,0x8001
8000cf04:	24846f54 	addiu	a0,a0,28500
8000cf08:	24050054 	li	a1,84
8000cf0c:	0c0009f2 	jal	800027c8 <__panic>
8000cf10:	24c67010 	addiu	a2,a2,28688
8000cf14:	3c048001 	lui	a0,0x8001
8000cf18:	3c068001 	lui	a2,0x8001
8000cf1c:	24846f54 	addiu	a0,a0,28500
8000cf20:	24050053 	li	a1,83
8000cf24:	0c0009f2 	jal	800027c8 <__panic>
8000cf28:	24c65f9c 	addiu	a2,a2,24476

8000cf2c <iobuf_init>:
8000cf2c:	00801021 	move	v0,a0
8000cf30:	ac850000 	sw	a1,0(a0)
8000cf34:	ac870004 	sw	a3,4(a0)
8000cf38:	ac86000c 	sw	a2,12(a0)
8000cf3c:	03e00008 	jr	ra
8000cf40:	ac860008 	sw	a2,8(a0)

8000cf44 <iobuf_skip>:
8000cf44:	8c82000c 	lw	v0,12(a0)
8000cf48:	27bdffe8 	addiu	sp,sp,-24
8000cf4c:	0045182b 	sltu	v1,v0,a1
8000cf50:	1460000c 	bnez	v1,8000cf84 <iobuf_skip+0x40>
8000cf54:	afbf0014 	sw	ra,20(sp)
8000cf58:	8c860000 	lw	a2,0(a0)
8000cf5c:	8c830004 	lw	v1,4(a0)
8000cf60:	8fbf0014 	lw	ra,20(sp)
8000cf64:	00c53021 	addu	a2,a2,a1
8000cf68:	00651821 	addu	v1,v1,a1
8000cf6c:	00451023 	subu	v0,v0,a1
8000cf70:	ac860000 	sw	a2,0(a0)
8000cf74:	ac830004 	sw	v1,4(a0)
8000cf78:	ac82000c 	sw	v0,12(a0)
8000cf7c:	03e00008 	jr	ra
8000cf80:	27bd0018 	addiu	sp,sp,24
8000cf84:	3c048001 	lui	a0,0x8001
8000cf88:	3c068001 	lui	a2,0x8001
8000cf8c:	2484704c 	addiu	a0,a0,28748
8000cf90:	24050036 	li	a1,54
8000cf94:	0c0009f2 	jal	800027c8 <__panic>
8000cf98:	24c6705c 	addiu	a2,a2,28764

8000cf9c <iobuf_move_zeros>:
8000cf9c:	8c82000c 	lw	v0,12(a0)
8000cfa0:	27bdffd8 	addiu	sp,sp,-40
8000cfa4:	0045182b 	sltu	v1,v0,a1
8000cfa8:	afb30020 	sw	s3,32(sp)
8000cfac:	afb2001c 	sw	s2,28(sp)
8000cfb0:	afb10018 	sw	s1,24(sp)
8000cfb4:	afb00014 	sw	s0,20(sp)
8000cfb8:	afbf0024 	sw	ra,36(sp)
8000cfbc:	00809821 	move	s3,a0
8000cfc0:	00a08021 	move	s0,a1
8000cfc4:	00c09021 	move	s2,a2
8000cfc8:	10600002 	beqz	v1,8000cfd4 <iobuf_move_zeros+0x38>
8000cfcc:	00a08821 	move	s1,a1
8000cfd0:	00408821 	move	s1,v0
8000cfd4:	1620000e 	bnez	s1,8000d010 <iobuf_move_zeros+0x74>
8000cfd8:	02203021 	move	a2,s1
8000cfdc:	12400002 	beqz	s2,8000cfe8 <iobuf_move_zeros+0x4c>
8000cfe0:	00000000 	nop
8000cfe4:	ae510000 	sw	s1,0(s2)
8000cfe8:	16000002 	bnez	s0,8000cff4 <iobuf_move_zeros+0x58>
8000cfec:	2402fffc 	li	v0,-4
8000cff0:	00001021 	move	v0,zero
8000cff4:	8fbf0024 	lw	ra,36(sp)
8000cff8:	8fb30020 	lw	s3,32(sp)
8000cffc:	8fb2001c 	lw	s2,28(sp)
8000d000:	8fb10018 	lw	s1,24(sp)
8000d004:	8fb00014 	lw	s0,20(sp)
8000d008:	03e00008 	jr	ra
8000d00c:	27bd0028 	addiu	sp,sp,40
8000d010:	8e640000 	lw	a0,0(s3)
8000d014:	0c00083d 	jal	800020f4 <memset>
8000d018:	00002821 	move	a1,zero
8000d01c:	02602021 	move	a0,s3
8000d020:	0c0033d1 	jal	8000cf44 <iobuf_skip>
8000d024:	02202821 	move	a1,s1
8000d028:	080033f7 	j	8000cfdc <iobuf_move_zeros+0x40>
8000d02c:	02118023 	subu	s0,s0,s1

8000d030 <iobuf_move>:
8000d030:	8c82000c 	lw	v0,12(a0)
8000d034:	27bdffd8 	addiu	sp,sp,-40
8000d038:	0046182b 	sltu	v1,v0,a2
8000d03c:	afb30020 	sw	s3,32(sp)
8000d040:	afb2001c 	sw	s2,28(sp)
8000d044:	afb10018 	sw	s1,24(sp)
8000d048:	afb00014 	sw	s0,20(sp)
8000d04c:	afbf0024 	sw	ra,36(sp)
8000d050:	00808821 	move	s1,a0
8000d054:	00c08021 	move	s0,a2
8000d058:	8fb30038 	lw	s3,56(sp)
8000d05c:	10600002 	beqz	v1,8000d068 <iobuf_move+0x38>
8000d060:	00c09021 	move	s2,a2
8000d064:	00409021 	move	s2,v0
8000d068:	1240000c 	beqz	s2,8000d09c <iobuf_move+0x6c>
8000d06c:	00000000 	nop
8000d070:	8e220000 	lw	v0,0(s1)
8000d074:	14e00016 	bnez	a3,8000d0d0 <iobuf_move+0xa0>
8000d078:	00402021 	move	a0,v0
8000d07c:	00a02021 	move	a0,a1
8000d080:	02403021 	move	a2,s2
8000d084:	0c000852 	jal	80002148 <memmove>
8000d088:	00402821 	move	a1,v0
8000d08c:	02202021 	move	a0,s1
8000d090:	0c0033d1 	jal	8000cf44 <iobuf_skip>
8000d094:	02402821 	move	a1,s2
8000d098:	02128023 	subu	s0,s0,s2
8000d09c:	12600002 	beqz	s3,8000d0a8 <iobuf_move+0x78>
8000d0a0:	00000000 	nop
8000d0a4:	ae720000 	sw	s2,0(s3)
8000d0a8:	16000002 	bnez	s0,8000d0b4 <iobuf_move+0x84>
8000d0ac:	2402fffc 	li	v0,-4
8000d0b0:	00001021 	move	v0,zero
8000d0b4:	8fbf0024 	lw	ra,36(sp)
8000d0b8:	8fb30020 	lw	s3,32(sp)
8000d0bc:	8fb2001c 	lw	s2,28(sp)
8000d0c0:	8fb10018 	lw	s1,24(sp)
8000d0c4:	8fb00014 	lw	s0,20(sp)
8000d0c8:	03e00008 	jr	ra
8000d0cc:	27bd0028 	addiu	sp,sp,40
8000d0d0:	08003420 	j	8000d080 <iobuf_move+0x50>
8000d0d4:	00a01021 	move	v0,a1

8000d0d8 <copy_path>:
8000d0d8:	27bdffd8 	addiu	sp,sp,-40
8000d0dc:	afb3001c 	sw	s3,28(sp)
8000d0e0:	3c13800d 	lui	s3,0x800d
8000d0e4:	8e627d0c 	lw	v0,32012(s3)
8000d0e8:	afb20018 	sw	s2,24(sp)
8000d0ec:	00809021 	move	s2,a0
8000d0f0:	24041000 	li	a0,4096
8000d0f4:	afb40020 	sw	s4,32(sp)
8000d0f8:	afb10014 	sw	s1,20(sp)
8000d0fc:	afb00010 	sw	s0,16(sp)
8000d100:	afbf0024 	sw	ra,36(sp)
8000d104:	8c500018 	lw	s0,24(v0)
8000d108:	0c001716 	jal	80005c58 <kmalloc>
8000d10c:	00a0a021 	move	s4,a1
8000d110:	1040002a 	beqz	v0,8000d1bc <copy_path+0xe4>
8000d114:	00408821 	move	s1,v0
8000d118:	1200000a 	beqz	s0,8000d144 <copy_path+0x6c>
8000d11c:	02002021 	move	a0,s0
8000d120:	0c0022f8 	jal	80008be0 <down>
8000d124:	2604001c 	addiu	a0,s0,28
8000d128:	8e627d0c 	lw	v0,32012(s3)
8000d12c:	00000000 	nop
8000d130:	10400004 	beqz	v0,8000d144 <copy_path+0x6c>
8000d134:	02002021 	move	a0,s0
8000d138:	8c420004 	lw	v0,4(v0)
8000d13c:	00000000 	nop
8000d140:	ae020028 	sw	v0,40(s0)
8000d144:	02202821 	move	a1,s1
8000d148:	02803021 	move	a2,s4
8000d14c:	0c002228 	jal	800088a0 <copy_string>
8000d150:	24071000 	li	a3,4096
8000d154:	10400010 	beqz	v0,8000d198 <copy_path+0xc0>
8000d158:	00000000 	nop
8000d15c:	12000004 	beqz	s0,8000d170 <copy_path+0x98>
8000d160:	00000000 	nop
8000d164:	0c0022f6 	jal	80008bd8 <up>
8000d168:	2604001c 	addiu	a0,s0,28
8000d16c:	ae000028 	sw	zero,40(s0)
8000d170:	ae510000 	sw	s1,0(s2)
8000d174:	00001021 	move	v0,zero
8000d178:	8fbf0024 	lw	ra,36(sp)
8000d17c:	8fb40020 	lw	s4,32(sp)
8000d180:	8fb3001c 	lw	s3,28(sp)
8000d184:	8fb20018 	lw	s2,24(sp)
8000d188:	8fb10014 	lw	s1,20(sp)
8000d18c:	8fb00010 	lw	s0,16(sp)
8000d190:	03e00008 	jr	ra
8000d194:	27bd0028 	addiu	sp,sp,40
8000d198:	12000004 	beqz	s0,8000d1ac <copy_path+0xd4>
8000d19c:	00000000 	nop
8000d1a0:	0c0022f6 	jal	80008bd8 <up>
8000d1a4:	2604001c 	addiu	a0,s0,28
8000d1a8:	ae000028 	sw	zero,40(s0)
8000d1ac:	0c001740 	jal	80005d00 <kfree>
8000d1b0:	02202021 	move	a0,s1
8000d1b4:	0800345e 	j	8000d178 <copy_path+0xa0>
8000d1b8:	2402fffd 	li	v0,-3
8000d1bc:	0800345e 	j	8000d178 <copy_path+0xa0>
8000d1c0:	2402fffc 	li	v0,-4

8000d1c4 <sysfile_open>:
8000d1c4:	27bdffd8 	addiu	sp,sp,-40
8000d1c8:	00801021 	move	v0,a0
8000d1cc:	afb00020 	sw	s0,32(sp)
8000d1d0:	27a40010 	addiu	a0,sp,16
8000d1d4:	00a08021 	move	s0,a1
8000d1d8:	afbf0024 	sw	ra,36(sp)
8000d1dc:	0c003436 	jal	8000d0d8 <copy_path>
8000d1e0:	00402821 	move	a1,v0
8000d1e4:	14400008 	bnez	v0,8000d208 <sysfile_open+0x44>
8000d1e8:	00000000 	nop
8000d1ec:	8fa40010 	lw	a0,16(sp)
8000d1f0:	0c00302d 	jal	8000c0b4 <file_open>
8000d1f4:	02002821 	move	a1,s0
8000d1f8:	8fa40010 	lw	a0,16(sp)
8000d1fc:	0c001740 	jal	80005d00 <kfree>
8000d200:	afa20018 	sw	v0,24(sp)
8000d204:	8fa20018 	lw	v0,24(sp)
8000d208:	8fbf0024 	lw	ra,36(sp)
8000d20c:	8fb00020 	lw	s0,32(sp)
8000d210:	03e00008 	jr	ra
8000d214:	27bd0028 	addiu	sp,sp,40

8000d218 <sysfile_close>:
8000d218:	08003096 	j	8000c258 <file_close>
8000d21c:	00000000 	nop

8000d220 <sysfile_read>:
8000d220:	27bdffb8 	addiu	sp,sp,-72
8000d224:	afb50034 	sw	s5,52(sp)
8000d228:	3c15800d 	lui	s5,0x800d
8000d22c:	8ea27d0c 	lw	v0,32012(s5)
8000d230:	afb7003c 	sw	s7,60(sp)
8000d234:	afb40030 	sw	s4,48(sp)
8000d238:	afb20028 	sw	s2,40(sp)
8000d23c:	afb00020 	sw	s0,32(sp)
8000d240:	afbf0044 	sw	ra,68(sp)
8000d244:	afbe0040 	sw	s8,64(sp)
8000d248:	afb60038 	sw	s6,56(sp)
8000d24c:	afb3002c 	sw	s3,44(sp)
8000d250:	afb10024 	sw	s1,36(sp)
8000d254:	00c08021 	move	s0,a2
8000d258:	0080a021 	move	s4,a0
8000d25c:	8c520018 	lw	s2,24(v0)
8000d260:	14c0000f 	bnez	a2,8000d2a0 <sysfile_read+0x80>
8000d264:	00a0b821 	move	s7,a1
8000d268:	00008821 	move	s1,zero
8000d26c:	8fbf0044 	lw	ra,68(sp)
8000d270:	02201021 	move	v0,s1
8000d274:	8fbe0040 	lw	s8,64(sp)
8000d278:	8fb7003c 	lw	s7,60(sp)
8000d27c:	8fb60038 	lw	s6,56(sp)
8000d280:	8fb50034 	lw	s5,52(sp)
8000d284:	8fb40030 	lw	s4,48(sp)
8000d288:	8fb3002c 	lw	s3,44(sp)
8000d28c:	8fb20028 	lw	s2,40(sp)
8000d290:	8fb10024 	lw	s1,36(sp)
8000d294:	8fb00020 	lw	s0,32(sp)
8000d298:	03e00008 	jr	ra
8000d29c:	27bd0048 	addiu	sp,sp,72
8000d2a0:	24050001 	li	a1,1
8000d2a4:	0c003001 	jal	8000c004 <file_testfd>
8000d2a8:	00003021 	move	a2,zero
8000d2ac:	1040ffef 	beqz	v0,8000d26c <sysfile_read+0x4c>
8000d2b0:	2411fffd 	li	s1,-3
8000d2b4:	0c001716 	jal	80005c58 <kmalloc>
8000d2b8:	24041000 	li	a0,4096
8000d2bc:	10400049 	beqz	v0,8000d3e4 <sysfile_read+0x1c4>
8000d2c0:	00409821 	move	s3,v0
8000d2c4:	2642001c 	addiu	v0,s2,28
8000d2c8:	0000f021 	move	s8,zero
8000d2cc:	24161000 	li	s6,4096
8000d2d0:	afa20018 	sw	v0,24(sp)
8000d2d4:	2e021000 	sltiu	v0,s0,4096
8000d2d8:	10400039 	beqz	v0,8000d3c0 <sysfile_read+0x1a0>
8000d2dc:	afb60010 	sw	s6,16(sp)
8000d2e0:	afb00010 	sw	s0,16(sp)
8000d2e4:	02003021 	move	a2,s0
8000d2e8:	27a70010 	addiu	a3,sp,16
8000d2ec:	02802021 	move	a0,s4
8000d2f0:	0c0030b6 	jal	8000c2d8 <file_read>
8000d2f4:	02602821 	move	a1,s3
8000d2f8:	8fa70010 	lw	a3,16(sp)
8000d2fc:	00000000 	nop
8000d300:	14e0000f 	bnez	a3,8000d340 <sysfile_read+0x120>
8000d304:	00408821 	move	s1,v0
8000d308:	16200007 	bnez	s1,8000d328 <sysfile_read+0x108>
8000d30c:	00000000 	nop
8000d310:	8fa20010 	lw	v0,16(sp)
8000d314:	00000000 	nop
8000d318:	10400003 	beqz	v0,8000d328 <sysfile_read+0x108>
8000d31c:	00000000 	nop
8000d320:	1600ffed 	bnez	s0,8000d2d8 <sysfile_read+0xb8>
8000d324:	2e021000 	sltiu	v0,s0,4096
8000d328:	0c001740 	jal	80005d00 <kfree>
8000d32c:	02602021 	move	a0,s3
8000d330:	13c0ffce 	beqz	s8,8000d26c <sysfile_read+0x4c>
8000d334:	00000000 	nop
8000d338:	0800349b 	j	8000d26c <sysfile_read+0x4c>
8000d33c:	03c08821 	move	s1,s8
8000d340:	1240000c 	beqz	s2,8000d374 <sysfile_read+0x154>
8000d344:	02402021 	move	a0,s2
8000d348:	8fa40018 	lw	a0,24(sp)
8000d34c:	0c0022f8 	jal	80008be0 <down>
8000d350:	00000000 	nop
8000d354:	8ea27d0c 	lw	v0,32012(s5)
8000d358:	00000000 	nop
8000d35c:	1040001e 	beqz	v0,8000d3d8 <sysfile_read+0x1b8>
8000d360:	00000000 	nop
8000d364:	8c420004 	lw	v0,4(v0)
8000d368:	8fa70010 	lw	a3,16(sp)
8000d36c:	ae420028 	sw	v0,40(s2)
8000d370:	02402021 	move	a0,s2
8000d374:	02e02821 	move	a1,s7
8000d378:	0c0021eb 	jal	800087ac <copy_to_user>
8000d37c:	02603021 	move	a2,s3
8000d380:	10400011 	beqz	v0,8000d3c8 <sysfile_read+0x1a8>
8000d384:	00000000 	nop
8000d388:	8fa20010 	lw	v0,16(sp)
8000d38c:	00000000 	nop
8000d390:	0202182b 	sltu	v1,s0,v0
8000d394:	14600015 	bnez	v1,8000d3ec <sysfile_read+0x1cc>
8000d398:	02e2b821 	addu	s7,s7,v0
8000d39c:	02028023 	subu	s0,s0,v0
8000d3a0:	03c2f021 	addu	s8,s8,v0
8000d3a4:	1240ffd8 	beqz	s2,8000d308 <sysfile_read+0xe8>
8000d3a8:	00000000 	nop
8000d3ac:	8fa40018 	lw	a0,24(sp)
8000d3b0:	0c0022f6 	jal	80008bd8 <up>
8000d3b4:	00000000 	nop
8000d3b8:	080034c2 	j	8000d308 <sysfile_read+0xe8>
8000d3bc:	ae400028 	sw	zero,40(s2)
8000d3c0:	080034ba 	j	8000d2e8 <sysfile_read+0xc8>
8000d3c4:	24061000 	li	a2,4096
8000d3c8:	1620fff6 	bnez	s1,8000d3a4 <sysfile_read+0x184>
8000d3cc:	00000000 	nop
8000d3d0:	080034e9 	j	8000d3a4 <sysfile_read+0x184>
8000d3d4:	2411fffd 	li	s1,-3
8000d3d8:	8fa70010 	lw	a3,16(sp)
8000d3dc:	080034dd 	j	8000d374 <sysfile_read+0x154>
8000d3e0:	02402021 	move	a0,s2
8000d3e4:	0800349b 	j	8000d26c <sysfile_read+0x4c>
8000d3e8:	2411fffc 	li	s1,-4
8000d3ec:	3c048001 	lui	a0,0x8001
8000d3f0:	3c068001 	lui	a2,0x8001
8000d3f4:	24847084 	addiu	a0,a0,28804
8000d3f8:	24050052 	li	a1,82
8000d3fc:	0c0009f2 	jal	800027c8 <__panic>
8000d400:	24c67098 	addiu	a2,a2,28824

8000d404 <sysfile_write>:
8000d404:	27bdffb0 	addiu	sp,sp,-80
8000d408:	afb30034 	sw	s3,52(sp)
8000d40c:	3c13800d 	lui	s3,0x800d
8000d410:	8e627d0c 	lw	v0,32012(s3)
8000d414:	afb70044 	sw	s7,68(sp)
8000d418:	afb40038 	sw	s4,56(sp)
8000d41c:	afb1002c 	sw	s1,44(sp)
8000d420:	afb00028 	sw	s0,40(sp)
8000d424:	afbf004c 	sw	ra,76(sp)
8000d428:	afbe0048 	sw	s8,72(sp)
8000d42c:	afb60040 	sw	s6,64(sp)
8000d430:	afb5003c 	sw	s5,60(sp)
8000d434:	afb20030 	sw	s2,48(sp)
8000d438:	00c08821 	move	s1,a2
8000d43c:	0080b821 	move	s7,a0
8000d440:	8c500018 	lw	s0,24(v0)
8000d444:	14c0000e 	bnez	a2,8000d480 <sysfile_write+0x7c>
8000d448:	00a0a021 	move	s4,a1
8000d44c:	00001021 	move	v0,zero
8000d450:	8fbf004c 	lw	ra,76(sp)
8000d454:	8fbe0048 	lw	s8,72(sp)
8000d458:	8fb70044 	lw	s7,68(sp)
8000d45c:	8fb60040 	lw	s6,64(sp)
8000d460:	8fb5003c 	lw	s5,60(sp)
8000d464:	8fb40038 	lw	s4,56(sp)
8000d468:	8fb30034 	lw	s3,52(sp)
8000d46c:	8fb20030 	lw	s2,48(sp)
8000d470:	8fb1002c 	lw	s1,44(sp)
8000d474:	8fb00028 	lw	s0,40(sp)
8000d478:	03e00008 	jr	ra
8000d47c:	27bd0050 	addiu	sp,sp,80
8000d480:	00002821 	move	a1,zero
8000d484:	0c003001 	jal	8000c004 <file_testfd>
8000d488:	24060001 	li	a2,1
8000d48c:	1040fff0 	beqz	v0,8000d450 <sysfile_write+0x4c>
8000d490:	2402fffd 	li	v0,-3
8000d494:	0c001716 	jal	80005c58 <kmalloc>
8000d498:	24041000 	li	a0,4096
8000d49c:	10400040 	beqz	v0,8000d5a0 <sysfile_write+0x19c>
8000d4a0:	00409021 	move	s2,v0
8000d4a4:	0000f021 	move	s8,zero
8000d4a8:	24161000 	li	s6,4096
8000d4ac:	2615001c 	addiu	s5,s0,28
8000d4b0:	2e221000 	sltiu	v0,s1,4096
8000d4b4:	10400002 	beqz	v0,8000d4c0 <sysfile_write+0xbc>
8000d4b8:	afb60018 	sw	s6,24(sp)
8000d4bc:	afb10018 	sw	s1,24(sp)
8000d4c0:	1200000a 	beqz	s0,8000d4ec <sysfile_write+0xe8>
8000d4c4:	00000000 	nop
8000d4c8:	0c0022f8 	jal	80008be0 <down>
8000d4cc:	02a02021 	move	a0,s5
8000d4d0:	8e627d0c 	lw	v0,32012(s3)
8000d4d4:	00000000 	nop
8000d4d8:	10400004 	beqz	v0,8000d4ec <sysfile_write+0xe8>
8000d4dc:	00000000 	nop
8000d4e0:	8c420004 	lw	v0,4(v0)
8000d4e4:	00000000 	nop
8000d4e8:	ae020028 	sw	v0,40(s0)
8000d4ec:	8fa70018 	lw	a3,24(sp)
8000d4f0:	02002021 	move	a0,s0
8000d4f4:	02402821 	move	a1,s2
8000d4f8:	02803021 	move	a2,s4
8000d4fc:	0c002209 	jal	80008824 <copy_from_user>
8000d500:	afa00010 	sw	zero,16(sp)
8000d504:	10400002 	beqz	v0,8000d510 <sysfile_write+0x10c>
8000d508:	2402fffd 	li	v0,-3
8000d50c:	00001021 	move	v0,zero
8000d510:	12000005 	beqz	s0,8000d528 <sysfile_write+0x124>
8000d514:	02a02021 	move	a0,s5
8000d518:	0c0022f6 	jal	80008bd8 <up>
8000d51c:	afa20020 	sw	v0,32(sp)
8000d520:	8fa20020 	lw	v0,32(sp)
8000d524:	ae000028 	sw	zero,40(s0)
8000d528:	10400009 	beqz	v0,8000d550 <sysfile_write+0x14c>
8000d52c:	02e02021 	move	a0,s7
8000d530:	02402021 	move	a0,s2
8000d534:	0c001740 	jal	80005d00 <kfree>
8000d538:	afa20020 	sw	v0,32(sp)
8000d53c:	8fa20020 	lw	v0,32(sp)
8000d540:	13c0ffc3 	beqz	s8,8000d450 <sysfile_write+0x4c>
8000d544:	00000000 	nop
8000d548:	08003514 	j	8000d450 <sysfile_write+0x4c>
8000d54c:	03c01021 	move	v0,s8
8000d550:	8fa60018 	lw	a2,24(sp)
8000d554:	02402821 	move	a1,s2
8000d558:	0c00311c 	jal	8000c470 <file_write>
8000d55c:	27a70018 	addiu	a3,sp,24
8000d560:	8fa30018 	lw	v1,24(sp)
8000d564:	00000000 	nop
8000d568:	10600005 	beqz	v1,8000d580 <sysfile_write+0x17c>
8000d56c:	0223202b 	sltu	a0,s1,v1
8000d570:	1480000d 	bnez	a0,8000d5a8 <sysfile_write+0x1a4>
8000d574:	0283a021 	addu	s4,s4,v1
8000d578:	02238823 	subu	s1,s1,v1
8000d57c:	03c3f021 	addu	s8,s8,v1
8000d580:	1440ffec 	bnez	v0,8000d534 <sysfile_write+0x130>
8000d584:	02402021 	move	a0,s2
8000d588:	1060ffea 	beqz	v1,8000d534 <sysfile_write+0x130>
8000d58c:	00000000 	nop
8000d590:	1620ffc7 	bnez	s1,8000d4b0 <sysfile_write+0xac>
8000d594:	00000000 	nop
8000d598:	0800354d 	j	8000d534 <sysfile_write+0x130>
8000d59c:	00000000 	nop
8000d5a0:	08003514 	j	8000d450 <sysfile_write+0x4c>
8000d5a4:	2402fffc 	li	v0,-4
8000d5a8:	3c048001 	lui	a0,0x8001
8000d5ac:	3c068001 	lui	a2,0x8001
8000d5b0:	24847084 	addiu	a0,a0,28804
8000d5b4:	24050086 	li	a1,134
8000d5b8:	0c0009f2 	jal	800027c8 <__panic>
8000d5bc:	24c67098 	addiu	a2,a2,28824

8000d5c0 <sysfile_seek>:
8000d5c0:	08003182 	j	8000c608 <file_seek>
8000d5c4:	00000000 	nop

8000d5c8 <sysfile_fstat>:
8000d5c8:	27bdffc8 	addiu	sp,sp,-56
8000d5cc:	afb2002c 	sw	s2,44(sp)
8000d5d0:	3c12800d 	lui	s2,0x800d
8000d5d4:	8e427d0c 	lw	v0,32012(s2)
8000d5d8:	afb30030 	sw	s3,48(sp)
8000d5dc:	00a09821 	move	s3,a1
8000d5e0:	afb10028 	sw	s1,40(sp)
8000d5e4:	afb00024 	sw	s0,36(sp)
8000d5e8:	afbf0034 	sw	ra,52(sp)
8000d5ec:	8c500018 	lw	s0,24(v0)
8000d5f0:	0c0031fa 	jal	8000c7e8 <file_fstat>
8000d5f4:	27a50010 	addiu	a1,sp,16
8000d5f8:	10400009 	beqz	v0,8000d620 <sysfile_fstat+0x58>
8000d5fc:	00408821 	move	s1,v0
8000d600:	8fbf0034 	lw	ra,52(sp)
8000d604:	02201021 	move	v0,s1
8000d608:	8fb30030 	lw	s3,48(sp)
8000d60c:	8fb2002c 	lw	s2,44(sp)
8000d610:	8fb10028 	lw	s1,40(sp)
8000d614:	8fb00024 	lw	s0,36(sp)
8000d618:	03e00008 	jr	ra
8000d61c:	27bd0038 	addiu	sp,sp,56
8000d620:	1200000a 	beqz	s0,8000d64c <sysfile_fstat+0x84>
8000d624:	02002021 	move	a0,s0
8000d628:	0c0022f8 	jal	80008be0 <down>
8000d62c:	2604001c 	addiu	a0,s0,28
8000d630:	8e427d0c 	lw	v0,32012(s2)
8000d634:	00000000 	nop
8000d638:	10400004 	beqz	v0,8000d64c <sysfile_fstat+0x84>
8000d63c:	02002021 	move	a0,s0
8000d640:	8c420004 	lw	v0,4(v0)
8000d644:	00000000 	nop
8000d648:	ae020028 	sw	v0,40(s0)
8000d64c:	02602821 	move	a1,s3
8000d650:	27a60010 	addiu	a2,sp,16
8000d654:	0c0021eb 	jal	800087ac <copy_to_user>
8000d658:	24070010 	li	a3,16
8000d65c:	1040000e 	beqz	v0,8000d698 <sysfile_fstat+0xd0>
8000d660:	00000000 	nop
8000d664:	1200ffe6 	beqz	s0,8000d600 <sysfile_fstat+0x38>
8000d668:	00000000 	nop
8000d66c:	0c0022f6 	jal	80008bd8 <up>
8000d670:	2604001c 	addiu	a0,s0,28
8000d674:	8fbf0034 	lw	ra,52(sp)
8000d678:	02201021 	move	v0,s1
8000d67c:	ae000028 	sw	zero,40(s0)
8000d680:	8fb30030 	lw	s3,48(sp)
8000d684:	8fb2002c 	lw	s2,44(sp)
8000d688:	8fb10028 	lw	s1,40(sp)
8000d68c:	8fb00024 	lw	s0,36(sp)
8000d690:	03e00008 	jr	ra
8000d694:	27bd0038 	addiu	sp,sp,56
8000d698:	08003599 	j	8000d664 <sysfile_fstat+0x9c>
8000d69c:	2411fffd 	li	s1,-3

8000d6a0 <sysfile_fsync>:
8000d6a0:	0800323f 	j	8000c8fc <file_fsync>
8000d6a4:	00000000 	nop

8000d6a8 <sysfile_chdir>:
8000d6a8:	27bdffd8 	addiu	sp,sp,-40
8000d6ac:	00802821 	move	a1,a0
8000d6b0:	afbf0024 	sw	ra,36(sp)
8000d6b4:	0c003436 	jal	8000d0d8 <copy_path>
8000d6b8:	27a40010 	addiu	a0,sp,16
8000d6bc:	14400008 	bnez	v0,8000d6e0 <sysfile_chdir+0x38>
8000d6c0:	00000000 	nop
8000d6c4:	8fa40010 	lw	a0,16(sp)
8000d6c8:	0c003c53 	jal	8000f14c <vfs_chdir>
8000d6cc:	00000000 	nop
8000d6d0:	8fa40010 	lw	a0,16(sp)
8000d6d4:	0c001740 	jal	80005d00 <kfree>
8000d6d8:	afa20018 	sw	v0,24(sp)
8000d6dc:	8fa20018 	lw	v0,24(sp)
8000d6e0:	8fbf0024 	lw	ra,36(sp)
8000d6e4:	00000000 	nop
8000d6e8:	03e00008 	jr	ra
8000d6ec:	27bd0028 	addiu	sp,sp,40

8000d6f0 <sysfile_link>:
8000d6f0:	27bdffd8 	addiu	sp,sp,-40
8000d6f4:	00801021 	move	v0,a0
8000d6f8:	afb00020 	sw	s0,32(sp)
8000d6fc:	27a40014 	addiu	a0,sp,20
8000d700:	00a08021 	move	s0,a1
8000d704:	afbf0024 	sw	ra,36(sp)
8000d708:	0c003436 	jal	8000d0d8 <copy_path>
8000d70c:	00402821 	move	a1,v0
8000d710:	10400005 	beqz	v0,8000d728 <sysfile_link+0x38>
8000d714:	27a40010 	addiu	a0,sp,16
8000d718:	8fbf0024 	lw	ra,36(sp)
8000d71c:	8fb00020 	lw	s0,32(sp)
8000d720:	03e00008 	jr	ra
8000d724:	27bd0028 	addiu	sp,sp,40
8000d728:	0c003436 	jal	8000d0d8 <copy_path>
8000d72c:	02002821 	move	a1,s0
8000d730:	8fa40014 	lw	a0,20(sp)
8000d734:	1440000f 	bnez	v0,8000d774 <sysfile_link+0x84>
8000d738:	00000000 	nop
8000d73c:	8fa50010 	lw	a1,16(sp)
8000d740:	0c003b18 	jal	8000ec60 <vfs_link>
8000d744:	00000000 	nop
8000d748:	8fa40014 	lw	a0,20(sp)
8000d74c:	0c001740 	jal	80005d00 <kfree>
8000d750:	afa20018 	sw	v0,24(sp)
8000d754:	8fa40010 	lw	a0,16(sp)
8000d758:	0c001740 	jal	80005d00 <kfree>
8000d75c:	00000000 	nop
8000d760:	8fbf0024 	lw	ra,36(sp)
8000d764:	8fa20018 	lw	v0,24(sp)
8000d768:	8fb00020 	lw	s0,32(sp)
8000d76c:	03e00008 	jr	ra
8000d770:	27bd0028 	addiu	sp,sp,40
8000d774:	0c001740 	jal	80005d00 <kfree>
8000d778:	afa20018 	sw	v0,24(sp)
8000d77c:	8fbf0024 	lw	ra,36(sp)
8000d780:	8fa20018 	lw	v0,24(sp)
8000d784:	8fb00020 	lw	s0,32(sp)
8000d788:	03e00008 	jr	ra
8000d78c:	27bd0028 	addiu	sp,sp,40

8000d790 <sysfile_rename>:
8000d790:	27bdffd8 	addiu	sp,sp,-40
8000d794:	00801021 	move	v0,a0
8000d798:	afb00020 	sw	s0,32(sp)
8000d79c:	27a40014 	addiu	a0,sp,20
8000d7a0:	00a08021 	move	s0,a1
8000d7a4:	afbf0024 	sw	ra,36(sp)
8000d7a8:	0c003436 	jal	8000d0d8 <copy_path>
8000d7ac:	00402821 	move	a1,v0
8000d7b0:	10400005 	beqz	v0,8000d7c8 <sysfile_rename+0x38>
8000d7b4:	27a40010 	addiu	a0,sp,16
8000d7b8:	8fbf0024 	lw	ra,36(sp)
8000d7bc:	8fb00020 	lw	s0,32(sp)
8000d7c0:	03e00008 	jr	ra
8000d7c4:	27bd0028 	addiu	sp,sp,40
8000d7c8:	0c003436 	jal	8000d0d8 <copy_path>
8000d7cc:	02002821 	move	a1,s0
8000d7d0:	8fa40014 	lw	a0,20(sp)
8000d7d4:	1440000f 	bnez	v0,8000d814 <sysfile_rename+0x84>
8000d7d8:	00000000 	nop
8000d7dc:	8fa50010 	lw	a1,16(sp)
8000d7e0:	0c003b16 	jal	8000ec58 <vfs_rename>
8000d7e4:	00000000 	nop
8000d7e8:	8fa40014 	lw	a0,20(sp)
8000d7ec:	0c001740 	jal	80005d00 <kfree>
8000d7f0:	afa20018 	sw	v0,24(sp)
8000d7f4:	8fa40010 	lw	a0,16(sp)
8000d7f8:	0c001740 	jal	80005d00 <kfree>
8000d7fc:	00000000 	nop
8000d800:	8fbf0024 	lw	ra,36(sp)
8000d804:	8fa20018 	lw	v0,24(sp)
8000d808:	8fb00020 	lw	s0,32(sp)
8000d80c:	03e00008 	jr	ra
8000d810:	27bd0028 	addiu	sp,sp,40
8000d814:	0c001740 	jal	80005d00 <kfree>
8000d818:	afa20018 	sw	v0,24(sp)
8000d81c:	8fbf0024 	lw	ra,36(sp)
8000d820:	8fa20018 	lw	v0,24(sp)
8000d824:	8fb00020 	lw	s0,32(sp)
8000d828:	03e00008 	jr	ra
8000d82c:	27bd0028 	addiu	sp,sp,40

8000d830 <sysfile_unlink>:
8000d830:	27bdffd8 	addiu	sp,sp,-40
8000d834:	00802821 	move	a1,a0
8000d838:	afbf0024 	sw	ra,36(sp)
8000d83c:	0c003436 	jal	8000d0d8 <copy_path>
8000d840:	27a40010 	addiu	a0,sp,16
8000d844:	14400008 	bnez	v0,8000d868 <sysfile_unlink+0x38>
8000d848:	00000000 	nop
8000d84c:	8fa40010 	lw	a0,16(sp)
8000d850:	0c003b14 	jal	8000ec50 <vfs_unlink>
8000d854:	00000000 	nop
8000d858:	8fa40010 	lw	a0,16(sp)
8000d85c:	0c001740 	jal	80005d00 <kfree>
8000d860:	afa20018 	sw	v0,24(sp)
8000d864:	8fa20018 	lw	v0,24(sp)
8000d868:	8fbf0024 	lw	ra,36(sp)
8000d86c:	00000000 	nop
8000d870:	03e00008 	jr	ra
8000d874:	27bd0028 	addiu	sp,sp,40

8000d878 <sysfile_getcwd>:
8000d878:	27bdffc0 	addiu	sp,sp,-64
8000d87c:	afb30038 	sw	s3,56(sp)
8000d880:	3c13800d 	lui	s3,0x800d
8000d884:	8e627d0c 	lw	v0,32012(s3)
8000d888:	afb20034 	sw	s2,52(sp)
8000d88c:	afb10030 	sw	s1,48(sp)
8000d890:	afb0002c 	sw	s0,44(sp)
8000d894:	afbf003c 	sw	ra,60(sp)
8000d898:	00a08821 	move	s1,a1
8000d89c:	8c500018 	lw	s0,24(v0)
8000d8a0:	10a00028 	beqz	a1,8000d944 <sysfile_getcwd+0xcc>
8000d8a4:	00809021 	move	s2,a0
8000d8a8:	1200000a 	beqz	s0,8000d8d4 <sysfile_getcwd+0x5c>
8000d8ac:	02002021 	move	a0,s0
8000d8b0:	0c0022f8 	jal	80008be0 <down>
8000d8b4:	2604001c 	addiu	a0,s0,28
8000d8b8:	8e627d0c 	lw	v0,32012(s3)
8000d8bc:	00000000 	nop
8000d8c0:	10400004 	beqz	v0,8000d8d4 <sysfile_getcwd+0x5c>
8000d8c4:	02002021 	move	a0,s0
8000d8c8:	8c420004 	lw	v0,4(v0)
8000d8cc:	00000000 	nop
8000d8d0:	ae020028 	sw	v0,40(s0)
8000d8d4:	02402821 	move	a1,s2
8000d8d8:	02203021 	move	a2,s1
8000d8dc:	0c0021a5 	jal	80008694 <user_mem_check>
8000d8e0:	24070001 	li	a3,1
8000d8e4:	1440000f 	bnez	v0,8000d924 <sysfile_getcwd+0xac>
8000d8e8:	27a40010 	addiu	a0,sp,16
8000d8ec:	2402fffd 	li	v0,-3
8000d8f0:	12000005 	beqz	s0,8000d908 <sysfile_getcwd+0x90>
8000d8f4:	2604001c 	addiu	a0,s0,28
8000d8f8:	0c0022f6 	jal	80008bd8 <up>
8000d8fc:	afa20020 	sw	v0,32(sp)
8000d900:	8fa20020 	lw	v0,32(sp)
8000d904:	ae000028 	sw	zero,40(s0)
8000d908:	8fbf003c 	lw	ra,60(sp)
8000d90c:	8fb30038 	lw	s3,56(sp)
8000d910:	8fb20034 	lw	s2,52(sp)
8000d914:	8fb10030 	lw	s1,48(sp)
8000d918:	8fb0002c 	lw	s0,44(sp)
8000d91c:	03e00008 	jr	ra
8000d920:	27bd0040 	addiu	sp,sp,64
8000d924:	02402821 	move	a1,s2
8000d928:	02203021 	move	a2,s1
8000d92c:	0c0033cb 	jal	8000cf2c <iobuf_init>
8000d930:	00003821 	move	a3,zero
8000d934:	0c003c65 	jal	8000f194 <vfs_getcwd>
8000d938:	00402021 	move	a0,v0
8000d93c:	0800363c 	j	8000d8f0 <sysfile_getcwd+0x78>
8000d940:	00000000 	nop
8000d944:	08003642 	j	8000d908 <sysfile_getcwd+0x90>
8000d948:	2402fffd 	li	v0,-3

8000d94c <sysfile_getdirentry>:
8000d94c:	27bdffc8 	addiu	sp,sp,-56
8000d950:	afb30028 	sw	s3,40(sp)
8000d954:	3c13800d 	lui	s3,0x800d
8000d958:	8e627d0c 	lw	v0,32012(s3)
8000d95c:	afb50030 	sw	s5,48(sp)
8000d960:	0080a821 	move	s5,a0
8000d964:	24040104 	li	a0,260
8000d968:	afb4002c 	sw	s4,44(sp)
8000d96c:	afb10020 	sw	s1,32(sp)
8000d970:	afb0001c 	sw	s0,28(sp)
8000d974:	afbf0034 	sw	ra,52(sp)
8000d978:	afb20024 	sw	s2,36(sp)
8000d97c:	8c500018 	lw	s0,24(v0)
8000d980:	0c001716 	jal	80005c58 <kmalloc>
8000d984:	00a0a021 	move	s4,a1
8000d988:	10400046 	beqz	v0,8000daa4 <sysfile_getdirentry+0x158>
8000d98c:	00408821 	move	s1,v0
8000d990:	1200000b 	beqz	s0,8000d9c0 <sysfile_getdirentry+0x74>
8000d994:	24020001 	li	v0,1
8000d998:	0c0022f8 	jal	80008be0 <down>
8000d99c:	2604001c 	addiu	a0,s0,28
8000d9a0:	8e627d0c 	lw	v0,32012(s3)
8000d9a4:	00000000 	nop
8000d9a8:	10400004 	beqz	v0,8000d9bc <sysfile_getdirentry+0x70>
8000d9ac:	00000000 	nop
8000d9b0:	8c420004 	lw	v0,4(v0)
8000d9b4:	00000000 	nop
8000d9b8:	ae020028 	sw	v0,40(s0)
8000d9bc:	24020001 	li	v0,1
8000d9c0:	02002021 	move	a0,s0
8000d9c4:	02202821 	move	a1,s1
8000d9c8:	02803021 	move	a2,s4
8000d9cc:	24070004 	li	a3,4
8000d9d0:	0c002209 	jal	80008824 <copy_from_user>
8000d9d4:	afa20010 	sw	v0,16(sp)
8000d9d8:	14400002 	bnez	v0,8000d9e4 <sysfile_getdirentry+0x98>
8000d9dc:	00009021 	move	s2,zero
8000d9e0:	2412fffd 	li	s2,-3
8000d9e4:	12000004 	beqz	s0,8000d9f8 <sysfile_getdirentry+0xac>
8000d9e8:	00000000 	nop
8000d9ec:	0c0022f6 	jal	80008bd8 <up>
8000d9f0:	2604001c 	addiu	a0,s0,28
8000d9f4:	ae000028 	sw	zero,40(s0)
8000d9f8:	1240000d 	beqz	s2,8000da30 <sysfile_getdirentry+0xe4>
8000d9fc:	02a02021 	move	a0,s5
8000da00:	0c001740 	jal	80005d00 <kfree>
8000da04:	02202021 	move	a0,s1
8000da08:	8fbf0034 	lw	ra,52(sp)
8000da0c:	02401021 	move	v0,s2
8000da10:	8fb50030 	lw	s5,48(sp)
8000da14:	8fb4002c 	lw	s4,44(sp)
8000da18:	8fb30028 	lw	s3,40(sp)
8000da1c:	8fb20024 	lw	s2,36(sp)
8000da20:	8fb10020 	lw	s1,32(sp)
8000da24:	8fb0001c 	lw	s0,28(sp)
8000da28:	03e00008 	jr	ra
8000da2c:	27bd0038 	addiu	sp,sp,56
8000da30:	0c003280 	jal	8000ca00 <file_getdirentry>
8000da34:	02202821 	move	a1,s1
8000da38:	1440fff1 	bnez	v0,8000da00 <sysfile_getdirentry+0xb4>
8000da3c:	00409021 	move	s2,v0
8000da40:	1200000a 	beqz	s0,8000da6c <sysfile_getdirentry+0x120>
8000da44:	02002021 	move	a0,s0
8000da48:	0c0022f8 	jal	80008be0 <down>
8000da4c:	2604001c 	addiu	a0,s0,28
8000da50:	8e627d0c 	lw	v0,32012(s3)
8000da54:	00000000 	nop
8000da58:	10400004 	beqz	v0,8000da6c <sysfile_getdirentry+0x120>
8000da5c:	02002021 	move	a0,s0
8000da60:	8c420004 	lw	v0,4(v0)
8000da64:	00000000 	nop
8000da68:	ae020028 	sw	v0,40(s0)
8000da6c:	02802821 	move	a1,s4
8000da70:	02203021 	move	a2,s1
8000da74:	0c0021eb 	jal	800087ac <copy_to_user>
8000da78:	24070104 	li	a3,260
8000da7c:	10400007 	beqz	v0,8000da9c <sysfile_getdirentry+0x150>
8000da80:	00000000 	nop
8000da84:	1200ffde 	beqz	s0,8000da00 <sysfile_getdirentry+0xb4>
8000da88:	00000000 	nop
8000da8c:	0c0022f6 	jal	80008bd8 <up>
8000da90:	2604001c 	addiu	a0,s0,28
8000da94:	08003680 	j	8000da00 <sysfile_getdirentry+0xb4>
8000da98:	ae000028 	sw	zero,40(s0)
8000da9c:	080036a1 	j	8000da84 <sysfile_getdirentry+0x138>
8000daa0:	2412fffd 	li	s2,-3
8000daa4:	08003682 	j	8000da08 <sysfile_getdirentry+0xbc>
8000daa8:	2412fffc 	li	s2,-4

8000daac <sysfile_dup>:
8000daac:	080032d7 	j	8000cb5c <file_dup>
8000dab0:	00000000 	nop

8000dab4 <sysfile_pipe>:
8000dab4:	03e00008 	jr	ra
8000dab8:	2402ffec 	li	v0,-20

8000dabc <sysfile_mkfifo>:
8000dabc:	03e00008 	jr	ra
8000dac0:	2402ffec 	li	v0,-20

8000dac4 <__alloc_inode>:
8000dac4:	27bdffe8 	addiu	sp,sp,-24
8000dac8:	afb00010 	sw	s0,16(sp)
8000dacc:	00808021 	move	s0,a0
8000dad0:	afbf0014 	sw	ra,20(sp)
8000dad4:	0c001716 	jal	80005c58 <kmalloc>
8000dad8:	24040040 	li	a0,64
8000dadc:	10400002 	beqz	v0,8000dae8 <__alloc_inode+0x24>
8000dae0:	00000000 	nop
8000dae4:	ac50002c 	sw	s0,44(v0)
8000dae8:	8fbf0014 	lw	ra,20(sp)
8000daec:	8fb00010 	lw	s0,16(sp)
8000daf0:	03e00008 	jr	ra
8000daf4:	27bd0018 	addiu	sp,sp,24

8000daf8 <inode_kill>:
8000daf8:	8c830030 	lw	v1,48(a0)
8000dafc:	27bdffe8 	addiu	sp,sp,-24
8000db00:	14600008 	bnez	v1,8000db24 <inode_kill+0x2c>
8000db04:	afbf0014 	sw	ra,20(sp)
8000db08:	8c820034 	lw	v0,52(a0)
8000db0c:	00000000 	nop
8000db10:	1440000a 	bnez	v0,8000db3c <inode_kill+0x44>
8000db14:	2405002a 	li	a1,42
8000db18:	8fbf0014 	lw	ra,20(sp)
8000db1c:	08001740 	j	80005d00 <kfree>
8000db20:	27bd0018 	addiu	sp,sp,24
8000db24:	3c048001 	lui	a0,0x8001
8000db28:	3c068001 	lui	a2,0x8001
8000db2c:	248470b8 	addiu	a0,a0,28856
8000db30:	24050029 	li	a1,41
8000db34:	0c0009f2 	jal	800027c8 <__panic>
8000db38:	24c670cc 	addiu	a2,a2,28876
8000db3c:	3c048001 	lui	a0,0x8001
8000db40:	3c068001 	lui	a2,0x8001
8000db44:	248470b8 	addiu	a0,a0,28856
8000db48:	0c0009f2 	jal	800027c8 <__panic>
8000db4c:	24c670fc 	addiu	a2,a2,28924

8000db50 <inode_ref_inc>:
8000db50:	27bdffe0 	addiu	sp,sp,-32
8000db54:	afbf001c 	sw	ra,28(sp)
8000db58:	40026000 	mfc0	v0,c0_status
8000db5c:	00000000 	nop
8000db60:	30420001 	andi	v0,v0,0x1
8000db64:	14400008 	bnez	v0,8000db88 <inode_ref_inc+0x38>
8000db68:	00000000 	nop
8000db6c:	8c820030 	lw	v0,48(a0)
8000db70:	8fbf001c 	lw	ra,28(sp)
8000db74:	24420001 	addiu	v0,v0,1
8000db78:	ac820030 	sw	v0,48(a0)
8000db7c:	8c820030 	lw	v0,48(a0)
8000db80:	03e00008 	jr	ra
8000db84:	27bd0020 	addiu	sp,sp,32
8000db88:	0c000b7d 	jal	80002df4 <intr_disable>
8000db8c:	afa40010 	sw	a0,16(sp)
8000db90:	8fa40010 	lw	a0,16(sp)
8000db94:	00000000 	nop
8000db98:	8c820030 	lw	v0,48(a0)
8000db9c:	00000000 	nop
8000dba0:	24420001 	addiu	v0,v0,1
8000dba4:	ac820030 	sw	v0,48(a0)
8000dba8:	0c000b77 	jal	80002ddc <intr_enable>
8000dbac:	00000000 	nop
8000dbb0:	8fa40010 	lw	a0,16(sp)
8000dbb4:	8fbf001c 	lw	ra,28(sp)
8000dbb8:	8c820030 	lw	v0,48(a0)
8000dbbc:	03e00008 	jr	ra
8000dbc0:	27bd0020 	addiu	sp,sp,32

8000dbc4 <inode_init>:
8000dbc4:	ac800030 	sw	zero,48(a0)
8000dbc8:	ac85003c 	sw	a1,60(a0)
8000dbcc:	ac800034 	sw	zero,52(a0)
8000dbd0:	080036d4 	j	8000db50 <inode_ref_inc>
8000dbd4:	ac860038 	sw	a2,56(a0)

8000dbd8 <inode_open_inc>:
8000dbd8:	27bdffe0 	addiu	sp,sp,-32
8000dbdc:	afbf001c 	sw	ra,28(sp)
8000dbe0:	40026000 	mfc0	v0,c0_status
8000dbe4:	00000000 	nop
8000dbe8:	30420001 	andi	v0,v0,0x1
8000dbec:	14400008 	bnez	v0,8000dc10 <inode_open_inc+0x38>
8000dbf0:	00000000 	nop
8000dbf4:	8c820034 	lw	v0,52(a0)
8000dbf8:	8fbf001c 	lw	ra,28(sp)
8000dbfc:	24420001 	addiu	v0,v0,1
8000dc00:	ac820034 	sw	v0,52(a0)
8000dc04:	8c820034 	lw	v0,52(a0)
8000dc08:	03e00008 	jr	ra
8000dc0c:	27bd0020 	addiu	sp,sp,32
8000dc10:	0c000b7d 	jal	80002df4 <intr_disable>
8000dc14:	afa40010 	sw	a0,16(sp)
8000dc18:	8fa40010 	lw	a0,16(sp)
8000dc1c:	00000000 	nop
8000dc20:	8c820034 	lw	v0,52(a0)
8000dc24:	00000000 	nop
8000dc28:	24420001 	addiu	v0,v0,1
8000dc2c:	ac820034 	sw	v0,52(a0)
8000dc30:	0c000b77 	jal	80002ddc <intr_enable>
8000dc34:	00000000 	nop
8000dc38:	8fa40010 	lw	a0,16(sp)
8000dc3c:	8fbf001c 	lw	ra,28(sp)
8000dc40:	8c820034 	lw	v0,52(a0)
8000dc44:	03e00008 	jr	ra
8000dc48:	27bd0020 	addiu	sp,sp,32

8000dc4c <inode_check>:
8000dc4c:	27bdffe8 	addiu	sp,sp,-24
8000dc50:	1080001b 	beqz	a0,8000dcc0 <inode_check+0x74>
8000dc54:	afbf0014 	sw	ra,20(sp)
8000dc58:	8c82003c 	lw	v0,60(a0)
8000dc5c:	00000000 	nop
8000dc60:	10400017 	beqz	v0,8000dcc0 <inode_check+0x74>
8000dc64:	00000000 	nop
8000dc68:	8c430000 	lw	v1,0(v0)
8000dc6c:	3c028c4b 	lui	v0,0x8c4b
8000dc70:	3442a476 	ori	v0,v0,0xa476
8000dc74:	14620024 	bne	v1,v0,8000dd08 <inode_check+0xbc>
8000dc78:	3c068001 	lui	a2,0x8001
8000dc7c:	8c830030 	lw	v1,48(a0)
8000dc80:	8c820034 	lw	v0,52(a0)
8000dc84:	00000000 	nop
8000dc88:	0062202a 	slt	a0,v1,v0
8000dc8c:	14800019 	bnez	a0,8000dcf4 <inode_check+0xa8>
8000dc90:	3c048001 	lui	a0,0x8001
8000dc94:	04400016 	bltz	v0,8000dcf0 <inode_check+0xa4>
8000dc98:	3c040001 	lui	a0,0x1
8000dc9c:	0064182a 	slt	v1,v1,a0
8000dca0:	1060000d 	beqz	v1,8000dcd8 <inode_check+0x8c>
8000dca4:	0044102a 	slt	v0,v0,a0
8000dca8:	1040000b 	beqz	v0,8000dcd8 <inode_check+0x8c>
8000dcac:	00000000 	nop
8000dcb0:	8fbf0014 	lw	ra,20(sp)
8000dcb4:	00000000 	nop
8000dcb8:	03e00008 	jr	ra
8000dcbc:	27bd0018 	addiu	sp,sp,24
8000dcc0:	3c048001 	lui	a0,0x8001
8000dcc4:	3c068001 	lui	a2,0x8001
8000dcc8:	248470b8 	addiu	a0,a0,28856
8000dccc:	24050068 	li	a1,104
8000dcd0:	0c0009f2 	jal	800027c8 <__panic>
8000dcd4:	24c6712c 	addiu	a2,a2,28972
8000dcd8:	3c048001 	lui	a0,0x8001
8000dcdc:	3c068001 	lui	a2,0x8001
8000dce0:	248470b8 	addiu	a0,a0,28856
8000dce4:	2405006c 	li	a1,108
8000dce8:	0c0009f2 	jal	800027c8 <__panic>
8000dcec:	24c671dc 	addiu	a2,a2,29148
8000dcf0:	3c048001 	lui	a0,0x8001
8000dcf4:	3c068001 	lui	a2,0x8001
8000dcf8:	248470b8 	addiu	a0,a0,28856
8000dcfc:	2405006b 	li	a1,107
8000dd00:	0c0009f2 	jal	800027c8 <__panic>
8000dd04:	24c6719c 	addiu	a2,a2,29084
8000dd08:	3c048001 	lui	a0,0x8001
8000dd0c:	248470b8 	addiu	a0,a0,28856
8000dd10:	24050069 	li	a1,105
8000dd14:	0c0009f2 	jal	800027c8 <__panic>
8000dd18:	24c67164 	addiu	a2,a2,29028

8000dd1c <inode_open_dec>:
8000dd1c:	8c820034 	lw	v0,52(a0)
8000dd20:	27bdffe0 	addiu	sp,sp,-32
8000dd24:	afb10018 	sw	s1,24(sp)
8000dd28:	afbf001c 	sw	ra,28(sp)
8000dd2c:	afb00014 	sw	s0,20(sp)
8000dd30:	18400040 	blez	v0,8000de34 <inode_open_dec+0x118>
8000dd34:	00808821 	move	s1,a0
8000dd38:	40026000 	mfc0	v0,c0_status
8000dd3c:	00000000 	nop
8000dd40:	30420001 	andi	v0,v0,0x1
8000dd44:	1440002c 	bnez	v0,8000ddf8 <inode_open_dec+0xdc>
8000dd48:	00000000 	nop
8000dd4c:	8c820034 	lw	v0,52(a0)
8000dd50:	00000000 	nop
8000dd54:	2442ffff 	addiu	v0,v0,-1
8000dd58:	ac820034 	sw	v0,52(a0)
8000dd5c:	8e300034 	lw	s0,52(s1)
8000dd60:	00000000 	nop
8000dd64:	16000014 	bnez	s0,8000ddb8 <inode_open_dec+0x9c>
8000dd68:	00000000 	nop
8000dd6c:	8e22003c 	lw	v0,60(s1)
8000dd70:	00000000 	nop
8000dd74:	1040002a 	beqz	v0,8000de20 <inode_open_dec+0x104>
8000dd78:	3c048001 	lui	a0,0x8001
8000dd7c:	8c420008 	lw	v0,8(v0)
8000dd80:	00000000 	nop
8000dd84:	10400026 	beqz	v0,8000de20 <inode_open_dec+0x104>
8000dd88:	3c058001 	lui	a1,0x8001
8000dd8c:	02202021 	move	a0,s1
8000dd90:	0c003713 	jal	8000dc4c <inode_check>
8000dd94:	24a572bc 	addiu	a1,a1,29372
8000dd98:	8e22003c 	lw	v0,60(s1)
8000dd9c:	00000000 	nop
8000dda0:	8c420008 	lw	v0,8(v0)
8000dda4:	00000000 	nop
8000dda8:	0040f809 	jalr	v0
8000ddac:	02202021 	move	a0,s1
8000ddb0:	14400007 	bnez	v0,8000ddd0 <inode_open_dec+0xb4>
8000ddb4:	00000000 	nop
8000ddb8:	8fbf001c 	lw	ra,28(sp)
8000ddbc:	02001021 	move	v0,s0
8000ddc0:	8fb10018 	lw	s1,24(sp)
8000ddc4:	8fb00014 	lw	s0,20(sp)
8000ddc8:	03e00008 	jr	ra
8000ddcc:	27bd0020 	addiu	sp,sp,32
8000ddd0:	3c048001 	lui	a0,0x8001
8000ddd4:	248472c4 	addiu	a0,a0,29380
8000ddd8:	0c000727 	jal	80001c9c <kprintf>
8000dddc:	00402821 	move	a1,v0
8000dde0:	8fbf001c 	lw	ra,28(sp)
8000dde4:	02001021 	move	v0,s0
8000dde8:	8fb10018 	lw	s1,24(sp)
8000ddec:	8fb00014 	lw	s0,20(sp)
8000ddf0:	03e00008 	jr	ra
8000ddf4:	27bd0020 	addiu	sp,sp,32
8000ddf8:	0c000b7d 	jal	80002df4 <intr_disable>
8000ddfc:	00000000 	nop
8000de00:	8e220034 	lw	v0,52(s1)
8000de04:	00000000 	nop
8000de08:	2442ffff 	addiu	v0,v0,-1
8000de0c:	ae220034 	sw	v0,52(s1)
8000de10:	0c000b77 	jal	80002ddc <intr_enable>
8000de14:	00000000 	nop
8000de18:	08003757 	j	8000dd5c <inode_open_dec+0x40>
8000de1c:	00000000 	nop
8000de20:	3c068001 	lui	a2,0x8001
8000de24:	248470b8 	addiu	a0,a0,28856
8000de28:	2405005b 	li	a1,91
8000de2c:	0c0009f2 	jal	800027c8 <__panic>
8000de30:	24c6725c 	addiu	a2,a2,29276
8000de34:	3c048001 	lui	a0,0x8001
8000de38:	3c068001 	lui	a2,0x8001
8000de3c:	248470b8 	addiu	a0,a0,28856
8000de40:	24050058 	li	a1,88
8000de44:	0c0009f2 	jal	800027c8 <__panic>
8000de48:	24c6722c 	addiu	a2,a2,29228

8000de4c <inode_ref_dec>:
8000de4c:	8c820030 	lw	v0,48(a0)
8000de50:	27bdffe0 	addiu	sp,sp,-32
8000de54:	afb10018 	sw	s1,24(sp)
8000de58:	afbf001c 	sw	ra,28(sp)
8000de5c:	afb00014 	sw	s0,20(sp)
8000de60:	1840003b 	blez	v0,8000df50 <inode_ref_dec+0x104>
8000de64:	00808821 	move	s1,a0
8000de68:	40026000 	mfc0	v0,c0_status
8000de6c:	00000000 	nop
8000de70:	30420001 	andi	v0,v0,0x1
8000de74:	14400027 	bnez	v0,8000df14 <inode_ref_dec+0xc8>
8000de78:	00000000 	nop
8000de7c:	8c820030 	lw	v0,48(a0)
8000de80:	00000000 	nop
8000de84:	2442ffff 	addiu	v0,v0,-1
8000de88:	ac820030 	sw	v0,48(a0)
8000de8c:	8e300030 	lw	s0,48(s1)
8000de90:	00000000 	nop
8000de94:	16000019 	bnez	s0,8000defc <inode_ref_dec+0xb0>
8000de98:	00000000 	nop
8000de9c:	8e22003c 	lw	v0,60(s1)
8000dea0:	00000000 	nop
8000dea4:	10400025 	beqz	v0,8000df3c <inode_ref_dec+0xf0>
8000dea8:	3c048001 	lui	a0,0x8001
8000deac:	8c420024 	lw	v0,36(v0)
8000deb0:	00000000 	nop
8000deb4:	10400021 	beqz	v0,8000df3c <inode_ref_dec+0xf0>
8000deb8:	3c058001 	lui	a1,0x8001
8000debc:	02202021 	move	a0,s1
8000dec0:	0c003713 	jal	8000dc4c <inode_check>
8000dec4:	24a57374 	addiu	a1,a1,29556
8000dec8:	8e22003c 	lw	v0,60(s1)
8000decc:	00000000 	nop
8000ded0:	8c420024 	lw	v0,36(v0)
8000ded4:	00000000 	nop
8000ded8:	0040f809 	jalr	v0
8000dedc:	02202021 	move	a0,s1
8000dee0:	10400006 	beqz	v0,8000defc <inode_ref_dec+0xb0>
8000dee4:	2403fff1 	li	v1,-15
8000dee8:	10430004 	beq	v0,v1,8000defc <inode_ref_dec+0xb0>
8000deec:	3c048001 	lui	a0,0x8001
8000def0:	2484737c 	addiu	a0,a0,29564
8000def4:	0c000727 	jal	80001c9c <kprintf>
8000def8:	00402821 	move	a1,v0
8000defc:	8fbf001c 	lw	ra,28(sp)
8000df00:	02001021 	move	v0,s0
8000df04:	8fb10018 	lw	s1,24(sp)
8000df08:	8fb00014 	lw	s0,20(sp)
8000df0c:	03e00008 	jr	ra
8000df10:	27bd0020 	addiu	sp,sp,32
8000df14:	0c000b7d 	jal	80002df4 <intr_disable>
8000df18:	00000000 	nop
8000df1c:	8e220030 	lw	v0,48(s1)
8000df20:	00000000 	nop
8000df24:	2442ffff 	addiu	v0,v0,-1
8000df28:	ae220030 	sw	v0,48(s1)
8000df2c:	0c000b77 	jal	80002ddc <intr_enable>
8000df30:	00000000 	nop
8000df34:	080037a3 	j	8000de8c <inode_ref_dec+0x40>
8000df38:	00000000 	nop
8000df3c:	3c068001 	lui	a2,0x8001
8000df40:	248470b8 	addiu	a0,a0,28856
8000df44:	24050041 	li	a1,65
8000df48:	0c0009f2 	jal	800027c8 <__panic>
8000df4c:	24c67310 	addiu	a2,a2,29456
8000df50:	3c048001 	lui	a0,0x8001
8000df54:	3c068001 	lui	a2,0x8001
8000df58:	248470b8 	addiu	a0,a0,28856
8000df5c:	2405003e 	li	a1,62
8000df60:	0c0009f2 	jal	800027c8 <__panic>
8000df64:	24c672e4 	addiu	a2,a2,29412

8000df68 <__alloc_fs>:
8000df68:	27bdffe8 	addiu	sp,sp,-24
8000df6c:	afb00010 	sw	s0,16(sp)
8000df70:	00808021 	move	s0,a0
8000df74:	afbf0014 	sw	ra,20(sp)
8000df78:	0c001716 	jal	80005c58 <kmalloc>
8000df7c:	24040080 	li	a0,128
8000df80:	10400002 	beqz	v0,8000df8c <__alloc_fs+0x24>
8000df84:	00000000 	nop
8000df88:	ac50006c 	sw	s0,108(v0)
8000df8c:	8fbf0014 	lw	ra,20(sp)
8000df90:	8fb00010 	lw	s0,16(sp)
8000df94:	03e00008 	jr	ra
8000df98:	27bd0018 	addiu	sp,sp,24

8000df9c <vfs_init>:
8000df9c:	3c04800e 	lui	a0,0x800e
8000dfa0:	27bdffe8 	addiu	sp,sp,-24
8000dfa4:	24849d5c 	addiu	a0,a0,-25252
8000dfa8:	afbf0014 	sw	ra,20(sp)
8000dfac:	0c0022f3 	jal	80008bcc <sem_init>
8000dfb0:	24050001 	li	a1,1
8000dfb4:	8fbf0014 	lw	ra,20(sp)
8000dfb8:	080038e7 	j	8000e39c <vfs_devlist_init>
8000dfbc:	27bd0018 	addiu	sp,sp,24

8000dfc0 <vfs_set_bootfs>:
8000dfc0:	27bdffd8 	addiu	sp,sp,-40
8000dfc4:	afb00018 	sw	s0,24(sp)
8000dfc8:	afbf0024 	sw	ra,36(sp)
8000dfcc:	afb20020 	sw	s2,32(sp)
8000dfd0:	afb1001c 	sw	s1,28(sp)
8000dfd4:	00808021 	move	s0,a0
8000dfd8:	1080002b 	beqz	a0,8000e088 <vfs_set_bootfs+0xc8>
8000dfdc:	afa00010 	sw	zero,16(sp)
8000dfe0:	0c000816 	jal	80002058 <strchr>
8000dfe4:	2405003a 	li	a1,58
8000dfe8:	10400029 	beqz	v0,8000e090 <vfs_set_bootfs+0xd0>
8000dfec:	00000000 	nop
8000dff0:	90420001 	lbu	v0,1(v0)
8000dff4:	00000000 	nop
8000dff8:	14400005 	bnez	v0,8000e010 <vfs_set_bootfs+0x50>
8000dffc:	2402fffd 	li	v0,-3
8000e000:	0c003c53 	jal	8000f14c <vfs_chdir>
8000e004:	02002021 	move	a0,s0
8000e008:	10400007 	beqz	v0,8000e028 <vfs_set_bootfs+0x68>
8000e00c:	00000000 	nop
8000e010:	8fbf0024 	lw	ra,36(sp)
8000e014:	8fb20020 	lw	s2,32(sp)
8000e018:	8fb1001c 	lw	s1,28(sp)
8000e01c:	8fb00018 	lw	s0,24(sp)
8000e020:	03e00008 	jr	ra
8000e024:	27bd0028 	addiu	sp,sp,40
8000e028:	0c003bd2 	jal	8000ef48 <vfs_get_curdir>
8000e02c:	27a40010 	addiu	a0,sp,16
8000e030:	1440fff7 	bnez	v0,8000e010 <vfs_set_bootfs+0x50>
8000e034:	00000000 	nop
8000e038:	8fb20010 	lw	s2,16(sp)
8000e03c:	3c10800e 	lui	s0,0x800e
8000e040:	0c0022f8 	jal	80008be0 <down>
8000e044:	26049d5c 	addiu	a0,s0,-25252
8000e048:	3c02800e 	lui	v0,0x800e
8000e04c:	8c519d68 	lw	s1,-25240(v0)
8000e050:	26049d5c 	addiu	a0,s0,-25252
8000e054:	0c0022f6 	jal	80008bd8 <up>
8000e058:	ac529d68 	sw	s2,-25240(v0)
8000e05c:	1220ffec 	beqz	s1,8000e010 <vfs_set_bootfs+0x50>
8000e060:	00001021 	move	v0,zero
8000e064:	0c003793 	jal	8000de4c <inode_ref_dec>
8000e068:	02202021 	move	a0,s1
8000e06c:	8fbf0024 	lw	ra,36(sp)
8000e070:	00001021 	move	v0,zero
8000e074:	8fb20020 	lw	s2,32(sp)
8000e078:	8fb1001c 	lw	s1,28(sp)
8000e07c:	8fb00018 	lw	s0,24(sp)
8000e080:	03e00008 	jr	ra
8000e084:	27bd0028 	addiu	sp,sp,40
8000e088:	0800380f 	j	8000e03c <vfs_set_bootfs+0x7c>
8000e08c:	00009021 	move	s2,zero
8000e090:	08003804 	j	8000e010 <vfs_set_bootfs+0x50>
8000e094:	2402fffd 	li	v0,-3

8000e098 <vfs_get_bootfs>:
8000e098:	27bdffe0 	addiu	sp,sp,-32
8000e09c:	afb00010 	sw	s0,16(sp)
8000e0a0:	3c10800e 	lui	s0,0x800e
8000e0a4:	8e029d68 	lw	v0,-25240(s0)
8000e0a8:	afb20018 	sw	s2,24(sp)
8000e0ac:	afbf001c 	sw	ra,28(sp)
8000e0b0:	afb10014 	sw	s1,20(sp)
8000e0b4:	1040001d 	beqz	v0,8000e12c <vfs_get_bootfs+0x94>
8000e0b8:	00809021 	move	s2,a0
8000e0bc:	3c11800e 	lui	s1,0x800e
8000e0c0:	0c0022f8 	jal	80008be0 <down>
8000e0c4:	26249d5c 	addiu	a0,s1,-25252
8000e0c8:	8e109d68 	lw	s0,-25240(s0)
8000e0cc:	00000000 	nop
8000e0d0:	1200000d 	beqz	s0,8000e108 <vfs_get_bootfs+0x70>
8000e0d4:	00000000 	nop
8000e0d8:	0c0036d4 	jal	8000db50 <inode_ref_inc>
8000e0dc:	02002021 	move	a0,s0
8000e0e0:	0c0022f6 	jal	80008bd8 <up>
8000e0e4:	26249d5c 	addiu	a0,s1,-25252
8000e0e8:	8fbf001c 	lw	ra,28(sp)
8000e0ec:	ae500000 	sw	s0,0(s2)
8000e0f0:	00001021 	move	v0,zero
8000e0f4:	8fb20018 	lw	s2,24(sp)
8000e0f8:	8fb10014 	lw	s1,20(sp)
8000e0fc:	8fb00010 	lw	s0,16(sp)
8000e100:	03e00008 	jr	ra
8000e104:	27bd0020 	addiu	sp,sp,32
8000e108:	0c0022f6 	jal	80008bd8 <up>
8000e10c:	26249d5c 	addiu	a0,s1,-25252
8000e110:	8fbf001c 	lw	ra,28(sp)
8000e114:	2402fff0 	li	v0,-16
8000e118:	8fb20018 	lw	s2,24(sp)
8000e11c:	8fb10014 	lw	s1,20(sp)
8000e120:	8fb00010 	lw	s0,16(sp)
8000e124:	03e00008 	jr	ra
8000e128:	27bd0020 	addiu	sp,sp,32
8000e12c:	8fbf001c 	lw	ra,28(sp)
8000e130:	2402fff0 	li	v0,-16
8000e134:	8fb20018 	lw	s2,24(sp)
8000e138:	8fb10014 	lw	s1,20(sp)
8000e13c:	8fb00010 	lw	s0,16(sp)
8000e140:	03e00008 	jr	ra
8000e144:	27bd0020 	addiu	sp,sp,32

8000e148 <lock_vdev_list>:
8000e148:	3c04800e 	lui	a0,0x800e
8000e14c:	080022f8 	j	80008be0 <down>
8000e150:	24849d74 	addiu	a0,a0,-25228

8000e154 <unlock_vdev_list>:
8000e154:	3c04800e 	lui	a0,0x800e
8000e158:	080022f6 	j	80008bd8 <up>
8000e15c:	24849d74 	addiu	a0,a0,-25228

8000e160 <vfs_do_add>:
8000e160:	27bdffc8 	addiu	sp,sp,-56
8000e164:	afb60030 	sw	s6,48(sp)
8000e168:	afb20020 	sw	s2,32(sp)
8000e16c:	afb1001c 	sw	s1,28(sp)
8000e170:	afb00018 	sw	s0,24(sp)
8000e174:	afbf0034 	sw	ra,52(sp)
8000e178:	afb5002c 	sw	s5,44(sp)
8000e17c:	afb40028 	sw	s4,40(sp)
8000e180:	afb30024 	sw	s3,36(sp)
8000e184:	00808021 	move	s0,a0
8000e188:	00a08821 	move	s1,a1
8000e18c:	00c09021 	move	s2,a2
8000e190:	1080004b 	beqz	a0,8000e2c0 <vfs_do_add+0x160>
8000e194:	00e0b021 	move	s6,a3
8000e198:	10a0003e 	beqz	a1,8000e294 <vfs_do_add+0x134>
8000e19c:	24021234 	li	v0,4660
8000e1a0:	8ca3002c 	lw	v1,44(a1)
8000e1a4:	00000000 	nop
8000e1a8:	1462003c 	bne	v1,v0,8000e29c <vfs_do_add+0x13c>
8000e1ac:	3c048001 	lui	a0,0x8001
8000e1b0:	0c0007b2 	jal	80001ec8 <strlen>
8000e1b4:	02002021 	move	a0,s0
8000e1b8:	2c420020 	sltiu	v0,v0,32
8000e1bc:	1040001f 	beqz	v0,8000e23c <vfs_do_add+0xdc>
8000e1c0:	2402fff4 	li	v0,-12
8000e1c4:	0c000886 	jal	80002218 <strdup>
8000e1c8:	02002021 	move	a0,s0
8000e1cc:	1040003a 	beqz	v0,8000e2b8 <vfs_do_add+0x158>
8000e1d0:	00409821 	move	s3,v0
8000e1d4:	0c001716 	jal	80005c58 <kmalloc>
8000e1d8:	24040018 	li	a0,24
8000e1dc:	10400034 	beqz	v0,8000e2b0 <vfs_do_add+0x150>
8000e1e0:	0040a821 	move	s5,v0
8000e1e4:	3c14800e 	lui	s4,0x800e
8000e1e8:	0c003852 	jal	8000e148 <lock_vdev_list>
8000e1ec:	26949d6c 	addiu	s4,s4,-25236
8000e1f0:	02808021 	move	s0,s4
8000e1f4:	8e100004 	lw	s0,4(s0)
8000e1f8:	00000000 	nop
8000e1fc:	12140019 	beq	s0,s4,8000e264 <vfs_do_add+0x104>
8000e200:	26a30010 	addiu	v1,s5,16
8000e204:	8e04fff0 	lw	a0,-16(s0)
8000e208:	0c0007eb 	jal	80001fac <strcmp>
8000e20c:	02602821 	move	a1,s3
8000e210:	1440fff8 	bnez	v0,8000e1f4 <vfs_do_add+0x94>
8000e214:	00000000 	nop
8000e218:	0c003855 	jal	8000e154 <unlock_vdev_list>
8000e21c:	00000000 	nop
8000e220:	0c001740 	jal	80005d00 <kfree>
8000e224:	02a02021 	move	a0,s5
8000e228:	2402ffe9 	li	v0,-23
8000e22c:	02602021 	move	a0,s3
8000e230:	0c001740 	jal	80005d00 <kfree>
8000e234:	afa20010 	sw	v0,16(sp)
8000e238:	8fa20010 	lw	v0,16(sp)
8000e23c:	8fbf0034 	lw	ra,52(sp)
8000e240:	8fb60030 	lw	s6,48(sp)
8000e244:	8fb5002c 	lw	s5,44(sp)
8000e248:	8fb40028 	lw	s4,40(sp)
8000e24c:	8fb30024 	lw	s3,36(sp)
8000e250:	8fb20020 	lw	s2,32(sp)
8000e254:	8fb1001c 	lw	s1,28(sp)
8000e258:	8fb00018 	lw	s0,24(sp)
8000e25c:	03e00008 	jr	ra
8000e260:	27bd0038 	addiu	sp,sp,56
8000e264:	8e020004 	lw	v0,4(s0)
8000e268:	aeb30000 	sw	s3,0(s5)
8000e26c:	aeb10004 	sw	s1,4(s5)
8000e270:	aeb6000c 	sw	s6,12(s5)
8000e274:	aeb20008 	sw	s2,8(s5)
8000e278:	aea20014 	sw	v0,20(s5)
8000e27c:	ac430000 	sw	v1,0(v0)
8000e280:	ae030004 	sw	v1,4(s0)
8000e284:	0c003855 	jal	8000e154 <unlock_vdev_list>
8000e288:	aeb00010 	sw	s0,16(s5)
8000e28c:	0800388f 	j	8000e23c <vfs_do_add+0xdc>
8000e290:	00001021 	move	v0,zero
8000e294:	10e0ffc6 	beqz	a3,8000e1b0 <vfs_do_add+0x50>
8000e298:	3c048001 	lui	a0,0x8001
8000e29c:	3c068001 	lui	a2,0x8001
8000e2a0:	2484739c 	addiu	a0,a0,29596
8000e2a4:	2405007b 	li	a1,123
8000e2a8:	0c0009f2 	jal	800027c8 <__panic>
8000e2ac:	24c673d8 	addiu	a2,a2,29656
8000e2b0:	0800388b 	j	8000e22c <vfs_do_add+0xcc>
8000e2b4:	2402fffc 	li	v0,-4
8000e2b8:	0800388f 	j	8000e23c <vfs_do_add+0xdc>
8000e2bc:	2402fffc 	li	v0,-4
8000e2c0:	3c048001 	lui	a0,0x8001
8000e2c4:	3c068001 	lui	a2,0x8001
8000e2c8:	2484739c 	addiu	a0,a0,29596
8000e2cc:	2405007a 	li	a1,122
8000e2d0:	0c0009f2 	jal	800027c8 <__panic>
8000e2d4:	24c673b4 	addiu	a2,a2,29620

8000e2d8 <find_mount>:
8000e2d8:	27bdffd8 	addiu	sp,sp,-40
8000e2dc:	afb40020 	sw	s4,32(sp)
8000e2e0:	afb3001c 	sw	s3,28(sp)
8000e2e4:	afbf0024 	sw	ra,36(sp)
8000e2e8:	afb20018 	sw	s2,24(sp)
8000e2ec:	afb10014 	sw	s1,20(sp)
8000e2f0:	afb00010 	sw	s0,16(sp)
8000e2f4:	00809821 	move	s3,a0
8000e2f8:	10800022 	beqz	a0,8000e384 <find_mount+0xac>
8000e2fc:	00a0a021 	move	s4,a1
8000e300:	3c11800e 	lui	s1,0x800e
8000e304:	26319d6c 	addiu	s1,s1,-25236
8000e308:	02208021 	move	s0,s1
8000e30c:	8e100004 	lw	s0,4(s0)
8000e310:	00000000 	nop
8000e314:	12110013 	beq	s0,s1,8000e364 <find_mount+0x8c>
8000e318:	2402fff3 	li	v0,-13
8000e31c:	8e02fffc 	lw	v0,-4(s0)
8000e320:	00000000 	nop
8000e324:	1040fff9 	beqz	v0,8000e30c <find_mount+0x34>
8000e328:	2612fff0 	addiu	s2,s0,-16
8000e32c:	8e04fff0 	lw	a0,-16(s0)
8000e330:	0c0007eb 	jal	80001fac <strcmp>
8000e334:	02602821 	move	a1,s3
8000e338:	1440fff4 	bnez	v0,8000e30c <find_mount+0x34>
8000e33c:	00000000 	nop
8000e340:	8fbf0024 	lw	ra,36(sp)
8000e344:	ae920000 	sw	s2,0(s4)
8000e348:	8fb3001c 	lw	s3,28(sp)
8000e34c:	8fb40020 	lw	s4,32(sp)
8000e350:	8fb20018 	lw	s2,24(sp)
8000e354:	8fb10014 	lw	s1,20(sp)
8000e358:	8fb00010 	lw	s0,16(sp)
8000e35c:	03e00008 	jr	ra
8000e360:	27bd0028 	addiu	sp,sp,40
8000e364:	8fbf0024 	lw	ra,36(sp)
8000e368:	8fb40020 	lw	s4,32(sp)
8000e36c:	8fb3001c 	lw	s3,28(sp)
8000e370:	8fb20018 	lw	s2,24(sp)
8000e374:	8fb10014 	lw	s1,20(sp)
8000e378:	8fb00010 	lw	s0,16(sp)
8000e37c:	03e00008 	jr	ra
8000e380:	27bd0028 	addiu	sp,sp,40
8000e384:	3c048001 	lui	a0,0x8001
8000e388:	3c068001 	lui	a2,0x8001
8000e38c:	2484739c 	addiu	a0,a0,29596
8000e390:	240500ad 	li	a1,173
8000e394:	0c0009f2 	jal	800027c8 <__panic>
8000e398:	24c673b4 	addiu	a2,a2,29620

8000e39c <vfs_devlist_init>:
8000e39c:	3c03800e 	lui	v1,0x800e
8000e3a0:	3c04800e 	lui	a0,0x800e
8000e3a4:	24629d6c 	addiu	v0,v1,-25236
8000e3a8:	24849d74 	addiu	a0,a0,-25228
8000e3ac:	24050001 	li	a1,1
8000e3b0:	ac420004 	sw	v0,4(v0)
8000e3b4:	080022f3 	j	80008bcc <sem_init>
8000e3b8:	ac629d6c 	sw	v0,-25236(v1)

8000e3bc <vfs_cleanup>:
8000e3bc:	27bdffe0 	addiu	sp,sp,-32
8000e3c0:	afb10018 	sw	s1,24(sp)
8000e3c4:	3c11800e 	lui	s1,0x800e
8000e3c8:	26319d6c 	addiu	s1,s1,-25236
8000e3cc:	8e220004 	lw	v0,4(s1)
8000e3d0:	afbf001c 	sw	ra,28(sp)
8000e3d4:	10510018 	beq	v0,s1,8000e438 <vfs_cleanup+0x7c>
8000e3d8:	afb00014 	sw	s0,20(sp)
8000e3dc:	0c003852 	jal	8000e148 <lock_vdev_list>
8000e3e0:	02208021 	move	s0,s1
8000e3e4:	8e100004 	lw	s0,4(s0)
8000e3e8:	00000000 	nop
8000e3ec:	1211000d 	beq	s0,s1,8000e424 <vfs_cleanup+0x68>
8000e3f0:	00000000 	nop
8000e3f4:	8e02fff8 	lw	v0,-8(s0)
8000e3f8:	00000000 	nop
8000e3fc:	1040fff9 	beqz	v0,8000e3e4 <vfs_cleanup+0x28>
8000e400:	00402021 	move	a0,v0
8000e404:	8c42007c 	lw	v0,124(v0)
8000e408:	00000000 	nop
8000e40c:	0040f809 	jalr	v0
8000e410:	00000000 	nop
8000e414:	8e100004 	lw	s0,4(s0)
8000e418:	00000000 	nop
8000e41c:	1611fff5 	bne	s0,s1,8000e3f4 <vfs_cleanup+0x38>
8000e420:	00000000 	nop
8000e424:	8fbf001c 	lw	ra,28(sp)
8000e428:	8fb10018 	lw	s1,24(sp)
8000e42c:	8fb00014 	lw	s0,20(sp)
8000e430:	08003855 	j	8000e154 <unlock_vdev_list>
8000e434:	27bd0020 	addiu	sp,sp,32
8000e438:	8fbf001c 	lw	ra,28(sp)
8000e43c:	8fb10018 	lw	s1,24(sp)
8000e440:	8fb00014 	lw	s0,20(sp)
8000e444:	03e00008 	jr	ra
8000e448:	27bd0020 	addiu	sp,sp,32

8000e44c <vfs_get_root>:
8000e44c:	27bdffd0 	addiu	sp,sp,-48
8000e450:	afb30028 	sw	s3,40(sp)
8000e454:	afb20024 	sw	s2,36(sp)
8000e458:	afbf002c 	sw	ra,44(sp)
8000e45c:	afb10020 	sw	s1,32(sp)
8000e460:	afb0001c 	sw	s0,28(sp)
8000e464:	00809021 	move	s2,a0
8000e468:	10800037 	beqz	a0,8000e548 <vfs_get_root+0xfc>
8000e46c:	00a09821 	move	s3,a1
8000e470:	3c11800e 	lui	s1,0x800e
8000e474:	26319d6c 	addiu	s1,s1,-25236
8000e478:	8e220004 	lw	v0,4(s1)
8000e47c:	00000000 	nop
8000e480:	10510011 	beq	v0,s1,8000e4c8 <vfs_get_root+0x7c>
8000e484:	2402fff3 	li	v0,-13
8000e488:	0c003852 	jal	8000e148 <lock_vdev_list>
8000e48c:	02208021 	move	s0,s1
8000e490:	0800392b 	j	8000e4ac <vfs_get_root+0x60>
8000e494:	00000000 	nop
8000e498:	8e05fff0 	lw	a1,-16(s0)
8000e49c:	0c0007eb 	jal	80001fac <strcmp>
8000e4a0:	02402021 	move	a0,s2
8000e4a4:	1040000f 	beqz	v0,8000e4e4 <vfs_get_root+0x98>
8000e4a8:	00000000 	nop
8000e4ac:	8e100004 	lw	s0,4(s0)
8000e4b0:	00000000 	nop
8000e4b4:	1611fff8 	bne	s0,s1,8000e498 <vfs_get_root+0x4c>
8000e4b8:	2402fff3 	li	v0,-13
8000e4bc:	0c003855 	jal	8000e154 <unlock_vdev_list>
8000e4c0:	afa20010 	sw	v0,16(sp)
8000e4c4:	8fa20010 	lw	v0,16(sp)
8000e4c8:	8fbf002c 	lw	ra,44(sp)
8000e4cc:	8fb30028 	lw	s3,40(sp)
8000e4d0:	8fb20024 	lw	s2,36(sp)
8000e4d4:	8fb10020 	lw	s1,32(sp)
8000e4d8:	8fb0001c 	lw	s0,28(sp)
8000e4dc:	03e00008 	jr	ra
8000e4e0:	27bd0030 	addiu	sp,sp,48
8000e4e4:	8e04fff8 	lw	a0,-8(s0)
8000e4e8:	00000000 	nop
8000e4ec:	1080000a 	beqz	a0,8000e518 <vfs_get_root+0xcc>
8000e4f0:	00000000 	nop
8000e4f4:	8c820074 	lw	v0,116(a0)
8000e4f8:	00000000 	nop
8000e4fc:	0040f809 	jalr	v0
8000e500:	00000000 	nop
8000e504:	10400008 	beqz	v0,8000e528 <vfs_get_root+0xdc>
8000e508:	00000000 	nop
8000e50c:	ae620000 	sw	v0,0(s3)
8000e510:	0800392f 	j	8000e4bc <vfs_get_root+0x70>
8000e514:	00001021 	move	v0,zero
8000e518:	8e02fffc 	lw	v0,-4(s0)
8000e51c:	00000000 	nop
8000e520:	10400003 	beqz	v0,8000e530 <vfs_get_root+0xe4>
8000e524:	00000000 	nop
8000e528:	0800392f 	j	8000e4bc <vfs_get_root+0x70>
8000e52c:	2402fff2 	li	v0,-14
8000e530:	8e04fff4 	lw	a0,-12(s0)
8000e534:	0c0036d4 	jal	8000db50 <inode_ref_inc>
8000e538:	00000000 	nop
8000e53c:	8e02fff4 	lw	v0,-12(s0)
8000e540:	08003941 	j	8000e504 <vfs_get_root+0xb8>
8000e544:	00000000 	nop
8000e548:	3c048001 	lui	a0,0x8001
8000e54c:	3c068001 	lui	a2,0x8001
8000e550:	2484739c 	addiu	a0,a0,29596
8000e554:	2405003f 	li	a1,63
8000e558:	0c0009f2 	jal	800027c8 <__panic>
8000e55c:	24c673b4 	addiu	a2,a2,29620

8000e560 <vfs_get_devname>:
8000e560:	27bdffe8 	addiu	sp,sp,-24
8000e564:	10800015 	beqz	a0,8000e5bc <vfs_get_devname+0x5c>
8000e568:	afbf0014 	sw	ra,20(sp)
8000e56c:	3c05800e 	lui	a1,0x800e
8000e570:	24a59d6c 	addiu	a1,a1,-25236
8000e574:	08003963 	j	8000e58c <vfs_get_devname+0x2c>
8000e578:	00a01021 	move	v0,a1
8000e57c:	8c43fff8 	lw	v1,-8(v0)
8000e580:	00000000 	nop
8000e584:	10640009 	beq	v1,a0,8000e5ac <vfs_get_devname+0x4c>
8000e588:	00000000 	nop
8000e58c:	8c420004 	lw	v0,4(v0)
8000e590:	00000000 	nop
8000e594:	1445fff9 	bne	v0,a1,8000e57c <vfs_get_devname+0x1c>
8000e598:	00000000 	nop
8000e59c:	8fbf0014 	lw	ra,20(sp)
8000e5a0:	00001021 	move	v0,zero
8000e5a4:	03e00008 	jr	ra
8000e5a8:	27bd0018 	addiu	sp,sp,24
8000e5ac:	8fbf0014 	lw	ra,20(sp)
8000e5b0:	8c42fff0 	lw	v0,-16(v0)
8000e5b4:	03e00008 	jr	ra
8000e5b8:	27bd0018 	addiu	sp,sp,24
8000e5bc:	3c048001 	lui	a0,0x8001
8000e5c0:	3c068001 	lui	a2,0x8001
8000e5c4:	2484739c 	addiu	a0,a0,29596
8000e5c8:	24050061 	li	a1,97
8000e5cc:	0c0009f2 	jal	800027c8 <__panic>
8000e5d0:	24c67444 	addiu	a2,a2,29764

8000e5d4 <vfs_add_fs>:
8000e5d4:	00a03021 	move	a2,a1
8000e5d8:	00003821 	move	a3,zero
8000e5dc:	08003858 	j	8000e160 <vfs_do_add>
8000e5e0:	00002821 	move	a1,zero

8000e5e4 <vfs_add_dev>:
8000e5e4:	00c03821 	move	a3,a2
8000e5e8:	08003858 	j	8000e160 <vfs_do_add>
8000e5ec:	00003021 	move	a2,zero

8000e5f0 <vfs_mount>:
8000e5f0:	27bdffd0 	addiu	sp,sp,-48
8000e5f4:	afbf002c 	sw	ra,44(sp)
8000e5f8:	afb10028 	sw	s1,40(sp)
8000e5fc:	afb00024 	sw	s0,36(sp)
8000e600:	00a08821 	move	s1,a1
8000e604:	0c003852 	jal	8000e148 <lock_vdev_list>
8000e608:	afa40018 	sw	a0,24(sp)
8000e60c:	8fa40018 	lw	a0,24(sp)
8000e610:	0c0038b6 	jal	8000e2d8 <find_mount>
8000e614:	27a50010 	addiu	a1,sp,16
8000e618:	14400024 	bnez	v0,8000e6ac <vfs_mount+0xbc>
8000e61c:	00408021 	move	s0,v0
8000e620:	8fa50010 	lw	a1,16(sp)
8000e624:	00000000 	nop
8000e628:	8ca20008 	lw	v0,8(a1)
8000e62c:	00000000 	nop
8000e630:	14400026 	bnez	v0,8000e6cc <vfs_mount+0xdc>
8000e634:	00000000 	nop
8000e638:	8ca20000 	lw	v0,0(a1)
8000e63c:	00000000 	nop
8000e640:	1040002a 	beqz	v0,8000e6ec <vfs_mount+0xfc>
8000e644:	3c048001 	lui	a0,0x8001
8000e648:	8ca2000c 	lw	v0,12(a1)
8000e64c:	00000000 	nop
8000e650:	10400027 	beqz	v0,8000e6f0 <vfs_mount+0x100>
8000e654:	3c068001 	lui	a2,0x8001
8000e658:	8ca40004 	lw	a0,4(a1)
8000e65c:	00000000 	nop
8000e660:	10800027 	beqz	a0,8000e700 <vfs_mount+0x110>
8000e664:	24021234 	li	v0,4660
8000e668:	8c83002c 	lw	v1,44(a0)
8000e66c:	00000000 	nop
8000e670:	14620023 	bne	v1,v0,8000e700 <vfs_mount+0x110>
8000e674:	00000000 	nop
8000e678:	0220f809 	jalr	s1
8000e67c:	24a50008 	addiu	a1,a1,8
8000e680:	1440000a 	bnez	v0,8000e6ac <vfs_mount+0xbc>
8000e684:	00408021 	move	s0,v0
8000e688:	8fa20010 	lw	v0,16(sp)
8000e68c:	00000000 	nop
8000e690:	8c430008 	lw	v1,8(v0)
8000e694:	00000000 	nop
8000e698:	1060001f 	beqz	v1,8000e718 <vfs_mount+0x128>
8000e69c:	3c048001 	lui	a0,0x8001
8000e6a0:	8c450000 	lw	a1,0(v0)
8000e6a4:	0c000727 	jal	80001c9c <kprintf>
8000e6a8:	2484750c 	addiu	a0,a0,29964
8000e6ac:	0c003855 	jal	8000e154 <unlock_vdev_list>
8000e6b0:	00000000 	nop
8000e6b4:	8fbf002c 	lw	ra,44(sp)
8000e6b8:	02001021 	move	v0,s0
8000e6bc:	8fb10028 	lw	s1,40(sp)
8000e6c0:	8fb00024 	lw	s0,36(sp)
8000e6c4:	03e00008 	jr	ra
8000e6c8:	27bd0030 	addiu	sp,sp,48
8000e6cc:	0c003855 	jal	8000e154 <unlock_vdev_list>
8000e6d0:	2410fff1 	li	s0,-15
8000e6d4:	8fbf002c 	lw	ra,44(sp)
8000e6d8:	02001021 	move	v0,s0
8000e6dc:	8fb10028 	lw	s1,40(sp)
8000e6e0:	8fb00024 	lw	s0,36(sp)
8000e6e4:	03e00008 	jr	ra
8000e6e8:	27bd0030 	addiu	sp,sp,48
8000e6ec:	3c068001 	lui	a2,0x8001
8000e6f0:	2484739c 	addiu	a0,a0,29596
8000e6f4:	240500c5 	li	a1,197
8000e6f8:	0c0009f2 	jal	800027c8 <__panic>
8000e6fc:	24c67464 	addiu	a2,a2,29796
8000e700:	3c048001 	lui	a0,0x8001
8000e704:	3c068001 	lui	a2,0x8001
8000e708:	2484739c 	addiu	a0,a0,29596
8000e70c:	240500c7 	li	a1,199
8000e710:	0c0009f2 	jal	800027c8 <__panic>
8000e714:	24c674a0 	addiu	a2,a2,29856
8000e718:	3c048001 	lui	a0,0x8001
8000e71c:	3c068001 	lui	a2,0x8001
8000e720:	2484739c 	addiu	a0,a0,29596
8000e724:	240500c9 	li	a1,201
8000e728:	0c0009f2 	jal	800027c8 <__panic>
8000e72c:	24c674e8 	addiu	a2,a2,29928

8000e730 <vfs_unmount>:
8000e730:	27bdffd8 	addiu	sp,sp,-40
8000e734:	afbf0024 	sw	ra,36(sp)
8000e738:	afb00020 	sw	s0,32(sp)
8000e73c:	0c003852 	jal	8000e148 <lock_vdev_list>
8000e740:	afa40018 	sw	a0,24(sp)
8000e744:	8fa40018 	lw	a0,24(sp)
8000e748:	0c0038b6 	jal	8000e2d8 <find_mount>
8000e74c:	27a50010 	addiu	a1,sp,16
8000e750:	14400015 	bnez	v0,8000e7a8 <vfs_unmount+0x78>
8000e754:	00408021 	move	s0,v0
8000e758:	8fa20010 	lw	v0,16(sp)
8000e75c:	00000000 	nop
8000e760:	8c440008 	lw	a0,8(v0)
8000e764:	00000000 	nop
8000e768:	1080002d 	beqz	a0,8000e820 <vfs_unmount+0xf0>
8000e76c:	00000000 	nop
8000e770:	8c430000 	lw	v1,0(v0)
8000e774:	00000000 	nop
8000e778:	1060002b 	beqz	v1,8000e828 <vfs_unmount+0xf8>
8000e77c:	00000000 	nop
8000e780:	8c42000c 	lw	v0,12(v0)
8000e784:	00000000 	nop
8000e788:	10400027 	beqz	v0,8000e828 <vfs_unmount+0xf8>
8000e78c:	00000000 	nop
8000e790:	8c820070 	lw	v0,112(a0)
8000e794:	00000000 	nop
8000e798:	0040f809 	jalr	v0
8000e79c:	00000000 	nop
8000e7a0:	10400008 	beqz	v0,8000e7c4 <vfs_unmount+0x94>
8000e7a4:	00408021 	move	s0,v0
8000e7a8:	0c003855 	jal	8000e154 <unlock_vdev_list>
8000e7ac:	00000000 	nop
8000e7b0:	8fbf0024 	lw	ra,36(sp)
8000e7b4:	02001021 	move	v0,s0
8000e7b8:	8fb00020 	lw	s0,32(sp)
8000e7bc:	03e00008 	jr	ra
8000e7c0:	27bd0028 	addiu	sp,sp,40
8000e7c4:	8fa20010 	lw	v0,16(sp)
8000e7c8:	00000000 	nop
8000e7cc:	8c440008 	lw	a0,8(v0)
8000e7d0:	00000000 	nop
8000e7d4:	8c820078 	lw	v0,120(a0)
8000e7d8:	00000000 	nop
8000e7dc:	0040f809 	jalr	v0
8000e7e0:	00000000 	nop
8000e7e4:	1440fff0 	bnez	v0,8000e7a8 <vfs_unmount+0x78>
8000e7e8:	00408021 	move	s0,v0
8000e7ec:	8fa20010 	lw	v0,16(sp)
8000e7f0:	3c048001 	lui	a0,0x8001
8000e7f4:	8c450000 	lw	a1,0(v0)
8000e7f8:	2484751c 	addiu	a0,a0,29980
8000e7fc:	0c000727 	jal	80001c9c <kprintf>
8000e800:	ac400008 	sw	zero,8(v0)
8000e804:	0c003855 	jal	8000e154 <unlock_vdev_list>
8000e808:	00000000 	nop
8000e80c:	8fbf0024 	lw	ra,36(sp)
8000e810:	02001021 	move	v0,s0
8000e814:	8fb00020 	lw	s0,32(sp)
8000e818:	03e00008 	jr	ra
8000e81c:	27bd0028 	addiu	sp,sp,40
8000e820:	080039ea 	j	8000e7a8 <vfs_unmount+0x78>
8000e824:	2410fffd 	li	s0,-3
8000e828:	3c048001 	lui	a0,0x8001
8000e82c:	3c068001 	lui	a2,0x8001
8000e830:	2484739c 	addiu	a0,a0,29596
8000e834:	240500de 	li	a1,222
8000e838:	0c0009f2 	jal	800027c8 <__panic>
8000e83c:	24c67464 	addiu	a2,a2,29796

8000e840 <vfs_unmount_all>:
8000e840:	27bdffd8 	addiu	sp,sp,-40
8000e844:	afb10014 	sw	s1,20(sp)
8000e848:	3c11800e 	lui	s1,0x800e
8000e84c:	26319d6c 	addiu	s1,s1,-25236
8000e850:	8e220004 	lw	v0,4(s1)
8000e854:	afbf0024 	sw	ra,36(sp)
8000e858:	afb40020 	sw	s4,32(sp)
8000e85c:	afb3001c 	sw	s3,28(sp)
8000e860:	afb20018 	sw	s2,24(sp)
8000e864:	10510024 	beq	v0,s1,8000e8f8 <vfs_unmount_all+0xb8>
8000e868:	afb00010 	sw	s0,16(sp)
8000e86c:	3c148001 	lui	s4,0x8001
8000e870:	0c003852 	jal	8000e148 <lock_vdev_list>
8000e874:	3c138001 	lui	s3,0x8001
8000e878:	02208021 	move	s0,s1
8000e87c:	2694751c 	addiu	s4,s4,29980
8000e880:	26737558 	addiu	s3,s3,30040
8000e884:	3c128001 	lui	s2,0x8001
8000e888:	8e100004 	lw	s0,4(s0)
8000e88c:	00000000 	nop
8000e890:	12110017 	beq	s0,s1,8000e8f0 <vfs_unmount_all+0xb0>
8000e894:	00000000 	nop
8000e898:	8e02fffc 	lw	v0,-4(s0)
8000e89c:	00000000 	nop
8000e8a0:	1040fff9 	beqz	v0,8000e888 <vfs_unmount_all+0x48>
8000e8a4:	00000000 	nop
8000e8a8:	8e02fff8 	lw	v0,-8(s0)
8000e8ac:	00000000 	nop
8000e8b0:	1040fff5 	beqz	v0,8000e888 <vfs_unmount_all+0x48>
8000e8b4:	00402021 	move	a0,v0
8000e8b8:	8c420070 	lw	v0,112(v0)
8000e8bc:	00000000 	nop
8000e8c0:	0040f809 	jalr	v0
8000e8c4:	00000000 	nop
8000e8c8:	00403021 	move	a2,v0
8000e8cc:	10400013 	beqz	v0,8000e91c <vfs_unmount_all+0xdc>
8000e8d0:	26447530 	addiu	a0,s2,30000
8000e8d4:	8e05fff0 	lw	a1,-16(s0)
8000e8d8:	0c000727 	jal	80001c9c <kprintf>
8000e8dc:	00000000 	nop
8000e8e0:	8e100004 	lw	s0,4(s0)
8000e8e4:	00000000 	nop
8000e8e8:	1611ffeb 	bne	s0,s1,8000e898 <vfs_unmount_all+0x58>
8000e8ec:	00000000 	nop
8000e8f0:	0c003855 	jal	8000e154 <unlock_vdev_list>
8000e8f4:	00000000 	nop
8000e8f8:	8fbf0024 	lw	ra,36(sp)
8000e8fc:	00001021 	move	v0,zero
8000e900:	8fb40020 	lw	s4,32(sp)
8000e904:	8fb3001c 	lw	s3,28(sp)
8000e908:	8fb20018 	lw	s2,24(sp)
8000e90c:	8fb10014 	lw	s1,20(sp)
8000e910:	8fb00010 	lw	s0,16(sp)
8000e914:	03e00008 	jr	ra
8000e918:	27bd0028 	addiu	sp,sp,40
8000e91c:	8e04fff8 	lw	a0,-8(s0)
8000e920:	00000000 	nop
8000e924:	8c820078 	lw	v0,120(a0)
8000e928:	00000000 	nop
8000e92c:	0040f809 	jalr	v0
8000e930:	00000000 	nop
8000e934:	00403021 	move	a2,v0
8000e938:	8e05fff0 	lw	a1,-16(s0)
8000e93c:	10400005 	beqz	v0,8000e954 <vfs_unmount_all+0x114>
8000e940:	02602021 	move	a0,s3
8000e944:	0c000727 	jal	80001c9c <kprintf>
8000e948:	00000000 	nop
8000e94c:	08003a22 	j	8000e888 <vfs_unmount_all+0x48>
8000e950:	00000000 	nop
8000e954:	ae00fff8 	sw	zero,-8(s0)
8000e958:	0c000727 	jal	80001c9c <kprintf>
8000e95c:	02802021 	move	a0,s4
8000e960:	08003a22 	j	8000e888 <vfs_unmount_all+0x48>
8000e964:	00000000 	nop

8000e968 <vfs_open>:
8000e968:	27bdffc0 	addiu	sp,sp,-64
8000e96c:	30a20003 	andi	v0,a1,0x3
8000e970:	afb40030 	sw	s4,48(sp)
8000e974:	afb20028 	sw	s2,40(sp)
8000e978:	afb00020 	sw	s0,32(sp)
8000e97c:	afbf003c 	sw	ra,60(sp)
8000e980:	afb60038 	sw	s6,56(sp)
8000e984:	afb50034 	sw	s5,52(sp)
8000e988:	afb3002c 	sw	s3,44(sp)
8000e98c:	afb10024 	sw	s1,36(sp)
8000e990:	00a08021 	move	s0,a1
8000e994:	0080a021 	move	s4,a0
8000e998:	1440001d 	bnez	v0,8000ea10 <vfs_open+0xa8>
8000e99c:	00c09021 	move	s2,a2
8000e9a0:	32110010 	andi	s1,s0,0x10
8000e9a4:	12200003 	beqz	s1,8000e9b4 <vfs_open+0x4c>
8000e9a8:	00001021 	move	v0,zero
8000e9ac:	1040000d 	beqz	v0,8000e9e4 <vfs_open+0x7c>
8000e9b0:	2416fffd 	li	s6,-3
8000e9b4:	02802021 	move	a0,s4
8000e9b8:	27a50018 	addiu	a1,sp,24
8000e9bc:	32150008 	andi	s5,s0,0x8
8000e9c0:	0c003b7f 	jal	8000edfc <vfs_lookup>
8000e9c4:	32130004 	andi	s3,s0,0x4
8000e9c8:	0015a82b 	sltu	s5,zero,s5
8000e9cc:	0013982b 	sltu	s3,zero,s3
8000e9d0:	10400014 	beqz	v0,8000ea24 <vfs_open+0xbc>
8000e9d4:	0040b021 	move	s6,v0
8000e9d8:	2402fff0 	li	v0,-16
8000e9dc:	12c2005d 	beq	s6,v0,8000eb54 <vfs_open+0x1ec>
8000e9e0:	00000000 	nop
8000e9e4:	8fbf003c 	lw	ra,60(sp)
8000e9e8:	02c01021 	move	v0,s6
8000e9ec:	8fb50034 	lw	s5,52(sp)
8000e9f0:	8fb60038 	lw	s6,56(sp)
8000e9f4:	8fb40030 	lw	s4,48(sp)
8000e9f8:	8fb3002c 	lw	s3,44(sp)
8000e9fc:	8fb20028 	lw	s2,40(sp)
8000ea00:	8fb10024 	lw	s1,36(sp)
8000ea04:	8fb00020 	lw	s0,32(sp)
8000ea08:	03e00008 	jr	ra
8000ea0c:	27bd0040 	addiu	sp,sp,64
8000ea10:	2c420003 	sltiu	v0,v0,3
8000ea14:	1440003b 	bnez	v0,8000eb04 <vfs_open+0x19c>
8000ea18:	32110010 	andi	s1,s0,0x10
8000ea1c:	08003a79 	j	8000e9e4 <vfs_open+0x7c>
8000ea20:	2416fffd 	li	s6,-3
8000ea24:	16a0003b 	bnez	s5,8000eb14 <vfs_open+0x1ac>
8000ea28:	00000000 	nop
8000ea2c:	8fb40018 	lw	s4,24(sp)
8000ea30:	00000000 	nop
8000ea34:	12800070 	beqz	s4,8000ebf8 <vfs_open+0x290>
8000ea38:	3c048001 	lui	a0,0x8001
8000ea3c:	8e82003c 	lw	v0,60(s4)
8000ea40:	00000000 	nop
8000ea44:	10400063 	beqz	v0,8000ebd4 <vfs_open+0x26c>
8000ea48:	3c068001 	lui	a2,0x8001
8000ea4c:	8c420004 	lw	v0,4(v0)
8000ea50:	00000000 	nop
8000ea54:	1040005e 	beqz	v0,8000ebd0 <vfs_open+0x268>
8000ea58:	3c058001 	lui	a1,0x8001
8000ea5c:	02802021 	move	a0,s4
8000ea60:	0c003713 	jal	8000dc4c <inode_check>
8000ea64:	24a57688 	addiu	a1,a1,30344
8000ea68:	8e82003c 	lw	v0,60(s4)
8000ea6c:	8fa40018 	lw	a0,24(sp)
8000ea70:	8c420004 	lw	v0,4(v0)
8000ea74:	00000000 	nop
8000ea78:	0040f809 	jalr	v0
8000ea7c:	02002821 	move	a1,s0
8000ea80:	8fa40018 	lw	a0,24(sp)
8000ea84:	1440002f 	bnez	v0,8000eb44 <vfs_open+0x1dc>
8000ea88:	0040b021 	move	s6,v0
8000ea8c:	0c0036f6 	jal	8000dbd8 <inode_open_inc>
8000ea90:	00000000 	nop
8000ea94:	12200023 	beqz	s1,8000eb24 <vfs_open+0x1bc>
8000ea98:	00000000 	nop
8000ea9c:	8fb00018 	lw	s0,24(sp)
8000eaa0:	00000000 	nop
8000eaa4:	1200004f 	beqz	s0,8000ebe4 <vfs_open+0x27c>
8000eaa8:	3c048001 	lui	a0,0x8001
8000eaac:	8e02003c 	lw	v0,60(s0)
8000eab0:	00000000 	nop
8000eab4:	1040004c 	beqz	v0,8000ebe8 <vfs_open+0x280>
8000eab8:	3c068001 	lui	a2,0x8001
8000eabc:	8c420030 	lw	v0,48(v0)
8000eac0:	00000000 	nop
8000eac4:	10400047 	beqz	v0,8000ebe4 <vfs_open+0x27c>
8000eac8:	3c058001 	lui	a1,0x8001
8000eacc:	02002021 	move	a0,s0
8000ead0:	0c003713 	jal	8000dc4c <inode_check>
8000ead4:	24a576f4 	addiu	a1,a1,30452
8000ead8:	8e02003c 	lw	v0,60(s0)
8000eadc:	8fa40018 	lw	a0,24(sp)
8000eae0:	8c420030 	lw	v0,48(v0)
8000eae4:	00000000 	nop
8000eae8:	0040f809 	jalr	v0
8000eaec:	00002821 	move	a1,zero
8000eaf0:	14400010 	bnez	v0,8000eb34 <vfs_open+0x1cc>
8000eaf4:	00000000 	nop
8000eaf8:	8fa20018 	lw	v0,24(sp)
8000eafc:	08003a79 	j	8000e9e4 <vfs_open+0x7c>
8000eb00:	ae420000 	sw	v0,0(s2)
8000eb04:	1620ffa9 	bnez	s1,8000e9ac <vfs_open+0x44>
8000eb08:	24020001 	li	v0,1
8000eb0c:	08003a6e 	j	8000e9b8 <vfs_open+0x50>
8000eb10:	02802021 	move	a0,s4
8000eb14:	1260ffc5 	beqz	s3,8000ea2c <vfs_open+0xc4>
8000eb18:	2416ffe9 	li	s6,-23
8000eb1c:	08003a79 	j	8000e9e4 <vfs_open+0x7c>
8000eb20:	00000000 	nop
8000eb24:	1260fff4 	beqz	s3,8000eaf8 <vfs_open+0x190>
8000eb28:	00000000 	nop
8000eb2c:	08003aa7 	j	8000ea9c <vfs_open+0x134>
8000eb30:	00000000 	nop
8000eb34:	8fa40018 	lw	a0,24(sp)
8000eb38:	0c003747 	jal	8000dd1c <inode_open_dec>
8000eb3c:	0040b021 	move	s6,v0
8000eb40:	8fa40018 	lw	a0,24(sp)
8000eb44:	0c003793 	jal	8000de4c <inode_ref_dec>
8000eb48:	00000000 	nop
8000eb4c:	08003a79 	j	8000e9e4 <vfs_open+0x7c>
8000eb50:	00000000 	nop
8000eb54:	1260ffa3 	beqz	s3,8000e9e4 <vfs_open+0x7c>
8000eb58:	02802021 	move	a0,s4
8000eb5c:	27a50010 	addiu	a1,sp,16
8000eb60:	0c003bbb 	jal	8000eeec <vfs_lookup_parent>
8000eb64:	27a60014 	addiu	a2,sp,20
8000eb68:	1440ff9e 	bnez	v0,8000e9e4 <vfs_open+0x7c>
8000eb6c:	0040b021 	move	s6,v0
8000eb70:	8fb40010 	lw	s4,16(sp)
8000eb74:	00000000 	nop
8000eb78:	12800024 	beqz	s4,8000ec0c <vfs_open+0x2a4>
8000eb7c:	3c048001 	lui	a0,0x8001
8000eb80:	8e82003c 	lw	v0,60(s4)
8000eb84:	00000000 	nop
8000eb88:	10400020 	beqz	v0,8000ec0c <vfs_open+0x2a4>
8000eb8c:	00000000 	nop
8000eb90:	8c420034 	lw	v0,52(v0)
8000eb94:	00000000 	nop
8000eb98:	1040001c 	beqz	v0,8000ec0c <vfs_open+0x2a4>
8000eb9c:	3c058001 	lui	a1,0x8001
8000eba0:	02802021 	move	a0,s4
8000eba4:	0c003713 	jal	8000dc4c <inode_check>
8000eba8:	24a57600 	addiu	a1,a1,30208
8000ebac:	8e82003c 	lw	v0,60(s4)
8000ebb0:	8fa40010 	lw	a0,16(sp)
8000ebb4:	8fa50014 	lw	a1,20(sp)
8000ebb8:	8c420034 	lw	v0,52(v0)
8000ebbc:	02a03021 	move	a2,s5
8000ebc0:	0040f809 	jalr	v0
8000ebc4:	27a70018 	addiu	a3,sp,24
8000ebc8:	08003a8b 	j	8000ea2c <vfs_open+0xc4>
8000ebcc:	00000000 	nop
8000ebd0:	3c068001 	lui	a2,0x8001
8000ebd4:	24847584 	addiu	a0,a0,30084
8000ebd8:	24050031 	li	a1,49
8000ebdc:	0c0009f2 	jal	800027c8 <__panic>
8000ebe0:	24c67628 	addiu	a2,a2,30248
8000ebe4:	3c068001 	lui	a2,0x8001
8000ebe8:	24847584 	addiu	a0,a0,30084
8000ebec:	24050038 	li	a1,56
8000ebf0:	0c0009f2 	jal	800027c8 <__panic>
8000ebf4:	24c67690 	addiu	a2,a2,30352
8000ebf8:	3c068001 	lui	a2,0x8001
8000ebfc:	24847584 	addiu	a0,a0,30084
8000ec00:	2405002f 	li	a1,47
8000ec04:	0c0009f2 	jal	800027c8 <__panic>
8000ec08:	24c67608 	addiu	a2,a2,30216
8000ec0c:	3c068001 	lui	a2,0x8001
8000ec10:	24847584 	addiu	a0,a0,30084
8000ec14:	2405002a 	li	a1,42
8000ec18:	0c0009f2 	jal	800027c8 <__panic>
8000ec1c:	24c6759c 	addiu	a2,a2,30108

8000ec20 <vfs_close>:
8000ec20:	27bdffe8 	addiu	sp,sp,-24
8000ec24:	afb00010 	sw	s0,16(sp)
8000ec28:	afbf0014 	sw	ra,20(sp)
8000ec2c:	0c003747 	jal	8000dd1c <inode_open_dec>
8000ec30:	00808021 	move	s0,a0
8000ec34:	0c003793 	jal	8000de4c <inode_ref_dec>
8000ec38:	02002021 	move	a0,s0
8000ec3c:	8fbf0014 	lw	ra,20(sp)
8000ec40:	00001021 	move	v0,zero
8000ec44:	8fb00010 	lw	s0,16(sp)
8000ec48:	03e00008 	jr	ra
8000ec4c:	27bd0018 	addiu	sp,sp,24

8000ec50 <vfs_unlink>:
8000ec50:	03e00008 	jr	ra
8000ec54:	2402ffec 	li	v0,-20

8000ec58 <vfs_rename>:
8000ec58:	03e00008 	jr	ra
8000ec5c:	2402ffec 	li	v0,-20

8000ec60 <vfs_link>:
8000ec60:	03e00008 	jr	ra
8000ec64:	2402ffec 	li	v0,-20

8000ec68 <vfs_symlink>:
8000ec68:	03e00008 	jr	ra
8000ec6c:	2402ffec 	li	v0,-20

8000ec70 <vfs_readlink>:
8000ec70:	03e00008 	jr	ra
8000ec74:	2402ffec 	li	v0,-20

8000ec78 <vfs_mkdir>:
8000ec78:	03e00008 	jr	ra
8000ec7c:	2402ffec 	li	v0,-20

8000ec80 <get_device>:
8000ec80:	27bdffd8 	addiu	sp,sp,-40
8000ec84:	afb00020 	sw	s0,32(sp)
8000ec88:	afbf0024 	sw	ra,36(sp)
8000ec8c:	90820000 	lbu	v0,0(a0)
8000ec90:	00000000 	nop
8000ec94:	10400012 	beqz	v0,8000ece0 <get_device+0x60>
8000ec98:	00808021 	move	s0,a0
8000ec9c:	2403003a 	li	v1,58
8000eca0:	10430026 	beq	v0,v1,8000ed3c <get_device+0xbc>
8000eca4:	2403002f 	li	v1,47
8000eca8:	10430046 	beq	v0,v1,8000edc4 <get_device+0x144>
8000ecac:	24830001 	addiu	v1,a0,1
8000ecb0:	2407003a 	li	a3,58
8000ecb4:	00002021 	move	a0,zero
8000ecb8:	08003b34 	j	8000ecd0 <get_device+0x50>
8000ecbc:	2408002f 	li	t0,47
8000ecc0:	1047000c 	beq	v0,a3,8000ecf4 <get_device+0x74>
8000ecc4:	00000000 	nop
8000ecc8:	10480005 	beq	v0,t0,8000ece0 <get_device+0x60>
8000eccc:	24630001 	addiu	v1,v1,1
8000ecd0:	90620000 	lbu	v0,0(v1)
8000ecd4:	00000000 	nop
8000ecd8:	1440fff9 	bnez	v0,8000ecc0 <get_device+0x40>
8000ecdc:	24840001 	addiu	a0,a0,1
8000ece0:	acb00000 	sw	s0,0(a1)
8000ece4:	0c003bd2 	jal	8000ef48 <vfs_get_curdir>
8000ece8:	00c02021 	move	a0,a2
8000ecec:	08003b4b 	j	8000ed2c <get_device+0xac>
8000ecf0:	00000000 	nop
8000ecf4:	24840001 	addiu	a0,a0,1
8000ecf8:	a0600000 	sb	zero,0(v1)
8000ecfc:	02042021 	addu	a0,s0,a0
8000ed00:	2407002f 	li	a3,47
8000ed04:	00801821 	move	v1,a0
8000ed08:	24840001 	addiu	a0,a0,1
8000ed0c:	9082ffff 	lbu	v0,-1(a0)
8000ed10:	00000000 	nop
8000ed14:	1047fffb 	beq	v0,a3,8000ed04 <get_device+0x84>
8000ed18:	00000000 	nop
8000ed1c:	aca30000 	sw	v1,0(a1)
8000ed20:	02002021 	move	a0,s0
8000ed24:	0c003913 	jal	8000e44c <vfs_get_root>
8000ed28:	00c02821 	move	a1,a2
8000ed2c:	8fbf0024 	lw	ra,36(sp)
8000ed30:	8fb00020 	lw	s0,32(sp)
8000ed34:	03e00008 	jr	ra
8000ed38:	27bd0028 	addiu	sp,sp,40
8000ed3c:	27a40010 	addiu	a0,sp,16
8000ed40:	afa5001c 	sw	a1,28(sp)
8000ed44:	0c003bd2 	jal	8000ef48 <vfs_get_curdir>
8000ed48:	afa60018 	sw	a2,24(sp)
8000ed4c:	8fa5001c 	lw	a1,28(sp)
8000ed50:	8fa60018 	lw	a2,24(sp)
8000ed54:	1440fff5 	bnez	v0,8000ed2c <get_device+0xac>
8000ed58:	00000000 	nop
8000ed5c:	8fa20010 	lw	v0,16(sp)
8000ed60:	00000000 	nop
8000ed64:	8c440038 	lw	a0,56(v0)
8000ed68:	00000000 	nop
8000ed6c:	1080001d 	beqz	a0,8000ede4 <get_device+0x164>
8000ed70:	00000000 	nop
8000ed74:	8c820074 	lw	v0,116(a0)
8000ed78:	afa5001c 	sw	a1,28(sp)
8000ed7c:	0040f809 	jalr	v0
8000ed80:	afa60018 	sw	a2,24(sp)
8000ed84:	8fa60018 	lw	a2,24(sp)
8000ed88:	8fa40010 	lw	a0,16(sp)
8000ed8c:	0c003793 	jal	8000de4c <inode_ref_dec>
8000ed90:	acc20000 	sw	v0,0(a2)
8000ed94:	8fa5001c 	lw	a1,28(sp)
8000ed98:	2403002f 	li	v1,47
8000ed9c:	26100001 	addiu	s0,s0,1
8000eda0:	92020000 	lbu	v0,0(s0)
8000eda4:	00000000 	nop
8000eda8:	1043fffc 	beq	v0,v1,8000ed9c <get_device+0x11c>
8000edac:	00001021 	move	v0,zero
8000edb0:	8fbf0024 	lw	ra,36(sp)
8000edb4:	acb00000 	sw	s0,0(a1)
8000edb8:	8fb00020 	lw	s0,32(sp)
8000edbc:	03e00008 	jr	ra
8000edc0:	27bd0028 	addiu	sp,sp,40
8000edc4:	00c02021 	move	a0,a2
8000edc8:	0c003826 	jal	8000e098 <vfs_get_bootfs>
8000edcc:	afa5001c 	sw	a1,28(sp)
8000edd0:	8fa5001c 	lw	a1,28(sp)
8000edd4:	1040fff1 	beqz	v0,8000ed9c <get_device+0x11c>
8000edd8:	2403002f 	li	v1,47
8000eddc:	08003b4b 	j	8000ed2c <get_device+0xac>
8000ede0:	00000000 	nop
8000ede4:	3c048001 	lui	a0,0x8001
8000ede8:	3c068001 	lui	a2,0x8001
8000edec:	24847700 	addiu	a0,a0,30464
8000edf0:	24050034 	li	a1,52
8000edf4:	0c0009f2 	jal	800027c8 <__panic>
8000edf8:	24c67718 	addiu	a2,a2,30488

8000edfc <vfs_lookup>:
8000edfc:	27bdffd8 	addiu	sp,sp,-40
8000ee00:	afb0001c 	sw	s0,28(sp)
8000ee04:	27a60010 	addiu	a2,sp,16
8000ee08:	00a08021 	move	s0,a1
8000ee0c:	27a50028 	addiu	a1,sp,40
8000ee10:	afb10020 	sw	s1,32(sp)
8000ee14:	afbf0024 	sw	ra,36(sp)
8000ee18:	0c003b20 	jal	8000ec80 <get_device>
8000ee1c:	afa40028 	sw	a0,40(sp)
8000ee20:	1440001f 	bnez	v0,8000eea0 <vfs_lookup+0xa4>
8000ee24:	00408821 	move	s1,v0
8000ee28:	8fa20028 	lw	v0,40(sp)
8000ee2c:	00000000 	nop
8000ee30:	90420000 	lbu	v0,0(v0)
8000ee34:	00000000 	nop
8000ee38:	1040001f 	beqz	v0,8000eeb8 <vfs_lookup+0xbc>
8000ee3c:	00000000 	nop
8000ee40:	8fb10010 	lw	s1,16(sp)
8000ee44:	00000000 	nop
8000ee48:	12200023 	beqz	s1,8000eed8 <vfs_lookup+0xdc>
8000ee4c:	3c048001 	lui	a0,0x8001
8000ee50:	8e22003c 	lw	v0,60(s1)
8000ee54:	00000000 	nop
8000ee58:	10400020 	beqz	v0,8000eedc <vfs_lookup+0xe0>
8000ee5c:	3c068001 	lui	a2,0x8001
8000ee60:	8c420038 	lw	v0,56(v0)
8000ee64:	00000000 	nop
8000ee68:	1040001b 	beqz	v0,8000eed8 <vfs_lookup+0xdc>
8000ee6c:	3c058001 	lui	a1,0x8001
8000ee70:	02202021 	move	a0,s1
8000ee74:	0c003713 	jal	8000dc4c <inode_check>
8000ee78:	24a577a4 	addiu	a1,a1,30628
8000ee7c:	8e22003c 	lw	v0,60(s1)
8000ee80:	8fa40010 	lw	a0,16(sp)
8000ee84:	8c420038 	lw	v0,56(v0)
8000ee88:	8fa50028 	lw	a1,40(sp)
8000ee8c:	0040f809 	jalr	v0
8000ee90:	02003021 	move	a2,s0
8000ee94:	8fa40010 	lw	a0,16(sp)
8000ee98:	0c003793 	jal	8000de4c <inode_ref_dec>
8000ee9c:	00408821 	move	s1,v0
8000eea0:	8fbf0024 	lw	ra,36(sp)
8000eea4:	02201021 	move	v0,s1
8000eea8:	8fb0001c 	lw	s0,28(sp)
8000eeac:	8fb10020 	lw	s1,32(sp)
8000eeb0:	03e00008 	jr	ra
8000eeb4:	27bd0028 	addiu	sp,sp,40
8000eeb8:	8fa20010 	lw	v0,16(sp)
8000eebc:	8fbf0024 	lw	ra,36(sp)
8000eec0:	ae020000 	sw	v0,0(s0)
8000eec4:	02201021 	move	v0,s1
8000eec8:	8fb0001c 	lw	s0,28(sp)
8000eecc:	8fb10020 	lw	s1,32(sp)
8000eed0:	03e00008 	jr	ra
8000eed4:	27bd0028 	addiu	sp,sp,40
8000eed8:	3c068001 	lui	a2,0x8001
8000eedc:	24847700 	addiu	a0,a0,30464
8000eee0:	24050047 	li	a1,71
8000eee4:	0c0009f2 	jal	800027c8 <__panic>
8000eee8:	24c67740 	addiu	a2,a2,30528

8000eeec <vfs_lookup_parent>:
8000eeec:	27bdffd8 	addiu	sp,sp,-40
8000eef0:	afb10020 	sw	s1,32(sp)
8000eef4:	afb0001c 	sw	s0,28(sp)
8000eef8:	00c08821 	move	s1,a2
8000eefc:	00a08021 	move	s0,a1
8000ef00:	27a60010 	addiu	a2,sp,16
8000ef04:	27a50028 	addiu	a1,sp,40
8000ef08:	afbf0024 	sw	ra,36(sp)
8000ef0c:	0c003b20 	jal	8000ec80 <get_device>
8000ef10:	afa40028 	sw	a0,40(sp)
8000ef14:	14400007 	bnez	v0,8000ef34 <vfs_lookup_parent+0x48>
8000ef18:	00000000 	nop
8000ef1c:	8fa30028 	lw	v1,40(sp)
8000ef20:	00000000 	nop
8000ef24:	ae230000 	sw	v1,0(s1)
8000ef28:	8fa30010 	lw	v1,16(sp)
8000ef2c:	00000000 	nop
8000ef30:	ae030000 	sw	v1,0(s0)
8000ef34:	8fbf0024 	lw	ra,36(sp)
8000ef38:	8fb10020 	lw	s1,32(sp)
8000ef3c:	8fb0001c 	lw	s0,28(sp)
8000ef40:	03e00008 	jr	ra
8000ef44:	27bd0028 	addiu	sp,sp,40

8000ef48 <vfs_get_curdir>:
8000ef48:	3c02800d 	lui	v0,0x800d
8000ef4c:	8c427d0c 	lw	v0,32012(v0)
8000ef50:	27bdffe0 	addiu	sp,sp,-32
8000ef54:	8c4200ac 	lw	v0,172(v0)
8000ef58:	afb00014 	sw	s0,20(sp)
8000ef5c:	8c500000 	lw	s0,0(v0)
8000ef60:	afb10018 	sw	s1,24(sp)
8000ef64:	afbf001c 	sw	ra,28(sp)
8000ef68:	1200000a 	beqz	s0,8000ef94 <vfs_get_curdir+0x4c>
8000ef6c:	00808821 	move	s1,a0
8000ef70:	0c0036d4 	jal	8000db50 <inode_ref_inc>
8000ef74:	02002021 	move	a0,s0
8000ef78:	ae300000 	sw	s0,0(s1)
8000ef7c:	00001021 	move	v0,zero
8000ef80:	8fbf001c 	lw	ra,28(sp)
8000ef84:	8fb10018 	lw	s1,24(sp)
8000ef88:	8fb00014 	lw	s0,20(sp)
8000ef8c:	03e00008 	jr	ra
8000ef90:	27bd0020 	addiu	sp,sp,32
8000ef94:	08003be0 	j	8000ef80 <vfs_get_curdir+0x38>
8000ef98:	2402fff0 	li	v0,-16

8000ef9c <vfs_set_curdir>:
8000ef9c:	27bdffd0 	addiu	sp,sp,-48
8000efa0:	afb10024 	sw	s1,36(sp)
8000efa4:	3c11800d 	lui	s1,0x800d
8000efa8:	8e227d0c 	lw	v0,32012(s1)
8000efac:	afb00020 	sw	s0,32(sp)
8000efb0:	00808021 	move	s0,a0
8000efb4:	8c4400ac 	lw	a0,172(v0)
8000efb8:	afb20028 	sw	s2,40(sp)
8000efbc:	afbf002c 	sw	ra,44(sp)
8000efc0:	0c003311 	jal	8000cc44 <lock_fs>
8000efc4:	00000000 	nop
8000efc8:	8e227d0c 	lw	v0,32012(s1)
8000efcc:	00000000 	nop
8000efd0:	8c4400ac 	lw	a0,172(v0)
8000efd4:	00000000 	nop
8000efd8:	8c920000 	lw	s2,0(a0)
8000efdc:	00000000 	nop
8000efe0:	12120053 	beq	s0,s2,8000f130 <vfs_set_curdir+0x194>
8000efe4:	00000000 	nop
8000efe8:	1200001e 	beqz	s0,8000f064 <vfs_set_curdir+0xc8>
8000efec:	00000000 	nop
8000eff0:	8e02003c 	lw	v0,60(s0)
8000eff4:	00000000 	nop
8000eff8:	1040004f 	beqz	v0,8000f138 <vfs_set_curdir+0x19c>
8000effc:	3c048001 	lui	a0,0x8001
8000f000:	8c420028 	lw	v0,40(v0)
8000f004:	00000000 	nop
8000f008:	1040004b 	beqz	v0,8000f138 <vfs_set_curdir+0x19c>
8000f00c:	3c058001 	lui	a1,0x8001
8000f010:	02002021 	move	a0,s0
8000f014:	0c003713 	jal	8000dc4c <inode_check>
8000f018:	24a57828 	addiu	a1,a1,30760
8000f01c:	8e02003c 	lw	v0,60(s0)
8000f020:	02002021 	move	a0,s0
8000f024:	8c420028 	lw	v0,40(v0)
8000f028:	00000000 	nop
8000f02c:	0040f809 	jalr	v0
8000f030:	27a50010 	addiu	a1,sp,16
8000f034:	1440001b 	bnez	v0,8000f0a4 <vfs_set_curdir+0x108>
8000f038:	00000000 	nop
8000f03c:	8fa30010 	lw	v1,16(sp)
8000f040:	24022000 	li	v0,8192
8000f044:	30637000 	andi	v1,v1,0x7000
8000f048:	1462002d 	bne	v1,v0,8000f100 <vfs_set_curdir+0x164>
8000f04c:	2402ffee 	li	v0,-18
8000f050:	0c0036d4 	jal	8000db50 <inode_ref_inc>
8000f054:	02002021 	move	a0,s0
8000f058:	8e227d0c 	lw	v0,32012(s1)
8000f05c:	00000000 	nop
8000f060:	8c4400ac 	lw	a0,172(v0)
8000f064:	1240001b 	beqz	s2,8000f0d4 <vfs_set_curdir+0x138>
8000f068:	ac900000 	sw	s0,0(a0)
8000f06c:	0c003793 	jal	8000de4c <inode_ref_dec>
8000f070:	02402021 	move	a0,s2
8000f074:	8e237d0c 	lw	v1,32012(s1)
8000f078:	00001021 	move	v0,zero
8000f07c:	8c6400ac 	lw	a0,172(v1)
8000f080:	0c003313 	jal	8000cc4c <unlock_fs>
8000f084:	afa20018 	sw	v0,24(sp)
8000f088:	8fbf002c 	lw	ra,44(sp)
8000f08c:	8fa20018 	lw	v0,24(sp)
8000f090:	8fb20028 	lw	s2,40(sp)
8000f094:	8fb10024 	lw	s1,36(sp)
8000f098:	8fb00020 	lw	s0,32(sp)
8000f09c:	03e00008 	jr	ra
8000f0a0:	27bd0030 	addiu	sp,sp,48
8000f0a4:	8e237d0c 	lw	v1,32012(s1)
8000f0a8:	00000000 	nop
8000f0ac:	8c6400ac 	lw	a0,172(v1)
8000f0b0:	0c003313 	jal	8000cc4c <unlock_fs>
8000f0b4:	afa20018 	sw	v0,24(sp)
8000f0b8:	8fbf002c 	lw	ra,44(sp)
8000f0bc:	8fa20018 	lw	v0,24(sp)
8000f0c0:	8fb20028 	lw	s2,40(sp)
8000f0c4:	8fb10024 	lw	s1,36(sp)
8000f0c8:	8fb00020 	lw	s0,32(sp)
8000f0cc:	03e00008 	jr	ra
8000f0d0:	27bd0030 	addiu	sp,sp,48
8000f0d4:	8c4400ac 	lw	a0,172(v0)
8000f0d8:	00001021 	move	v0,zero
8000f0dc:	0c003313 	jal	8000cc4c <unlock_fs>
8000f0e0:	afa20018 	sw	v0,24(sp)
8000f0e4:	8fbf002c 	lw	ra,44(sp)
8000f0e8:	8fa20018 	lw	v0,24(sp)
8000f0ec:	8fb20028 	lw	s2,40(sp)
8000f0f0:	8fb10024 	lw	s1,36(sp)
8000f0f4:	8fb00020 	lw	s0,32(sp)
8000f0f8:	03e00008 	jr	ra
8000f0fc:	27bd0030 	addiu	sp,sp,48
8000f100:	8e237d0c 	lw	v1,32012(s1)
8000f104:	00000000 	nop
8000f108:	8c6400ac 	lw	a0,172(v1)
8000f10c:	0c003313 	jal	8000cc4c <unlock_fs>
8000f110:	afa20018 	sw	v0,24(sp)
8000f114:	8fbf002c 	lw	ra,44(sp)
8000f118:	8fa20018 	lw	v0,24(sp)
8000f11c:	8fb20028 	lw	s2,40(sp)
8000f120:	8fb10024 	lw	s1,36(sp)
8000f124:	8fb00020 	lw	s0,32(sp)
8000f128:	03e00008 	jr	ra
8000f12c:	27bd0030 	addiu	sp,sp,48
8000f130:	08003c20 	j	8000f080 <vfs_set_curdir+0xe4>
8000f134:	00001021 	move	v0,zero
8000f138:	3c068001 	lui	a2,0x8001
8000f13c:	248477ac 	addiu	a0,a0,30636
8000f140:	24050032 	li	a1,50
8000f144:	0c0009f2 	jal	800027c8 <__panic>
8000f148:	24c677c4 	addiu	a2,a2,30660

8000f14c <vfs_chdir>:
8000f14c:	27bdffe0 	addiu	sp,sp,-32
8000f150:	afb00018 	sw	s0,24(sp)
8000f154:	afbf001c 	sw	ra,28(sp)
8000f158:	0c003b7f 	jal	8000edfc <vfs_lookup>
8000f15c:	27a50010 	addiu	a1,sp,16
8000f160:	14400007 	bnez	v0,8000f180 <vfs_chdir+0x34>
8000f164:	00408021 	move	s0,v0
8000f168:	8fa40010 	lw	a0,16(sp)
8000f16c:	0c003be7 	jal	8000ef9c <vfs_set_curdir>
8000f170:	00000000 	nop
8000f174:	8fa40010 	lw	a0,16(sp)
8000f178:	0c003793 	jal	8000de4c <inode_ref_dec>
8000f17c:	00408021 	move	s0,v0
8000f180:	8fbf001c 	lw	ra,28(sp)
8000f184:	02001021 	move	v0,s0
8000f188:	8fb00018 	lw	s0,24(sp)
8000f18c:	03e00008 	jr	ra
8000f190:	27bd0020 	addiu	sp,sp,32

8000f194 <vfs_getcwd>:
8000f194:	27bdffc8 	addiu	sp,sp,-56
8000f198:	afb0002c 	sw	s0,44(sp)
8000f19c:	00808021 	move	s0,a0
8000f1a0:	afb10030 	sw	s1,48(sp)
8000f1a4:	afbf0034 	sw	ra,52(sp)
8000f1a8:	0c003bd2 	jal	8000ef48 <vfs_get_curdir>
8000f1ac:	27a4001c 	addiu	a0,sp,28
8000f1b0:	14400017 	bnez	v0,8000f210 <vfs_getcwd+0x7c>
8000f1b4:	00408821 	move	s1,v0
8000f1b8:	8fa2001c 	lw	v0,28(sp)
8000f1bc:	00000000 	nop
8000f1c0:	8c440038 	lw	a0,56(v0)
8000f1c4:	00000000 	nop
8000f1c8:	1080003d 	beqz	a0,8000f2c0 <vfs_getcwd+0x12c>
8000f1cc:	3c068001 	lui	a2,0x8001
8000f1d0:	0c003958 	jal	8000e560 <vfs_get_devname>
8000f1d4:	00000000 	nop
8000f1d8:	00402021 	move	a0,v0
8000f1dc:	0c0007b2 	jal	80001ec8 <strlen>
8000f1e0:	afa20020 	sw	v0,32(sp)
8000f1e4:	8fa50020 	lw	a1,32(sp)
8000f1e8:	00403021 	move	a2,v0
8000f1ec:	02002021 	move	a0,s0
8000f1f0:	24070001 	li	a3,1
8000f1f4:	0c00340c 	jal	8000d030 <iobuf_move>
8000f1f8:	afa00010 	sw	zero,16(sp)
8000f1fc:	1040000a 	beqz	v0,8000f228 <vfs_getcwd+0x94>
8000f200:	00408821 	move	s1,v0
8000f204:	8fa4001c 	lw	a0,28(sp)
8000f208:	0c003793 	jal	8000de4c <inode_ref_dec>
8000f20c:	00000000 	nop
8000f210:	8fbf0034 	lw	ra,52(sp)
8000f214:	02201021 	move	v0,s1
8000f218:	8fb0002c 	lw	s0,44(sp)
8000f21c:	8fb10030 	lw	s1,48(sp)
8000f220:	03e00008 	jr	ra
8000f224:	27bd0038 	addiu	sp,sp,56
8000f228:	2402003a 	li	v0,58
8000f22c:	02002021 	move	a0,s0
8000f230:	27a50018 	addiu	a1,sp,24
8000f234:	24060001 	li	a2,1
8000f238:	24070001 	li	a3,1
8000f23c:	a3a20018 	sb	v0,24(sp)
8000f240:	0c00340c 	jal	8000d030 <iobuf_move>
8000f244:	afa00010 	sw	zero,16(sp)
8000f248:	1440ffee 	bnez	v0,8000f204 <vfs_getcwd+0x70>
8000f24c:	00408821 	move	s1,v0
8000f250:	8fb1001c 	lw	s1,28(sp)
8000f254:	00000000 	nop
8000f258:	12200014 	beqz	s1,8000f2ac <vfs_getcwd+0x118>
8000f25c:	3c048001 	lui	a0,0x8001
8000f260:	8e22003c 	lw	v0,60(s1)
8000f264:	00000000 	nop
8000f268:	10400011 	beqz	v0,8000f2b0 <vfs_getcwd+0x11c>
8000f26c:	3c068001 	lui	a2,0x8001
8000f270:	8c42001c 	lw	v0,28(v0)
8000f274:	00000000 	nop
8000f278:	1040000c 	beqz	v0,8000f2ac <vfs_getcwd+0x118>
8000f27c:	3c058001 	lui	a1,0x8001
8000f280:	02202021 	move	a0,s1
8000f284:	0c003713 	jal	8000dc4c <inode_check>
8000f288:	24a57894 	addiu	a1,a1,30868
8000f28c:	8e22003c 	lw	v0,60(s1)
8000f290:	8fa4001c 	lw	a0,28(sp)
8000f294:	8c42001c 	lw	v0,28(v0)
8000f298:	00000000 	nop
8000f29c:	0040f809 	jalr	v0
8000f2a0:	02002821 	move	a1,s0
8000f2a4:	08003c81 	j	8000f204 <vfs_getcwd+0x70>
8000f2a8:	00408821 	move	s1,v0
8000f2ac:	3c068001 	lui	a2,0x8001
8000f2b0:	248477ac 	addiu	a0,a0,30636
8000f2b4:	24050061 	li	a1,97
8000f2b8:	0c0009f2 	jal	800027c8 <__panic>
8000f2bc:	24c67830 	addiu	a2,a2,30768
8000f2c0:	3c048001 	lui	a0,0x8001
8000f2c4:	248477ac 	addiu	a0,a0,30636
8000f2c8:	24050057 	li	a1,87
8000f2cc:	0c0009f2 	jal	800027c8 <__panic>
8000f2d0:	24c67718 	addiu	a2,a2,30488

8000f2d4 <bitmap_create>:
8000f2d4:	27bdffd8 	addiu	sp,sp,-40
8000f2d8:	afb00018 	sw	s0,24(sp)
8000f2dc:	afbf0024 	sw	ra,36(sp)
8000f2e0:	afb20020 	sw	s2,32(sp)
8000f2e4:	afb1001c 	sw	s1,28(sp)
8000f2e8:	10800037 	beqz	a0,8000f3c8 <bitmap_create+0xf4>
8000f2ec:	00808021 	move	s0,a0
8000f2f0:	24820020 	addiu	v0,a0,32
8000f2f4:	0082102b 	sltu	v0,a0,v0
8000f2f8:	10400034 	beqz	v0,8000f3cc <bitmap_create+0xf8>
8000f2fc:	3c048001 	lui	a0,0x8001
8000f300:	0c001716 	jal	80005c58 <kmalloc>
8000f304:	2404000c 	li	a0,12
8000f308:	10400024 	beqz	v0,8000f39c <bitmap_create+0xc8>
8000f30c:	00408821 	move	s1,v0
8000f310:	2612001f 	addiu	s2,s0,31
8000f314:	00129142 	srl	s2,s2,0x5
8000f318:	00123080 	sll	a2,s2,0x2
8000f31c:	00c02021 	move	a0,a2
8000f320:	0c001716 	jal	80005c58 <kmalloc>
8000f324:	afa60010 	sw	a2,16(sp)
8000f328:	8fa60010 	lw	a2,16(sp)
8000f32c:	10400022 	beqz	v0,8000f3b8 <bitmap_create+0xe4>
8000f330:	00000000 	nop
8000f334:	ae300000 	sw	s0,0(s1)
8000f338:	ae320004 	sw	s2,4(s1)
8000f33c:	00402021 	move	a0,v0
8000f340:	0c00083d 	jal	800020f4 <memset>
8000f344:	240500ff 	li	a1,255
8000f348:	00121940 	sll	v1,s2,0x5
8000f34c:	10700013 	beq	v1,s0,8000f39c <bitmap_create+0xc8>
8000f350:	ae220008 	sw	v0,8(s1)
8000f354:	00101942 	srl	v1,s0,0x5
8000f358:	2652ffff 	addiu	s2,s2,-1
8000f35c:	14720026 	bne	v1,s2,8000f3f8 <bitmap_create+0x124>
8000f360:	00032140 	sll	a0,v1,0x5
8000f364:	02048023 	subu	s0,s0,a0
8000f368:	2604ffff 	addiu	a0,s0,-1
8000f36c:	2c84001f 	sltiu	a0,a0,31
8000f370:	1080001b 	beqz	a0,8000f3e0 <bitmap_create+0x10c>
8000f374:	00031880 	sll	v1,v1,0x2
8000f378:	00431021 	addu	v0,v0,v1
8000f37c:	8c430000 	lw	v1,0(v0)
8000f380:	24060001 	li	a2,1
8000f384:	24050020 	li	a1,32
8000f388:	02062004 	sllv	a0,a2,s0
8000f38c:	26100001 	addiu	s0,s0,1
8000f390:	1605fffd 	bne	s0,a1,8000f388 <bitmap_create+0xb4>
8000f394:	00641826 	xor	v1,v1,a0
8000f398:	ac430000 	sw	v1,0(v0)
8000f39c:	8fbf0024 	lw	ra,36(sp)
8000f3a0:	02201021 	move	v0,s1
8000f3a4:	8fb20020 	lw	s2,32(sp)
8000f3a8:	8fb1001c 	lw	s1,28(sp)
8000f3ac:	8fb00018 	lw	s0,24(sp)
8000f3b0:	03e00008 	jr	ra
8000f3b4:	27bd0028 	addiu	sp,sp,40
8000f3b8:	0c001740 	jal	80005d00 <kfree>
8000f3bc:	02202021 	move	a0,s1
8000f3c0:	08003ce7 	j	8000f39c <bitmap_create+0xc8>
8000f3c4:	00008821 	move	s1,zero
8000f3c8:	3c048001 	lui	a0,0x8001
8000f3cc:	3c068001 	lui	a2,0x8001
8000f3d0:	248478a0 	addiu	a0,a0,30880
8000f3d4:	24050015 	li	a1,21
8000f3d8:	0c0009f2 	jal	800027c8 <__panic>
8000f3dc:	24c678b8 	addiu	a2,a2,30904
8000f3e0:	3c048001 	lui	a0,0x8001
8000f3e4:	3c068001 	lui	a2,0x8001
8000f3e8:	248478a0 	addiu	a0,a0,30880
8000f3ec:	2405002b 	li	a1,43
8000f3f0:	0c0009f2 	jal	800027c8 <__panic>
8000f3f4:	24c67920 	addiu	a2,a2,31008
8000f3f8:	3c048001 	lui	a0,0x8001
8000f3fc:	3c068001 	lui	a2,0x8001
8000f400:	248478a0 	addiu	a0,a0,30880
8000f404:	2405002a 	li	a1,42
8000f408:	0c0009f2 	jal	800027c8 <__panic>
8000f40c:	24c678f4 	addiu	a2,a2,30964

8000f410 <bitmap_alloc>:
8000f410:	8c820004 	lw	v0,4(a0)
8000f414:	27bdffe8 	addiu	sp,sp,-24
8000f418:	afbf0014 	sw	ra,20(sp)
8000f41c:	8c870008 	lw	a3,8(a0)
8000f420:	10400010 	beqz	v0,8000f464 <bitmap_alloc+0x54>
8000f424:	00000000 	nop
8000f428:	8ce60000 	lw	a2,0(a3)
8000f42c:	00000000 	nop
8000f430:	14c00010 	bnez	a2,8000f474 <bitmap_alloc+0x64>
8000f434:	24e30004 	addiu	v1,a3,4
8000f438:	08003d16 	j	8000f458 <bitmap_alloc+0x48>
8000f43c:	00002021 	move	a0,zero
8000f440:	00603821 	move	a3,v1
8000f444:	24630004 	addiu	v1,v1,4
8000f448:	8c66fffc 	lw	a2,-4(v1)
8000f44c:	00000000 	nop
8000f450:	14c00009 	bnez	a2,8000f478 <bitmap_alloc+0x68>
8000f454:	00000000 	nop
8000f458:	24840001 	addiu	a0,a0,1
8000f45c:	1482fff8 	bne	a0,v0,8000f440 <bitmap_alloc+0x30>
8000f460:	00000000 	nop
8000f464:	8fbf0014 	lw	ra,20(sp)
8000f468:	2402fffc 	li	v0,-4
8000f46c:	03e00008 	jr	ra
8000f470:	27bd0018 	addiu	sp,sp,24
8000f474:	00002021 	move	a0,zero
8000f478:	00001021 	move	v0,zero
8000f47c:	24090001 	li	t1,1
8000f480:	08003d24 	j	8000f490 <bitmap_alloc+0x80>
8000f484:	240a0020 	li	t2,32
8000f488:	104a000f 	beq	v0,t2,8000f4c8 <bitmap_alloc+0xb8>
8000f48c:	00000000 	nop
8000f490:	00491804 	sllv	v1,t1,v0
8000f494:	00664024 	and	t0,v1,a2
8000f498:	1100fffb 	beqz	t0,8000f488 <bitmap_alloc+0x78>
8000f49c:	24420001 	addiu	v0,v0,1
8000f4a0:	2442ffff 	addiu	v0,v0,-1
8000f4a4:	00042140 	sll	a0,a0,0x5
8000f4a8:	8fbf0014 	lw	ra,20(sp)
8000f4ac:	00442021 	addu	a0,v0,a0
8000f4b0:	00663026 	xor	a2,v1,a2
8000f4b4:	ace60000 	sw	a2,0(a3)
8000f4b8:	00001021 	move	v0,zero
8000f4bc:	aca40000 	sw	a0,0(a1)
8000f4c0:	03e00008 	jr	ra
8000f4c4:	27bd0018 	addiu	sp,sp,24
8000f4c8:	3c048001 	lui	a0,0x8001
8000f4cc:	3c068001 	lui	a2,0x8001
8000f4d0:	248478a0 	addiu	a0,a0,30880
8000f4d4:	24050042 	li	a1,66
8000f4d8:	0c0009f2 	jal	800027c8 <__panic>
8000f4dc:	24c67958 	addiu	a2,a2,31064

8000f4e0 <bitmap_test>:
8000f4e0:	8c830000 	lw	v1,0(a0)
8000f4e4:	27bdffe8 	addiu	sp,sp,-24
8000f4e8:	00a3182b 	sltu	v1,a1,v1
8000f4ec:	1060000c 	beqz	v1,8000f520 <bitmap_test+0x40>
8000f4f0:	afbf0014 	sw	ra,20(sp)
8000f4f4:	00051142 	srl	v0,a1,0x5
8000f4f8:	8c830008 	lw	v1,8(a0)
8000f4fc:	00021080 	sll	v0,v0,0x2
8000f500:	00621021 	addu	v0,v1,v0
8000f504:	8c430000 	lw	v1,0(v0)
8000f508:	8fbf0014 	lw	ra,20(sp)
8000f50c:	24020001 	li	v0,1
8000f510:	00a22804 	sllv	a1,v0,a1
8000f514:	00a31024 	and	v0,a1,v1
8000f518:	03e00008 	jr	ra
8000f51c:	27bd0018 	addiu	sp,sp,24
8000f520:	3c048001 	lui	a0,0x8001
8000f524:	3c068001 	lui	a2,0x8001
8000f528:	248478a0 	addiu	a0,a0,30880
8000f52c:	2405004a 	li	a1,74
8000f530:	0c0009f2 	jal	800027c8 <__panic>
8000f534:	24c6796c 	addiu	a2,a2,31084

8000f538 <bitmap_free>:
8000f538:	8c820000 	lw	v0,0(a0)
8000f53c:	27bdffe8 	addiu	sp,sp,-24
8000f540:	00a2102b 	sltu	v0,a1,v0
8000f544:	1040000f 	beqz	v0,8000f584 <bitmap_free+0x4c>
8000f548:	afbf0014 	sw	ra,20(sp)
8000f54c:	8c830008 	lw	v1,8(a0)
8000f550:	00051142 	srl	v0,a1,0x5
8000f554:	00021080 	sll	v0,v0,0x2
8000f558:	00621021 	addu	v0,v1,v0
8000f55c:	24040001 	li	a0,1
8000f560:	8c430000 	lw	v1,0(v0)
8000f564:	00a42804 	sllv	a1,a0,a1
8000f568:	00a32024 	and	a0,a1,v1
8000f56c:	1480000b 	bnez	a0,8000f59c <bitmap_free+0x64>
8000f570:	00a32825 	or	a1,a1,v1
8000f574:	8fbf0014 	lw	ra,20(sp)
8000f578:	ac450000 	sw	a1,0(v0)
8000f57c:	03e00008 	jr	ra
8000f580:	27bd0018 	addiu	sp,sp,24
8000f584:	3c048001 	lui	a0,0x8001
8000f588:	3c068001 	lui	a2,0x8001
8000f58c:	248478a0 	addiu	a0,a0,30880
8000f590:	2405004a 	li	a1,74
8000f594:	0c0009f2 	jal	800027c8 <__panic>
8000f598:	24c6796c 	addiu	a2,a2,31084
8000f59c:	3c048001 	lui	a0,0x8001
8000f5a0:	3c068001 	lui	a2,0x8001
8000f5a4:	248478a0 	addiu	a0,a0,30880
8000f5a8:	2405005b 	li	a1,91
8000f5ac:	0c0009f2 	jal	800027c8 <__panic>
8000f5b0:	24c67994 	addiu	a2,a2,31124

8000f5b4 <bitmap_destroy>:
8000f5b4:	27bdffe8 	addiu	sp,sp,-24
8000f5b8:	afb00010 	sw	s0,16(sp)
8000f5bc:	00808021 	move	s0,a0
8000f5c0:	8c840008 	lw	a0,8(a0)
8000f5c4:	afbf0014 	sw	ra,20(sp)
8000f5c8:	0c001740 	jal	80005d00 <kfree>
8000f5cc:	00000000 	nop
8000f5d0:	02002021 	move	a0,s0
8000f5d4:	8fbf0014 	lw	ra,20(sp)
8000f5d8:	8fb00010 	lw	s0,16(sp)
8000f5dc:	08001740 	j	80005d00 <kfree>
8000f5e0:	27bd0018 	addiu	sp,sp,24

8000f5e4 <bitmap_getdata>:
8000f5e4:	10a00005 	beqz	a1,8000f5fc <bitmap_getdata+0x18>
8000f5e8:	00000000 	nop
8000f5ec:	8c820004 	lw	v0,4(a0)
8000f5f0:	00000000 	nop
8000f5f4:	00021080 	sll	v0,v0,0x2
8000f5f8:	aca20000 	sw	v0,0(a1)
8000f5fc:	8c820008 	lw	v0,8(a0)
8000f600:	03e00008 	jr	ra
8000f604:	00000000 	nop

8000f608 <sfs_init>:
8000f608:	3c048001 	lui	a0,0x8001
8000f60c:	27bdffe8 	addiu	sp,sp,-24
8000f610:	afbf0014 	sw	ra,20(sp)
8000f614:	0c003f6c 	jal	8000fdb0 <sfs_mount>
8000f618:	248479b8 	addiu	a0,a0,31160
8000f61c:	14400005 	bnez	v0,8000f634 <sfs_init+0x2c>
8000f620:	3c068001 	lui	a2,0x8001
8000f624:	8fbf0014 	lw	ra,20(sp)
8000f628:	00000000 	nop
8000f62c:	03e00008 	jr	ra
8000f630:	27bd0018 	addiu	sp,sp,24
8000f634:	3c048001 	lui	a0,0x8001
8000f638:	248479c0 	addiu	a0,a0,31168
8000f63c:	2405000a 	li	a1,10
8000f640:	24c679d4 	addiu	a2,a2,31188
8000f644:	0c0009f2 	jal	800027c8 <__panic>
8000f648:	00403821 	move	a3,v0

8000f64c <sfs_do_mount>:
8000f64c:	8c820004 	lw	v0,4(a0)
8000f650:	27bdff98 	addiu	sp,sp,-104
8000f654:	24031000 	li	v1,4096
8000f658:	afb7005c 	sw	s7,92(sp)
8000f65c:	afb00040 	sw	s0,64(sp)
8000f660:	afbf0064 	sw	ra,100(sp)
8000f664:	afbe0060 	sw	s8,96(sp)
8000f668:	afb60058 	sw	s6,88(sp)
8000f66c:	afb50054 	sw	s5,84(sp)
8000f670:	afb40050 	sw	s4,80(sp)
8000f674:	afb3004c 	sw	s3,76(sp)
8000f678:	afb20048 	sw	s2,72(sp)
8000f67c:	afb10044 	sw	s1,68(sp)
8000f680:	00808021 	move	s0,a0
8000f684:	14430090 	bne	v0,v1,8000f8c8 <sfs_do_mount+0x27c>
8000f688:	00a0b821 	move	s7,a1
8000f68c:	0c0037da 	jal	8000df68 <__alloc_fs>
8000f690:	00002021 	move	a0,zero
8000f694:	104000d2 	beqz	v0,8000f9e0 <sfs_do_mount+0x394>
8000f698:	00408821 	move	s1,v0
8000f69c:	8c42006c 	lw	v0,108(v0)
8000f6a0:	00000000 	nop
8000f6a4:	144000d0 	bnez	v0,8000f9e8 <sfs_do_mount+0x39c>
8000f6a8:	3c048001 	lui	a0,0x8001
8000f6ac:	ae30002c 	sw	s0,44(s1)
8000f6b0:	0c001716 	jal	80005c58 <kmalloc>
8000f6b4:	24041000 	li	a0,4096
8000f6b8:	00409021 	move	s2,v0
8000f6bc:	10400088 	beqz	v0,8000f8e0 <sfs_do_mount+0x294>
8000f6c0:	ae220038 	sw	v0,56(s1)
8000f6c4:	27a4001c 	addiu	a0,sp,28
8000f6c8:	00402821 	move	a1,v0
8000f6cc:	24061000 	li	a2,4096
8000f6d0:	0c0033cb 	jal	8000cf2c <iobuf_init>
8000f6d4:	00003821 	move	a3,zero
8000f6d8:	8e030010 	lw	v1,16(s0)
8000f6dc:	02002021 	move	a0,s0
8000f6e0:	00402821 	move	a1,v0
8000f6e4:	0060f809 	jalr	v1
8000f6e8:	00003021 	move	a2,zero
8000f6ec:	14400009 	bnez	v0,8000f714 <sfs_do_mount+0xc8>
8000f6f0:	00409821 	move	s3,v0
8000f6f4:	3c062f8d 	lui	a2,0x2f8d
8000f6f8:	8e450000 	lw	a1,0(s2)
8000f6fc:	34c6be2a 	ori	a2,a2,0xbe2a
8000f700:	10a60015 	beq	a1,a2,8000f758 <sfs_do_mount+0x10c>
8000f704:	3c048001 	lui	a0,0x8001
8000f708:	0c000727 	jal	80001c9c <kprintf>
8000f70c:	24847a48 	addiu	a0,a0,31304
8000f710:	2413fffd 	li	s3,-3
8000f714:	0c001740 	jal	80005d00 <kfree>
8000f718:	02402021 	move	a0,s2
8000f71c:	0c001740 	jal	80005d00 <kfree>
8000f720:	02202021 	move	a0,s1
8000f724:	8fbf0064 	lw	ra,100(sp)
8000f728:	02601021 	move	v0,s3
8000f72c:	8fbe0060 	lw	s8,96(sp)
8000f730:	8fb7005c 	lw	s7,92(sp)
8000f734:	8fb60058 	lw	s6,88(sp)
8000f738:	8fb50054 	lw	s5,84(sp)
8000f73c:	8fb40050 	lw	s4,80(sp)
8000f740:	8fb3004c 	lw	s3,76(sp)
8000f744:	8fb20048 	lw	s2,72(sp)
8000f748:	8fb10044 	lw	s1,68(sp)
8000f74c:	8fb00040 	lw	s0,64(sp)
8000f750:	03e00008 	jr	ra
8000f754:	27bd0068 	addiu	sp,sp,104
8000f758:	8e450004 	lw	a1,4(s2)
8000f75c:	8e060000 	lw	a2,0(s0)
8000f760:	00000000 	nop
8000f764:	00c5102b 	sltu	v0,a2,a1
8000f768:	14400059 	bnez	v0,8000f8d0 <sfs_do_mount+0x284>
8000f76c:	3c048001 	lui	a0,0x8001
8000f770:	a240002b 	sb	zero,43(s2)
8000f774:	02401821 	move	v1,s2
8000f778:	02201021 	move	v0,s1
8000f77c:	26440020 	addiu	a0,s2,32
8000f780:	8c680000 	lw	t0,0(v1)
8000f784:	8c670004 	lw	a3,4(v1)
8000f788:	8c660008 	lw	a2,8(v1)
8000f78c:	8c65000c 	lw	a1,12(v1)
8000f790:	24630010 	addiu	v1,v1,16
8000f794:	ac480000 	sw	t0,0(v0)
8000f798:	ac470004 	sw	a3,4(v0)
8000f79c:	ac460008 	sw	a2,8(v0)
8000f7a0:	ac45000c 	sw	a1,12(v0)
8000f7a4:	1464fff6 	bne	v1,a0,8000f780 <sfs_do_mount+0x134>
8000f7a8:	24420010 	addiu	v0,v0,16
8000f7ac:	8c660000 	lw	a2,0(v1)
8000f7b0:	8c650004 	lw	a1,4(v1)
8000f7b4:	8c630008 	lw	v1,8(v1)
8000f7b8:	24042000 	li	a0,8192
8000f7bc:	ac460000 	sw	a2,0(v0)
8000f7c0:	ac450004 	sw	a1,4(v0)
8000f7c4:	0c001716 	jal	80005c58 <kmalloc>
8000f7c8:	ac430008 	sw	v1,8(v0)
8000f7cc:	afa20034 	sw	v0,52(sp)
8000f7d0:	1040007f 	beqz	v0,8000f9d0 <sfs_do_mount+0x384>
8000f7d4:	ae220068 	sw	v0,104(s1)
8000f7d8:	00001821 	move	v1,zero
8000f7dc:	24040400 	li	a0,1024
8000f7e0:	24630001 	addiu	v1,v1,1
8000f7e4:	ac420004 	sw	v0,4(v0)
8000f7e8:	ac420000 	sw	v0,0(v0)
8000f7ec:	1464fffc 	bne	v1,a0,8000f7e0 <sfs_do_mount+0x194>
8000f7f0:	24420008 	addiu	v0,v0,8
8000f7f4:	8e420004 	lw	v0,4(s2)
8000f7f8:	00000000 	nop
8000f7fc:	24427fff 	addiu	v0,v0,32767
8000f800:	000213c2 	srl	v0,v0,0xf
8000f804:	000213c0 	sll	v0,v0,0xf
8000f808:	00402021 	move	a0,v0
8000f80c:	0c003cb5 	jal	8000f2d4 <bitmap_create>
8000f810:	afa20030 	sw	v0,48(sp)
8000f814:	0040f021 	move	s8,v0
8000f818:	1040006f 	beqz	v0,8000f9d8 <sfs_do_mount+0x38c>
8000f81c:	ae220030 	sw	v0,48(s1)
8000f820:	00402021 	move	a0,v0
8000f824:	8e540004 	lw	s4,4(s2)
8000f828:	0c003d79 	jal	8000f5e4 <bitmap_getdata>
8000f82c:	27a50018 	addiu	a1,sp,24
8000f830:	10400072 	beqz	v0,8000f9fc <sfs_do_mount+0x3b0>
8000f834:	0040a821 	move	s5,v0
8000f838:	26947fff 	addiu	s4,s4,32767
8000f83c:	0014a3c2 	srl	s4,s4,0xf
8000f840:	8fa20018 	lw	v0,24(sp)
8000f844:	00141b00 	sll	v1,s4,0xc
8000f848:	1462006d 	bne	v1,v0,8000fa00 <sfs_do_mount+0x3b4>
8000f84c:	3c048001 	lui	a0,0x8001
8000f850:	12800025 	beqz	s4,8000f8e8 <sfs_do_mount+0x29c>
8000f854:	24162000 	li	s6,8192
8000f858:	08003e1c 	j	8000f870 <sfs_do_mount+0x224>
8000f85c:	27a4001c 	addiu	a0,sp,28
8000f860:	26b51000 	addiu	s5,s5,4096
8000f864:	12800020 	beqz	s4,8000f8e8 <sfs_do_mount+0x29c>
8000f868:	26d61000 	addiu	s6,s6,4096
8000f86c:	27a4001c 	addiu	a0,sp,28
8000f870:	02a02821 	move	a1,s5
8000f874:	24061000 	li	a2,4096
8000f878:	0c0033cb 	jal	8000cf2c <iobuf_init>
8000f87c:	02c03821 	move	a3,s6
8000f880:	8e030010 	lw	v1,16(s0)
8000f884:	02002021 	move	a0,s0
8000f888:	00402821 	move	a1,v0
8000f88c:	0060f809 	jalr	v1
8000f890:	00003021 	move	a2,zero
8000f894:	1040fff2 	beqz	v0,8000f860 <sfs_do_mount+0x214>
8000f898:	2694ffff 	addiu	s4,s4,-1
8000f89c:	03c02021 	move	a0,s8
8000f8a0:	0c003d6d 	jal	8000f5b4 <bitmap_destroy>
8000f8a4:	afa20038 	sw	v0,56(sp)
8000f8a8:	8fa20038 	lw	v0,56(sp)
8000f8ac:	00000000 	nop
8000f8b0:	00409821 	move	s3,v0
8000f8b4:	8fa40034 	lw	a0,52(sp)
8000f8b8:	0c001740 	jal	80005d00 <kfree>
8000f8bc:	00000000 	nop
8000f8c0:	08003dc5 	j	8000f714 <sfs_do_mount+0xc8>
8000f8c4:	00000000 	nop
8000f8c8:	08003dc9 	j	8000f724 <sfs_do_mount+0xd8>
8000f8cc:	2413fff2 	li	s3,-14
8000f8d0:	0c000727 	jal	80001c9c <kprintf>
8000f8d4:	24847a80 	addiu	a0,a0,31360
8000f8d8:	08003dc5 	j	8000f714 <sfs_do_mount+0xc8>
8000f8dc:	2413fffd 	li	s3,-3
8000f8e0:	08003dc7 	j	8000f71c <sfs_do_mount+0xd0>
8000f8e4:	2413fffc 	li	s3,-4
8000f8e8:	8fa20030 	lw	v0,48(sp)
8000f8ec:	8e320004 	lw	s2,4(s1)
8000f8f0:	1040000c 	beqz	v0,8000f924 <sfs_do_mount+0x2d8>
8000f8f4:	00008021 	move	s0,zero
8000f8f8:	0000a021 	move	s4,zero
8000f8fc:	03c02021 	move	a0,s8
8000f900:	0c003d38 	jal	8000f4e0 <bitmap_test>
8000f904:	02802821 	move	a1,s4
8000f908:	10400002 	beqz	v0,8000f914 <sfs_do_mount+0x2c8>
8000f90c:	00000000 	nop
8000f910:	26100001 	addiu	s0,s0,1
8000f914:	8fa20030 	lw	v0,48(sp)
8000f918:	26940001 	addiu	s4,s4,1
8000f91c:	1682fff8 	bne	s4,v0,8000f900 <sfs_do_mount+0x2b4>
8000f920:	03c02021 	move	a0,s8
8000f924:	8e260008 	lw	a2,8(s1)
8000f928:	00000000 	nop
8000f92c:	10d00006 	beq	a2,s0,8000f948 <sfs_do_mount+0x2fc>
8000f930:	00000000 	nop
8000f934:	3c048001 	lui	a0,0x8001
8000f938:	8fa70030 	lw	a3,48(sp)
8000f93c:	24847af0 	addiu	a0,a0,31472
8000f940:	0c000727 	jal	80001c9c <kprintf>
8000f944:	02002821 	move	a1,s0
8000f948:	2624003c 	addiu	a0,s1,60
8000f94c:	24050001 	li	a1,1
8000f950:	0c0022f3 	jal	80008bcc <sem_init>
8000f954:	ae200034 	sw	zero,52(s1)
8000f958:	26240048 	addiu	a0,s1,72
8000f95c:	0c0022f3 	jal	80008bcc <sem_init>
8000f960:	24050001 	li	a1,1
8000f964:	26240054 	addiu	a0,s1,84
8000f968:	0c0022f3 	jal	80008bcc <sem_init>
8000f96c:	24050001 	li	a1,1
8000f970:	26220060 	addiu	v0,s1,96
8000f974:	3c048001 	lui	a0,0x8001
8000f978:	ae220064 	sw	v0,100(s1)
8000f97c:	ae220060 	sw	v0,96(s1)
8000f980:	24847b44 	addiu	a0,a0,31556
8000f984:	2625000c 	addiu	a1,s1,12
8000f988:	02503023 	subu	a2,s2,s0
8000f98c:	02003821 	move	a3,s0
8000f990:	0c000727 	jal	80001c9c <kprintf>
8000f994:	afb20010 	sw	s2,16(sp)
8000f998:	3c028001 	lui	v0,0x8001
8000f99c:	2442fa14 	addiu	v0,v0,-1516
8000f9a0:	ae220070 	sw	v0,112(s1)
8000f9a4:	3c028001 	lui	v0,0x8001
8000f9a8:	2442fd44 	addiu	v0,v0,-700
8000f9ac:	ae220074 	sw	v0,116(s1)
8000f9b0:	3c028001 	lui	v0,0x8001
8000f9b4:	2442fba8 	addiu	v0,v0,-1112
8000f9b8:	ae220078 	sw	v0,120(s1)
8000f9bc:	3c028001 	lui	v0,0x8001
8000f9c0:	2442fc68 	addiu	v0,v0,-920
8000f9c4:	ae22007c 	sw	v0,124(s1)
8000f9c8:	08003dc9 	j	8000f724 <sfs_do_mount+0xd8>
8000f9cc:	aef10000 	sw	s1,0(s7)
8000f9d0:	08003dc5 	j	8000f714 <sfs_do_mount+0xc8>
8000f9d4:	2413fffc 	li	s3,-4
8000f9d8:	08003e2d 	j	8000f8b4 <sfs_do_mount+0x268>
8000f9dc:	2413fffc 	li	s3,-4
8000f9e0:	08003dc9 	j	8000f724 <sfs_do_mount+0xd8>
8000f9e4:	2413fffc 	li	s3,-4
8000f9e8:	3c068001 	lui	a2,0x8001
8000f9ec:	248479f4 	addiu	a0,a0,31220
8000f9f0:	24050079 	li	a1,121
8000f9f4:	0c0009f2 	jal	800027c8 <__panic>
8000f9f8:	24c67a0c 	addiu	a2,a2,31244
8000f9fc:	3c048001 	lui	a0,0x8001
8000fa00:	3c068001 	lui	a2,0x8001
8000fa04:	248479f4 	addiu	a0,a0,31220
8000fa08:	2405005f 	li	a1,95
8000fa0c:	0c0009f2 	jal	800027c8 <__panic>
8000fa10:	24c67ab0 	addiu	a2,a2,31408

8000fa14 <sfs_sync>:
8000fa14:	27bdffd8 	addiu	sp,sp,-40
8000fa18:	afb3001c 	sw	s3,28(sp)
8000fa1c:	afbf0024 	sw	ra,36(sp)
8000fa20:	afb40020 	sw	s4,32(sp)
8000fa24:	afb20018 	sw	s2,24(sp)
8000fa28:	afb10014 	sw	s1,20(sp)
8000fa2c:	afb00010 	sw	s0,16(sp)
8000fa30:	10800057 	beqz	a0,8000fb90 <sfs_sync+0x17c>
8000fa34:	00809821 	move	s3,a0
8000fa38:	8c82006c 	lw	v0,108(a0)
8000fa3c:	00000000 	nop
8000fa40:	14400053 	bnez	v0,8000fb90 <sfs_sync+0x17c>
8000fa44:	00000000 	nop
8000fa48:	0c004873 	jal	800121cc <lock_sfs_fs>
8000fa4c:	26710060 	addiu	s1,s3,96
8000fa50:	8e700064 	lw	s0,100(s3)
8000fa54:	00000000 	nop
8000fa58:	12300026 	beq	s1,s0,8000faf4 <sfs_sync+0xe0>
8000fa5c:	00000000 	nop
8000fa60:	2614ffe4 	addiu	s4,s0,-28
8000fa64:	12800045 	beqz	s4,8000fb7c <sfs_sync+0x168>
8000fa68:	3c048001 	lui	a0,0x8001
8000fa6c:	8e020020 	lw	v0,32(s0)
8000fa70:	00000000 	nop
8000fa74:	10400042 	beqz	v0,8000fb80 <sfs_sync+0x16c>
8000fa78:	3c068001 	lui	a2,0x8001
8000fa7c:	8c420018 	lw	v0,24(v0)
8000fa80:	00000000 	nop
8000fa84:	1040003d 	beqz	v0,8000fb7c <sfs_sync+0x168>
8000fa88:	3c128001 	lui	s2,0x8001
8000fa8c:	08003eb0 	j	8000fac0 <sfs_sync+0xac>
8000fa90:	26526ed8 	addiu	s2,s2,28376
8000fa94:	2614ffe4 	addiu	s4,s0,-28
8000fa98:	12800038 	beqz	s4,8000fb7c <sfs_sync+0x168>
8000fa9c:	3c048001 	lui	a0,0x8001
8000faa0:	8e020020 	lw	v0,32(s0)
8000faa4:	00000000 	nop
8000faa8:	10400035 	beqz	v0,8000fb80 <sfs_sync+0x16c>
8000faac:	3c068001 	lui	a2,0x8001
8000fab0:	8c420018 	lw	v0,24(v0)
8000fab4:	00000000 	nop
8000fab8:	10400031 	beqz	v0,8000fb80 <sfs_sync+0x16c>
8000fabc:	00000000 	nop
8000fac0:	02802021 	move	a0,s4
8000fac4:	0c003713 	jal	8000dc4c <inode_check>
8000fac8:	02402821 	move	a1,s2
8000facc:	8e020020 	lw	v0,32(s0)
8000fad0:	00000000 	nop
8000fad4:	8c420018 	lw	v0,24(v0)
8000fad8:	00000000 	nop
8000fadc:	0040f809 	jalr	v0
8000fae0:	02802021 	move	a0,s4
8000fae4:	8e100004 	lw	s0,4(s0)
8000fae8:	00000000 	nop
8000faec:	1630ffe9 	bne	s1,s0,8000fa94 <sfs_sync+0x80>
8000faf0:	00000000 	nop
8000faf4:	0c004879 	jal	800121e4 <unlock_sfs_fs>
8000faf8:	02602021 	move	a0,s3
8000fafc:	8e620034 	lw	v0,52(s3)
8000fb00:	00000000 	nop
8000fb04:	14400009 	bnez	v0,8000fb2c <sfs_sync+0x118>
8000fb08:	00001021 	move	v0,zero
8000fb0c:	8fbf0024 	lw	ra,36(sp)
8000fb10:	8fb40020 	lw	s4,32(sp)
8000fb14:	8fb3001c 	lw	s3,28(sp)
8000fb18:	8fb20018 	lw	s2,24(sp)
8000fb1c:	8fb10014 	lw	s1,20(sp)
8000fb20:	8fb00010 	lw	s0,16(sp)
8000fb24:	03e00008 	jr	ra
8000fb28:	27bd0028 	addiu	sp,sp,40
8000fb2c:	ae600034 	sw	zero,52(s3)
8000fb30:	0c00481c 	jal	80012070 <sfs_sync_super>
8000fb34:	02602021 	move	a0,s3
8000fb38:	1040000a 	beqz	v0,8000fb64 <sfs_sync+0x150>
8000fb3c:	24030001 	li	v1,1
8000fb40:	ae630034 	sw	v1,52(s3)
8000fb44:	8fbf0024 	lw	ra,36(sp)
8000fb48:	8fb40020 	lw	s4,32(sp)
8000fb4c:	8fb3001c 	lw	s3,28(sp)
8000fb50:	8fb20018 	lw	s2,24(sp)
8000fb54:	8fb10014 	lw	s1,20(sp)
8000fb58:	8fb00010 	lw	s0,16(sp)
8000fb5c:	03e00008 	jr	ra
8000fb60:	27bd0028 	addiu	sp,sp,40
8000fb64:	0c004837 	jal	800120dc <sfs_sync_freemap>
8000fb68:	02602021 	move	a0,s3
8000fb6c:	1040ffe7 	beqz	v0,8000fb0c <sfs_sync+0xf8>
8000fb70:	24030001 	li	v1,1
8000fb74:	08003ed1 	j	8000fb44 <sfs_sync+0x130>
8000fb78:	ae630034 	sw	v1,52(s3)
8000fb7c:	3c068001 	lui	a2,0x8001
8000fb80:	248479f4 	addiu	a0,a0,31220
8000fb84:	24050018 	li	a1,24
8000fb88:	0c0009f2 	jal	800027c8 <__panic>
8000fb8c:	24c66e78 	addiu	a2,a2,28280
8000fb90:	3c048001 	lui	a0,0x8001
8000fb94:	3c068001 	lui	a2,0x8001
8000fb98:	248479f4 	addiu	a0,a0,31220
8000fb9c:	24050012 	li	a1,18
8000fba0:	0c0009f2 	jal	800027c8 <__panic>
8000fba4:	24c67a0c 	addiu	a2,a2,31244

8000fba8 <sfs_unmount>:
8000fba8:	27bdffe8 	addiu	sp,sp,-24
8000fbac:	afb00010 	sw	s0,16(sp)
8000fbb0:	afbf0014 	sw	ra,20(sp)
8000fbb4:	10800021 	beqz	a0,8000fc3c <sfs_unmount+0x94>
8000fbb8:	00808021 	move	s0,a0
8000fbbc:	8c82006c 	lw	v0,108(a0)
8000fbc0:	00000000 	nop
8000fbc4:	1440001d 	bnez	v0,8000fc3c <sfs_unmount+0x94>
8000fbc8:	24820060 	addiu	v0,a0,96
8000fbcc:	8c830064 	lw	v1,100(a0)
8000fbd0:	00000000 	nop
8000fbd4:	14620015 	bne	v1,v0,8000fc2c <sfs_unmount+0x84>
8000fbd8:	2402fff1 	li	v0,-15
8000fbdc:	8c820034 	lw	v0,52(a0)
8000fbe0:	00000000 	nop
8000fbe4:	1440001b 	bnez	v0,8000fc54 <sfs_unmount+0xac>
8000fbe8:	3c068001 	lui	a2,0x8001
8000fbec:	8c840030 	lw	a0,48(a0)
8000fbf0:	0c003d6d 	jal	8000f5b4 <bitmap_destroy>
8000fbf4:	00000000 	nop
8000fbf8:	8e040038 	lw	a0,56(s0)
8000fbfc:	0c001740 	jal	80005d00 <kfree>
8000fc00:	00000000 	nop
8000fc04:	8e040068 	lw	a0,104(s0)
8000fc08:	0c001740 	jal	80005d00 <kfree>
8000fc0c:	00000000 	nop
8000fc10:	0c001740 	jal	80005d00 <kfree>
8000fc14:	02002021 	move	a0,s0
8000fc18:	8fbf0014 	lw	ra,20(sp)
8000fc1c:	00001021 	move	v0,zero
8000fc20:	8fb00010 	lw	s0,16(sp)
8000fc24:	03e00008 	jr	ra
8000fc28:	27bd0018 	addiu	sp,sp,24
8000fc2c:	8fbf0014 	lw	ra,20(sp)
8000fc30:	8fb00010 	lw	s0,16(sp)
8000fc34:	03e00008 	jr	ra
8000fc38:	27bd0018 	addiu	sp,sp,24
8000fc3c:	3c048001 	lui	a0,0x8001
8000fc40:	3c068001 	lui	a2,0x8001
8000fc44:	248479f4 	addiu	a0,a0,31220
8000fc48:	24050038 	li	a1,56
8000fc4c:	0c0009f2 	jal	800027c8 <__panic>
8000fc50:	24c67a0c 	addiu	a2,a2,31244
8000fc54:	3c048001 	lui	a0,0x8001
8000fc58:	248479f4 	addiu	a0,a0,31220
8000fc5c:	2405003c 	li	a1,60
8000fc60:	0c0009f2 	jal	800027c8 <__panic>
8000fc64:	24c67b64 	addiu	a2,a2,31588

8000fc68 <sfs_cleanup>:
8000fc68:	27bdffd8 	addiu	sp,sp,-40
8000fc6c:	afb1001c 	sw	s1,28(sp)
8000fc70:	afbf0024 	sw	ra,36(sp)
8000fc74:	afb20020 	sw	s2,32(sp)
8000fc78:	afb00018 	sw	s0,24(sp)
8000fc7c:	1080002b 	beqz	a0,8000fd2c <sfs_cleanup+0xc4>
8000fc80:	00808821 	move	s1,a0
8000fc84:	8c82006c 	lw	v0,108(a0)
8000fc88:	00000000 	nop
8000fc8c:	14400027 	bnez	v0,8000fd2c <sfs_cleanup+0xc4>
8000fc90:	2492000c 	addiu	s2,a0,12
8000fc94:	8c870008 	lw	a3,8(a0)
8000fc98:	8c820004 	lw	v0,4(a0)
8000fc9c:	3c048001 	lui	a0,0x8001
8000fca0:	24847b88 	addiu	a0,a0,31624
8000fca4:	02402821 	move	a1,s2
8000fca8:	00473023 	subu	a2,v0,a3
8000fcac:	afa20010 	sw	v0,16(sp)
8000fcb0:	0c000727 	jal	80001c9c <kprintf>
8000fcb4:	24100020 	li	s0,32
8000fcb8:	08003f32 	j	8000fcc8 <sfs_cleanup+0x60>
8000fcbc:	00000000 	nop
8000fcc0:	1200000d 	beqz	s0,8000fcf8 <sfs_cleanup+0x90>
8000fcc4:	3c048001 	lui	a0,0x8001
8000fcc8:	8e220070 	lw	v0,112(s1)
8000fccc:	00000000 	nop
8000fcd0:	0040f809 	jalr	v0
8000fcd4:	02202021 	move	a0,s1
8000fcd8:	1440fff9 	bnez	v0,8000fcc0 <sfs_cleanup+0x58>
8000fcdc:	2610ffff 	addiu	s0,s0,-1
8000fce0:	8fbf0024 	lw	ra,36(sp)
8000fce4:	8fb20020 	lw	s2,32(sp)
8000fce8:	8fb1001c 	lw	s1,28(sp)
8000fcec:	8fb00018 	lw	s0,24(sp)
8000fcf0:	03e00008 	jr	ra
8000fcf4:	27bd0028 	addiu	sp,sp,40
8000fcf8:	3c068001 	lui	a2,0x8001
8000fcfc:	02403821 	move	a3,s2
8000fd00:	248479f4 	addiu	a0,a0,31220
8000fd04:	24050051 	li	a1,81
8000fd08:	24c67ba8 	addiu	a2,a2,31656
8000fd0c:	0c000a12 	jal	80002848 <__warn>
8000fd10:	afa20010 	sw	v0,16(sp)
8000fd14:	8fbf0024 	lw	ra,36(sp)
8000fd18:	8fb20020 	lw	s2,32(sp)
8000fd1c:	8fb1001c 	lw	s1,28(sp)
8000fd20:	8fb00018 	lw	s0,24(sp)
8000fd24:	03e00008 	jr	ra
8000fd28:	27bd0028 	addiu	sp,sp,40
8000fd2c:	3c048001 	lui	a0,0x8001
8000fd30:	3c068001 	lui	a2,0x8001
8000fd34:	248479f4 	addiu	a0,a0,31220
8000fd38:	24050046 	li	a1,70
8000fd3c:	0c0009f2 	jal	800027c8 <__panic>
8000fd40:	24c67a0c 	addiu	a2,a2,31244

8000fd44 <sfs_get_root>:
8000fd44:	27bdffe0 	addiu	sp,sp,-32
8000fd48:	1080000d 	beqz	a0,8000fd80 <sfs_get_root+0x3c>
8000fd4c:	afbf001c 	sw	ra,28(sp)
8000fd50:	8c82006c 	lw	v0,108(a0)
8000fd54:	00000000 	nop
8000fd58:	14400009 	bnez	v0,8000fd80 <sfs_get_root+0x3c>
8000fd5c:	27a50010 	addiu	a1,sp,16
8000fd60:	0c004526 	jal	80011498 <sfs_load_inode>
8000fd64:	24060001 	li	a2,1
8000fd68:	1440000b 	bnez	v0,8000fd98 <sfs_get_root+0x54>
8000fd6c:	3c048001 	lui	a0,0x8001
8000fd70:	8fbf001c 	lw	ra,28(sp)
8000fd74:	8fa20010 	lw	v0,16(sp)
8000fd78:	03e00008 	jr	ra
8000fd7c:	27bd0020 	addiu	sp,sp,32
8000fd80:	3c048001 	lui	a0,0x8001
8000fd84:	3c068001 	lui	a2,0x8001
8000fd88:	248479f4 	addiu	a0,a0,31220
8000fd8c:	24050030 	li	a1,48
8000fd90:	0c0009f2 	jal	800027c8 <__panic>
8000fd94:	24c67a0c 	addiu	a2,a2,31244
8000fd98:	3c068001 	lui	a2,0x8001
8000fd9c:	248479f4 	addiu	a0,a0,31220
8000fda0:	24050031 	li	a1,49
8000fda4:	24c67bc4 	addiu	a2,a2,31684
8000fda8:	0c0009f2 	jal	800027c8 <__panic>
8000fdac:	00403821 	move	a3,v0

8000fdb0 <sfs_mount>:
8000fdb0:	3c058001 	lui	a1,0x8001
8000fdb4:	0800397c 	j	8000e5f0 <vfs_mount>
8000fdb8:	24a5f64c 	addiu	a1,a1,-2484

8000fdbc <sfs_opendir>:
8000fdbc:	30a20003 	andi	v0,a1,0x3
8000fdc0:	10400003 	beqz	v0,8000fdd0 <sfs_opendir+0x14>
8000fdc4:	30a50020 	andi	a1,a1,0x20
8000fdc8:	03e00008 	jr	ra
8000fdcc:	2402ffef 	li	v0,-17
8000fdd0:	14a0fffd 	bnez	a1,8000fdc8 <sfs_opendir+0xc>
8000fdd4:	00000000 	nop
8000fdd8:	03e00008 	jr	ra
8000fddc:	00001021 	move	v0,zero

8000fde0 <sfs_openfile>:
8000fde0:	03e00008 	jr	ra
8000fde4:	00001021 	move	v0,zero

8000fde8 <sfs_fsync>:
8000fde8:	27bdffd0 	addiu	sp,sp,-48
8000fdec:	afb20028 	sw	s2,40(sp)
8000fdf0:	8c920038 	lw	s2,56(a0)
8000fdf4:	afb00020 	sw	s0,32(sp)
8000fdf8:	afbf002c 	sw	ra,44(sp)
8000fdfc:	afb10024 	sw	s1,36(sp)
8000fe00:	12400030 	beqz	s2,8000fec4 <sfs_fsync+0xdc>
8000fe04:	00808021 	move	s0,a0
8000fe08:	8e42006c 	lw	v0,108(s2)
8000fe0c:	00000000 	nop
8000fe10:	1440002c 	bnez	v0,8000fec4 <sfs_fsync+0xdc>
8000fe14:	24021235 	li	v0,4661
8000fe18:	8c83002c 	lw	v1,44(a0)
8000fe1c:	00000000 	nop
8000fe20:	1462002e 	bne	v1,v0,8000fedc <sfs_fsync+0xf4>
8000fe24:	3c068001 	lui	a2,0x8001
8000fe28:	8c820008 	lw	v0,8(a0)
8000fe2c:	00000000 	nop
8000fe30:	14400007 	bnez	v0,8000fe50 <sfs_fsync+0x68>
8000fe34:	00001021 	move	v0,zero
8000fe38:	8fbf002c 	lw	ra,44(sp)
8000fe3c:	8fb20028 	lw	s2,40(sp)
8000fe40:	8fb10024 	lw	s1,36(sp)
8000fe44:	8fb00020 	lw	s0,32(sp)
8000fe48:	03e00008 	jr	ra
8000fe4c:	27bd0030 	addiu	sp,sp,48
8000fe50:	24910010 	addiu	s1,a0,16
8000fe54:	0c0022f8 	jal	80008be0 <down>
8000fe58:	02202021 	move	a0,s1
8000fe5c:	8e020008 	lw	v0,8(s0)
8000fe60:	00000000 	nop
8000fe64:	1440000b 	bnez	v0,8000fe94 <sfs_fsync+0xac>
8000fe68:	00001021 	move	v0,zero
8000fe6c:	02202021 	move	a0,s1
8000fe70:	0c0022f6 	jal	80008bd8 <up>
8000fe74:	afa20018 	sw	v0,24(sp)
8000fe78:	8fbf002c 	lw	ra,44(sp)
8000fe7c:	8fa20018 	lw	v0,24(sp)
8000fe80:	8fb20028 	lw	s2,40(sp)
8000fe84:	8fb10024 	lw	s1,36(sp)
8000fe88:	8fb00020 	lw	s0,32(sp)
8000fe8c:	03e00008 	jr	ra
8000fe90:	27bd0030 	addiu	sp,sp,48
8000fe94:	8e050000 	lw	a1,0(s0)
8000fe98:	8e070004 	lw	a3,4(s0)
8000fe9c:	ae000008 	sw	zero,8(s0)
8000fea0:	02402021 	move	a0,s2
8000fea4:	24060040 	li	a2,64
8000fea8:	0c0047e1 	jal	80011f84 <sfs_wbuf>
8000feac:	afa00010 	sw	zero,16(sp)
8000feb0:	1040ffef 	beqz	v0,8000fe70 <sfs_fsync+0x88>
8000feb4:	02202021 	move	a0,s1
8000feb8:	24030001 	li	v1,1
8000febc:	08003f9c 	j	8000fe70 <sfs_fsync+0x88>
8000fec0:	ae030008 	sw	v1,8(s0)
8000fec4:	3c048001 	lui	a0,0x8001
8000fec8:	3c068001 	lui	a2,0x8001
8000fecc:	24847be0 	addiu	a0,a0,31712
8000fed0:	2405023b 	li	a1,571
8000fed4:	0c0009f2 	jal	800027c8 <__panic>
8000fed8:	24c67a0c 	addiu	a2,a2,31244
8000fedc:	3c048001 	lui	a0,0x8001
8000fee0:	24847be0 	addiu	a0,a0,31712
8000fee4:	2405023c 	li	a1,572
8000fee8:	0c0009f2 	jal	800027c8 <__panic>
8000feec:	24c67bf8 	addiu	a2,a2,31736

8000fef0 <sfs_gettype>:
8000fef0:	27bdffe8 	addiu	sp,sp,-24
8000fef4:	10800026 	beqz	a0,8000ff90 <sfs_gettype+0xa0>
8000fef8:	afbf0014 	sw	ra,20(sp)
8000fefc:	8c83002c 	lw	v1,44(a0)
8000ff00:	24021235 	li	v0,4661
8000ff04:	14620022 	bne	v1,v0,8000ff90 <sfs_gettype+0xa0>
8000ff08:	00000000 	nop
8000ff0c:	8c820000 	lw	v0,0(a0)
8000ff10:	00000000 	nop
8000ff14:	94470004 	lhu	a3,4(v0)
8000ff18:	24020002 	li	v0,2
8000ff1c:	10e20017 	beq	a3,v0,8000ff7c <sfs_gettype+0x8c>
8000ff20:	24022000 	li	v0,8192
8000ff24:	24020003 	li	v0,3
8000ff28:	10e2000f 	beq	a3,v0,8000ff68 <sfs_gettype+0x78>
8000ff2c:	24023000 	li	v0,12288
8000ff30:	24020001 	li	v0,1
8000ff34:	10e20006 	beq	a3,v0,8000ff50 <sfs_gettype+0x60>
8000ff38:	3c048001 	lui	a0,0x8001
8000ff3c:	3c068001 	lui	a2,0x8001
8000ff40:	24847be0 	addiu	a0,a0,31712
8000ff44:	240502f2 	li	a1,754
8000ff48:	0c0009f2 	jal	800027c8 <__panic>
8000ff4c:	24c67c40 	addiu	a2,a2,31808
8000ff50:	8fbf0014 	lw	ra,20(sp)
8000ff54:	24021000 	li	v0,4096
8000ff58:	aca20000 	sw	v0,0(a1)
8000ff5c:	27bd0018 	addiu	sp,sp,24
8000ff60:	03e00008 	jr	ra
8000ff64:	00001021 	move	v0,zero
8000ff68:	8fbf0014 	lw	ra,20(sp)
8000ff6c:	aca20000 	sw	v0,0(a1)
8000ff70:	27bd0018 	addiu	sp,sp,24
8000ff74:	03e00008 	jr	ra
8000ff78:	00001021 	move	v0,zero
8000ff7c:	8fbf0014 	lw	ra,20(sp)
8000ff80:	aca20000 	sw	v0,0(a1)
8000ff84:	27bd0018 	addiu	sp,sp,24
8000ff88:	03e00008 	jr	ra
8000ff8c:	00001021 	move	v0,zero
8000ff90:	3c048001 	lui	a0,0x8001
8000ff94:	3c068001 	lui	a2,0x8001
8000ff98:	24847be0 	addiu	a0,a0,31712
8000ff9c:	240502e6 	li	a1,742
8000ffa0:	0c0009f2 	jal	800027c8 <__panic>
8000ffa4:	24c67bf8 	addiu	a2,a2,31736

8000ffa8 <sfs_block_inuse>:
8000ffa8:	27bdffe0 	addiu	sp,sp,-32
8000ffac:	afbf001c 	sw	ra,28(sp)
8000ffb0:	8c870004 	lw	a3,4(a0)
8000ffb4:	10a0000b 	beqz	a1,8000ffe4 <sfs_block_inuse+0x3c>
8000ffb8:	00a01021 	move	v0,a1
8000ffbc:	00a7182b 	sltu	v1,a1,a3
8000ffc0:	10600008 	beqz	v1,8000ffe4 <sfs_block_inuse+0x3c>
8000ffc4:	00000000 	nop
8000ffc8:	8c840030 	lw	a0,48(a0)
8000ffcc:	0c003d38 	jal	8000f4e0 <bitmap_test>
8000ffd0:	00000000 	nop
8000ffd4:	8fbf001c 	lw	ra,28(sp)
8000ffd8:	2c420001 	sltiu	v0,v0,1
8000ffdc:	03e00008 	jr	ra
8000ffe0:	27bd0020 	addiu	sp,sp,32
8000ffe4:	3c048001 	lui	a0,0x8001
8000ffe8:	3c068001 	lui	a2,0x8001
8000ffec:	24847be0 	addiu	a0,a0,31712
8000fff0:	2405003e 	li	a1,62
8000fff4:	24c67c58 	addiu	a2,a2,31832
8000fff8:	0c0009f2 	jal	800027c8 <__panic>
8000fffc:	afa20010 	sw	v0,16(sp)

80010000 <sfs_block_alloc>:
80010000:	27bdffe0 	addiu	sp,sp,-32
80010004:	afb00014 	sw	s0,20(sp)
80010008:	00808021 	move	s0,a0
8001000c:	8c840030 	lw	a0,48(a0)
80010010:	afb10018 	sw	s1,24(sp)
80010014:	afbf001c 	sw	ra,28(sp)
80010018:	0c003d04 	jal	8000f410 <bitmap_alloc>
8001001c:	00a08821 	move	s1,a1
80010020:	14400014 	bnez	v0,80010074 <sfs_block_alloc+0x74>
80010024:	00000000 	nop
80010028:	8e020008 	lw	v0,8(s0)
8001002c:	00000000 	nop
80010030:	1040001b 	beqz	v0,800100a0 <sfs_block_alloc+0xa0>
80010034:	2442ffff 	addiu	v0,v0,-1
80010038:	ae020008 	sw	v0,8(s0)
8001003c:	24020001 	li	v0,1
80010040:	ae020034 	sw	v0,52(s0)
80010044:	8e250000 	lw	a1,0(s1)
80010048:	0c003fea 	jal	8000ffa8 <sfs_block_inuse>
8001004c:	02002021 	move	a0,s0
80010050:	1040000d 	beqz	v0,80010088 <sfs_block_alloc+0x88>
80010054:	02002021 	move	a0,s0
80010058:	8e250000 	lw	a1,0(s1)
8001005c:	8fbf001c 	lw	ra,28(sp)
80010060:	8fb10018 	lw	s1,24(sp)
80010064:	8fb00014 	lw	s0,20(sp)
80010068:	24060001 	li	a2,1
8001006c:	0800484a 	j	80012128 <sfs_clear_block>
80010070:	27bd0020 	addiu	sp,sp,32
80010074:	8fbf001c 	lw	ra,28(sp)
80010078:	8fb10018 	lw	s1,24(sp)
8001007c:	8fb00014 	lw	s0,20(sp)
80010080:	03e00008 	jr	ra
80010084:	27bd0020 	addiu	sp,sp,32
80010088:	3c048001 	lui	a0,0x8001
8001008c:	3c068001 	lui	a2,0x8001
80010090:	24847be0 	addiu	a0,a0,31712
80010094:	24050049 	li	a1,73
80010098:	0c0009f2 	jal	800027c8 <__panic>
8001009c:	24c67cbc 	addiu	a2,a2,31932
800100a0:	3c048001 	lui	a0,0x8001
800100a4:	3c068001 	lui	a2,0x8001
800100a8:	24847be0 	addiu	a0,a0,31712
800100ac:	24050047 	li	a1,71
800100b0:	0c0009f2 	jal	800027c8 <__panic>
800100b4:	24c67c8c 	addiu	a2,a2,31884

800100b8 <sfs_block_free>:
800100b8:	27bdffe0 	addiu	sp,sp,-32
800100bc:	afb10018 	sw	s1,24(sp)
800100c0:	afb00014 	sw	s0,20(sp)
800100c4:	afbf001c 	sw	ra,28(sp)
800100c8:	00808021 	move	s0,a0
800100cc:	0c003fea 	jal	8000ffa8 <sfs_block_inuse>
800100d0:	00a08821 	move	s1,a1
800100d4:	1040000e 	beqz	v0,80010110 <sfs_block_free+0x58>
800100d8:	3c048001 	lui	a0,0x8001
800100dc:	8e040030 	lw	a0,48(s0)
800100e0:	0c003d4e 	jal	8000f538 <bitmap_free>
800100e4:	02202821 	move	a1,s1
800100e8:	8e020008 	lw	v0,8(s0)
800100ec:	8fbf001c 	lw	ra,28(sp)
800100f0:	24420001 	addiu	v0,v0,1
800100f4:	ae020008 	sw	v0,8(s0)
800100f8:	24020001 	li	v0,1
800100fc:	ae020034 	sw	v0,52(s0)
80010100:	8fb10018 	lw	s1,24(sp)
80010104:	8fb00014 	lw	s0,20(sp)
80010108:	03e00008 	jr	ra
8001010c:	27bd0020 	addiu	sp,sp,32
80010110:	3c068001 	lui	a2,0x8001
80010114:	24847be0 	addiu	a0,a0,31712
80010118:	2405004f 	li	a1,79
8001011c:	0c0009f2 	jal	800027c8 <__panic>
80010120:	24c67cf0 	addiu	a2,a2,31984

80010124 <sfs_bmap_get_sub_nolock>:
80010124:	27bdffc0 	addiu	sp,sp,-64
80010128:	2cc20400 	sltiu	v0,a2,1024
8001012c:	afb30034 	sw	s3,52(sp)
80010130:	afb1002c 	sw	s1,44(sp)
80010134:	afb00028 	sw	s0,40(sp)
80010138:	afbf003c 	sw	ra,60(sp)
8001013c:	afb40038 	sw	s4,56(sp)
80010140:	afb20030 	sw	s2,48(sp)
80010144:	00809821 	move	s3,a0
80010148:	00a08021 	move	s0,a1
8001014c:	1040004f 	beqz	v0,8001028c <sfs_bmap_get_sub_nolock+0x168>
80010150:	00e08821 	move	s1,a3
80010154:	8ca70000 	lw	a3,0(a1)
80010158:	afa00018 	sw	zero,24(sp)
8001015c:	00069080 	sll	s2,a2,0x2
80010160:	14e0000f 	bnez	a3,800101a0 <sfs_bmap_get_sub_nolock+0x7c>
80010164:	afa7001c 	sw	a3,28(sp)
80010168:	16200021 	bnez	s1,800101f0 <sfs_bmap_get_sub_nolock+0xcc>
8001016c:	00001021 	move	v0,zero
80010170:	8fa30050 	lw	v1,80(sp)
80010174:	00000000 	nop
80010178:	ac620000 	sw	v0,0(v1)
8001017c:	00001021 	move	v0,zero
80010180:	8fbf003c 	lw	ra,60(sp)
80010184:	8fb40038 	lw	s4,56(sp)
80010188:	8fb30034 	lw	s3,52(sp)
8001018c:	8fb20030 	lw	s2,48(sp)
80010190:	8fb1002c 	lw	s1,44(sp)
80010194:	8fb00028 	lw	s0,40(sp)
80010198:	03e00008 	jr	ra
8001019c:	27bd0040 	addiu	sp,sp,64
800101a0:	27b40018 	addiu	s4,sp,24
800101a4:	02802821 	move	a1,s4
800101a8:	24060004 	li	a2,4
800101ac:	0c0047ae 	jal	80011eb8 <sfs_rbuf>
800101b0:	afb20010 	sw	s2,16(sp)
800101b4:	1440fff2 	bnez	v0,80010180 <sfs_bmap_get_sub_nolock+0x5c>
800101b8:	00000000 	nop
800101bc:	8fa20018 	lw	v0,24(sp)
800101c0:	00000000 	nop
800101c4:	14400003 	bnez	v0,800101d4 <sfs_bmap_get_sub_nolock+0xb0>
800101c8:	00000000 	nop
800101cc:	1620000d 	bnez	s1,80010204 <sfs_bmap_get_sub_nolock+0xe0>
800101d0:	02602021 	move	a0,s3
800101d4:	8e040000 	lw	a0,0(s0)
800101d8:	8fa3001c 	lw	v1,28(sp)
800101dc:	00000000 	nop
800101e0:	1064ffe3 	beq	v1,a0,80010170 <sfs_bmap_get_sub_nolock+0x4c>
800101e4:	00000000 	nop
800101e8:	0800405c 	j	80010170 <sfs_bmap_get_sub_nolock+0x4c>
800101ec:	ae030000 	sw	v1,0(s0)
800101f0:	0c004000 	jal	80010000 <sfs_block_alloc>
800101f4:	27a5001c 	addiu	a1,sp,28
800101f8:	1440ffe1 	bnez	v0,80010180 <sfs_bmap_get_sub_nolock+0x5c>
800101fc:	27b40018 	addiu	s4,sp,24
80010200:	02602021 	move	a0,s3
80010204:	0c004000 	jal	80010000 <sfs_block_alloc>
80010208:	02802821 	move	a1,s4
8001020c:	1040000c 	beqz	v0,80010240 <sfs_bmap_get_sub_nolock+0x11c>
80010210:	02602021 	move	a0,s3
80010214:	8fa5001c 	lw	a1,28(sp)
80010218:	8e030000 	lw	v1,0(s0)
8001021c:	00000000 	nop
80010220:	1065ffd7 	beq	v1,a1,80010180 <sfs_bmap_get_sub_nolock+0x5c>
80010224:	00000000 	nop
80010228:	02602021 	move	a0,s3
8001022c:	0c00402e 	jal	800100b8 <sfs_block_free>
80010230:	afa20020 	sw	v0,32(sp)
80010234:	8fa20020 	lw	v0,32(sp)
80010238:	08004060 	j	80010180 <sfs_bmap_get_sub_nolock+0x5c>
8001023c:	00000000 	nop
80010240:	8fa7001c 	lw	a3,28(sp)
80010244:	02802821 	move	a1,s4
80010248:	24060004 	li	a2,4
8001024c:	0c0047e1 	jal	80011f84 <sfs_wbuf>
80010250:	afb20010 	sw	s2,16(sp)
80010254:	14400006 	bnez	v0,80010270 <sfs_bmap_get_sub_nolock+0x14c>
80010258:	00000000 	nop
8001025c:	8e040000 	lw	a0,0(s0)
80010260:	8fa3001c 	lw	v1,28(sp)
80010264:	8fa20018 	lw	v0,24(sp)
80010268:	08004078 	j	800101e0 <sfs_bmap_get_sub_nolock+0xbc>
8001026c:	00000000 	nop
80010270:	8fa50018 	lw	a1,24(sp)
80010274:	02602021 	move	a0,s3
80010278:	0c00402e 	jal	800100b8 <sfs_block_free>
8001027c:	afa20020 	sw	v0,32(sp)
80010280:	8fa20020 	lw	v0,32(sp)
80010284:	08004085 	j	80010214 <sfs_bmap_get_sub_nolock+0xf0>
80010288:	00000000 	nop
8001028c:	3c048001 	lui	a0,0x8001
80010290:	3c068001 	lui	a2,0x8001
80010294:	24847be0 	addiu	a0,a0,31712
80010298:	2405009a 	li	a1,154
8001029c:	0c0009f2 	jal	800027c8 <__panic>
800102a0:	24c67d1c 	addiu	a2,a2,32028

800102a4 <sfs_reclaim>:
800102a4:	27bdffd8 	addiu	sp,sp,-40
800102a8:	afb10020 	sw	s1,32(sp)
800102ac:	8c910038 	lw	s1,56(a0)
800102b0:	afb0001c 	sw	s0,28(sp)
800102b4:	afbf0024 	sw	ra,36(sp)
800102b8:	12200078 	beqz	s1,8001049c <sfs_reclaim+0x1f8>
800102bc:	00808021 	move	s0,a0
800102c0:	8e22006c 	lw	v0,108(s1)
800102c4:	00000000 	nop
800102c8:	14400074 	bnez	v0,8001049c <sfs_reclaim+0x1f8>
800102cc:	24021235 	li	v0,4661
800102d0:	8c83002c 	lw	v1,44(a0)
800102d4:	00000000 	nop
800102d8:	14620076 	bne	v1,v0,800104b4 <sfs_reclaim+0x210>
800102dc:	3c048001 	lui	a0,0x8001
800102e0:	0c004873 	jal	800121cc <lock_sfs_fs>
800102e4:	02202021 	move	a0,s1
800102e8:	8e02000c 	lw	v0,12(s0)
800102ec:	00000000 	nop
800102f0:	18400075 	blez	v0,800104c8 <sfs_reclaim+0x224>
800102f4:	2442ffff 	addiu	v0,v0,-1
800102f8:	14400005 	bnez	v0,80010310 <sfs_reclaim+0x6c>
800102fc:	ae02000c 	sw	v0,12(s0)
80010300:	8e020030 	lw	v0,48(s0)
80010304:	00000000 	nop
80010308:	1040000b 	beqz	v0,80010338 <sfs_reclaim+0x94>
8001030c:	00000000 	nop
80010310:	2402fff1 	li	v0,-15
80010314:	02202021 	move	a0,s1
80010318:	0c004879 	jal	800121e4 <unlock_sfs_fs>
8001031c:	afa20010 	sw	v0,16(sp)
80010320:	8fbf0024 	lw	ra,36(sp)
80010324:	8fa20010 	lw	v0,16(sp)
80010328:	8fb10020 	lw	s1,32(sp)
8001032c:	8fb0001c 	lw	s0,28(sp)
80010330:	03e00008 	jr	ra
80010334:	27bd0028 	addiu	sp,sp,40
80010338:	8e020000 	lw	v0,0(s0)
8001033c:	00000000 	nop
80010340:	94420006 	lhu	v0,6(v0)
80010344:	00000000 	nop
80010348:	14400014 	bnez	v0,8001039c <sfs_reclaim+0xf8>
8001034c:	00000000 	nop
80010350:	8e02003c 	lw	v0,60(s0)
80010354:	00000000 	nop
80010358:	10400061 	beqz	v0,800104e0 <sfs_reclaim+0x23c>
8001035c:	3c048001 	lui	a0,0x8001
80010360:	8c420030 	lw	v0,48(v0)
80010364:	00000000 	nop
80010368:	1040005d 	beqz	v0,800104e0 <sfs_reclaim+0x23c>
8001036c:	3c058001 	lui	a1,0x8001
80010370:	02002021 	move	a0,s0
80010374:	0c003713 	jal	8000dc4c <inode_check>
80010378:	24a576f4 	addiu	a1,a1,30452
8001037c:	8e02003c 	lw	v0,60(s0)
80010380:	02002021 	move	a0,s0
80010384:	8c420030 	lw	v0,48(v0)
80010388:	00000000 	nop
8001038c:	0040f809 	jalr	v0
80010390:	00002821 	move	a1,zero
80010394:	1440ffe0 	bnez	v0,80010318 <sfs_reclaim+0x74>
80010398:	02202021 	move	a0,s1
8001039c:	8e020008 	lw	v0,8(s0)
800103a0:	00000000 	nop
800103a4:	10400014 	beqz	v0,800103f8 <sfs_reclaim+0x154>
800103a8:	00000000 	nop
800103ac:	8e02003c 	lw	v0,60(s0)
800103b0:	00000000 	nop
800103b4:	1040004f 	beqz	v0,800104f4 <sfs_reclaim+0x250>
800103b8:	3c048001 	lui	a0,0x8001
800103bc:	8c420018 	lw	v0,24(v0)
800103c0:	00000000 	nop
800103c4:	1040004b 	beqz	v0,800104f4 <sfs_reclaim+0x250>
800103c8:	3c058001 	lui	a1,0x8001
800103cc:	02002021 	move	a0,s0
800103d0:	0c003713 	jal	8000dc4c <inode_check>
800103d4:	24a56ed8 	addiu	a1,a1,28376
800103d8:	8e02003c 	lw	v0,60(s0)
800103dc:	00000000 	nop
800103e0:	8c420018 	lw	v0,24(v0)
800103e4:	00000000 	nop
800103e8:	0040f809 	jalr	v0
800103ec:	02002021 	move	a0,s0
800103f0:	1440ffc9 	bnez	v0,80010318 <sfs_reclaim+0x74>
800103f4:	02202021 	move	a0,s1
800103f8:	8e03001c 	lw	v1,28(s0)
800103fc:	8e020020 	lw	v0,32(s0)
80010400:	02202021 	move	a0,s1
80010404:	ac620004 	sw	v0,4(v1)
80010408:	ac430000 	sw	v1,0(v0)
8001040c:	8e030024 	lw	v1,36(s0)
80010410:	8e020028 	lw	v0,40(s0)
80010414:	00000000 	nop
80010418:	ac620004 	sw	v0,4(v1)
8001041c:	0c004879 	jal	800121e4 <unlock_sfs_fs>
80010420:	ac430000 	sw	v1,0(v0)
80010424:	8e040000 	lw	a0,0(s0)
80010428:	00000000 	nop
8001042c:	94820006 	lhu	v0,6(a0)
80010430:	00000000 	nop
80010434:	1040000b 	beqz	v0,80010464 <sfs_reclaim+0x1c0>
80010438:	00000000 	nop
8001043c:	0c001740 	jal	80005d00 <kfree>
80010440:	00000000 	nop
80010444:	0c0036be 	jal	8000daf8 <inode_kill>
80010448:	02002021 	move	a0,s0
8001044c:	8fbf0024 	lw	ra,36(sp)
80010450:	00001021 	move	v0,zero
80010454:	8fb10020 	lw	s1,32(sp)
80010458:	8fb0001c 	lw	s0,28(sp)
8001045c:	03e00008 	jr	ra
80010460:	27bd0028 	addiu	sp,sp,40
80010464:	8e050004 	lw	a1,4(s0)
80010468:	0c00402e 	jal	800100b8 <sfs_block_free>
8001046c:	02202021 	move	a0,s1
80010470:	8e040000 	lw	a0,0(s0)
80010474:	00000000 	nop
80010478:	8c85003c 	lw	a1,60(a0)
8001047c:	00000000 	nop
80010480:	10a0ffee 	beqz	a1,8001043c <sfs_reclaim+0x198>
80010484:	00000000 	nop
80010488:	0c00402e 	jal	800100b8 <sfs_block_free>
8001048c:	02202021 	move	a0,s1
80010490:	8e040000 	lw	a0,0(s0)
80010494:	0800410f 	j	8001043c <sfs_reclaim+0x198>
80010498:	00000000 	nop
8001049c:	3c048001 	lui	a0,0x8001
800104a0:	3c068001 	lui	a2,0x8001
800104a4:	24847be0 	addiu	a0,a0,31712
800104a8:	240502be 	li	a1,702
800104ac:	0c0009f2 	jal	800027c8 <__panic>
800104b0:	24c67a0c 	addiu	a2,a2,31244
800104b4:	3c068001 	lui	a2,0x8001
800104b8:	24847be0 	addiu	a0,a0,31712
800104bc:	240502bf 	li	a1,703
800104c0:	0c0009f2 	jal	800027c8 <__panic>
800104c4:	24c67bf8 	addiu	a2,a2,31736
800104c8:	3c048001 	lui	a0,0x8001
800104cc:	3c068001 	lui	a2,0x8001
800104d0:	24847be0 	addiu	a0,a0,31712
800104d4:	240502c4 	li	a1,708
800104d8:	0c0009f2 	jal	800027c8 <__panic>
800104dc:	24c67d48 	addiu	a2,a2,32072
800104e0:	3c068001 	lui	a2,0x8001
800104e4:	24847be0 	addiu	a0,a0,31712
800104e8:	240502c9 	li	a1,713
800104ec:	0c0009f2 	jal	800027c8 <__panic>
800104f0:	24c67690 	addiu	a2,a2,30352
800104f4:	3c068001 	lui	a2,0x8001
800104f8:	24847be0 	addiu	a0,a0,31712
800104fc:	240502ce 	li	a1,718
80010500:	0c0009f2 	jal	800027c8 <__panic>
80010504:	24c66e78 	addiu	a2,a2,28280

80010508 <sfs_bmap_load_nolock>:
80010508:	27bdffc0 	addiu	sp,sp,-64
8001050c:	afb00020 	sw	s0,32(sp)
80010510:	8cb00000 	lw	s0,0(a1)
80010514:	afb3002c 	sw	s3,44(sp)
80010518:	8e130008 	lw	s3,8(s0)
8001051c:	afb40030 	sw	s4,48(sp)
80010520:	0266102b 	sltu	v0,s3,a2
80010524:	afb20028 	sw	s2,40(sp)
80010528:	afb10024 	sw	s1,36(sp)
8001052c:	afbf003c 	sw	ra,60(sp)
80010530:	afb60038 	sw	s6,56(sp)
80010534:	afb50034 	sw	s5,52(sp)
80010538:	00a09021 	move	s2,a1
8001053c:	00808821 	move	s1,a0
80010540:	14400068 	bnez	v0,800106e4 <sfs_bmap_load_nolock+0x1dc>
80010544:	00e0a021 	move	s4,a3
80010548:	02669826 	xor	s3,s3,a2
8001054c:	2cc2000c 	sltiu	v0,a2,12
80010550:	1440001e 	bnez	v0,800105cc <sfs_bmap_load_nolock+0xc4>
80010554:	2e730001 	sltiu	s3,s3,1
80010558:	24c3fff4 	addiu	v1,a2,-12
8001055c:	2c620400 	sltiu	v0,v1,1024
80010560:	14400039 	bnez	v0,80010648 <sfs_bmap_load_nolock+0x140>
80010564:	27a5001c 	addiu	a1,sp,28
80010568:	8fa20018 	lw	v0,24(sp)
8001056c:	00000000 	nop
80010570:	1440004d 	bnez	v0,800106a8 <sfs_bmap_load_nolock+0x1a0>
80010574:	afa2001c 	sw	v0,28(sp)
80010578:	0000a821 	move	s5,zero
8001057c:	02202021 	move	a0,s1
80010580:	0c003fea 	jal	8000ffa8 <sfs_block_inuse>
80010584:	02a02821 	move	a1,s5
80010588:	1040005c 	beqz	v0,800106fc <sfs_bmap_load_nolock+0x1f4>
8001058c:	3c048001 	lui	a0,0x8001
80010590:	16600028 	bnez	s3,80010634 <sfs_bmap_load_nolock+0x12c>
80010594:	00000000 	nop
80010598:	12800002 	beqz	s4,800105a4 <sfs_bmap_load_nolock+0x9c>
8001059c:	00001021 	move	v0,zero
800105a0:	ae950000 	sw	s5,0(s4)
800105a4:	8fbf003c 	lw	ra,60(sp)
800105a8:	8fb60038 	lw	s6,56(sp)
800105ac:	8fb50034 	lw	s5,52(sp)
800105b0:	8fb40030 	lw	s4,48(sp)
800105b4:	8fb3002c 	lw	s3,44(sp)
800105b8:	8fb20028 	lw	s2,40(sp)
800105bc:	8fb10024 	lw	s1,36(sp)
800105c0:	8fb00020 	lw	s0,32(sp)
800105c4:	03e00008 	jr	ra
800105c8:	27bd0040 	addiu	sp,sp,64
800105cc:	24d60002 	addiu	s6,a2,2
800105d0:	0016b080 	sll	s6,s6,0x2
800105d4:	0216b021 	addu	s6,s0,s6
800105d8:	8ed50004 	lw	s5,4(s6)
800105dc:	00000000 	nop
800105e0:	16a0000c 	bnez	s5,80010614 <sfs_bmap_load_nolock+0x10c>
800105e4:	afb50018 	sw	s5,24(sp)
800105e8:	1260ffe4 	beqz	s3,8001057c <sfs_bmap_load_nolock+0x74>
800105ec:	00000000 	nop
800105f0:	0c004000 	jal	80010000 <sfs_block_alloc>
800105f4:	27a50018 	addiu	a1,sp,24
800105f8:	1440ffea 	bnez	v0,800105a4 <sfs_bmap_load_nolock+0x9c>
800105fc:	00000000 	nop
80010600:	8fb50018 	lw	s5,24(sp)
80010604:	24020001 	li	v0,1
80010608:	aed50004 	sw	s5,4(s6)
8001060c:	12a0ffdb 	beqz	s5,8001057c <sfs_bmap_load_nolock+0x74>
80010610:	ae420008 	sw	v0,8(s2)
80010614:	02202021 	move	a0,s1
80010618:	0c003fea 	jal	8000ffa8 <sfs_block_inuse>
8001061c:	02a02821 	move	a1,s5
80010620:	1040003b 	beqz	v0,80010710 <sfs_bmap_load_nolock+0x208>
80010624:	02202021 	move	a0,s1
80010628:	8fb50018 	lw	s5,24(sp)
8001062c:	08004160 	j	80010580 <sfs_bmap_load_nolock+0x78>
80010630:	00000000 	nop
80010634:	8e020008 	lw	v0,8(s0)
80010638:	00000000 	nop
8001063c:	24420001 	addiu	v0,v0,1
80010640:	08004166 	j	80010598 <sfs_bmap_load_nolock+0x90>
80010644:	ae020008 	sw	v0,8(s0)
80010648:	8e02003c 	lw	v0,60(s0)
8001064c:	00000000 	nop
80010650:	afa2001c 	sw	v0,28(sp)
80010654:	00603021 	move	a2,v1
80010658:	27a20018 	addiu	v0,sp,24
8001065c:	02603821 	move	a3,s3
80010660:	0c004049 	jal	80010124 <sfs_bmap_get_sub_nolock>
80010664:	afa20010 	sw	v0,16(sp)
80010668:	1440ffce 	bnez	v0,800105a4 <sfs_bmap_load_nolock+0x9c>
8001066c:	00000000 	nop
80010670:	8e03003c 	lw	v1,60(s0)
80010674:	8fa2001c 	lw	v0,28(sp)
80010678:	00000000 	nop
8001067c:	10620013 	beq	v1,v0,800106cc <sfs_bmap_load_nolock+0x1c4>
80010680:	00000000 	nop
80010684:	14600028 	bnez	v1,80010728 <sfs_bmap_load_nolock+0x220>
80010688:	3c048001 	lui	a0,0x8001
8001068c:	8fb50018 	lw	s5,24(sp)
80010690:	ae02003c 	sw	v0,60(s0)
80010694:	24020001 	li	v0,1
80010698:	12a0ffb8 	beqz	s5,8001057c <sfs_bmap_load_nolock+0x74>
8001069c:	ae420008 	sw	v0,8(s2)
800106a0:	08004186 	j	80010618 <sfs_bmap_load_nolock+0x110>
800106a4:	02202021 	move	a0,s1
800106a8:	24c6fbf4 	addiu	a2,a2,-1036
800106ac:	27a20018 	addiu	v0,sp,24
800106b0:	27a5001c 	addiu	a1,sp,28
800106b4:	30c603ff 	andi	a2,a2,0x3ff
800106b8:	02603821 	move	a3,s3
800106bc:	0c004049 	jal	80010124 <sfs_bmap_get_sub_nolock>
800106c0:	afa20010 	sw	v0,16(sp)
800106c4:	1440ffb7 	bnez	v0,800105a4 <sfs_bmap_load_nolock+0x9c>
800106c8:	00000000 	nop
800106cc:	8fb50018 	lw	s5,24(sp)
800106d0:	00000000 	nop
800106d4:	12a0ffa9 	beqz	s5,8001057c <sfs_bmap_load_nolock+0x74>
800106d8:	02202021 	move	a0,s1
800106dc:	08004186 	j	80010618 <sfs_bmap_load_nolock+0x110>
800106e0:	00000000 	nop
800106e4:	3c048001 	lui	a0,0x8001
800106e8:	3c068001 	lui	a2,0x8001
800106ec:	24847be0 	addiu	a0,a0,31712
800106f0:	24050121 	li	a1,289
800106f4:	0c0009f2 	jal	800027c8 <__panic>
800106f8:	24c67d74 	addiu	a2,a2,32116
800106fc:	3c068001 	lui	a2,0x8001
80010700:	24847be0 	addiu	a0,a0,31712
80010704:	24050128 	li	a1,296
80010708:	0c0009f2 	jal	800027c8 <__panic>
8001070c:	24c67cf0 	addiu	a2,a2,31984
80010710:	3c048001 	lui	a0,0x8001
80010714:	3c068001 	lui	a2,0x8001
80010718:	24847be0 	addiu	a0,a0,31712
8001071c:	240500eb 	li	a1,235
80010720:	0c0009f2 	jal	800027c8 <__panic>
80010724:	24c67dc4 	addiu	a2,a2,32196
80010728:	3c068001 	lui	a2,0x8001
8001072c:	24847be0 	addiu	a0,a0,31712
80010730:	240500dc 	li	a1,220
80010734:	0c0009f2 	jal	800027c8 <__panic>
80010738:	24c67d9c 	addiu	a2,a2,32156

8001073c <sfs_io_nolock>:
8001073c:	8ca20000 	lw	v0,0(a1)
80010740:	27bdffb0 	addiu	sp,sp,-80
80010744:	94430004 	lhu	v1,4(v0)
80010748:	afb40038 	sw	s4,56(sp)
8001074c:	0080a021 	move	s4,a0
80010750:	24040002 	li	a0,2
80010754:	afb60040 	sw	s6,64(sp)
80010758:	afb5003c 	sw	s5,60(sp)
8001075c:	afb20030 	sw	s2,48(sp)
80010760:	afbf004c 	sw	ra,76(sp)
80010764:	afbe0048 	sw	s8,72(sp)
80010768:	afb70044 	sw	s7,68(sp)
8001076c:	afb30034 	sw	s3,52(sp)
80010770:	afb1002c 	sw	s1,44(sp)
80010774:	afb00028 	sw	s0,40(sp)
80010778:	00a0b021 	move	s6,a1
8001077c:	00c09021 	move	s2,a2
80010780:	106400b5 	beq	v1,a0,80010a58 <sfs_io_nolock+0x31c>
80010784:	00e0a821 	move	s5,a3
80010788:	8fa50060 	lw	a1,96(sp)
8001078c:	3c030800 	lui	v1,0x800
80010790:	00e3202b 	sltu	a0,a3,v1
80010794:	8cb70000 	lw	s7,0(a1)
80010798:	10800095 	beqz	a0,800109f0 <sfs_io_nolock+0x2b4>
8001079c:	aca00000 	sw	zero,0(a1)
800107a0:	02e7b821 	addu	s7,s7,a3
800107a4:	02e7202a 	slt	a0,s7,a3
800107a8:	14800091 	bnez	a0,800109f0 <sfs_io_nolock+0x2b4>
800107ac:	00000000 	nop
800107b0:	10f7006f 	beq	a3,s7,80010970 <sfs_io_nolock+0x234>
800107b4:	24630001 	addiu	v1,v1,1
800107b8:	02e3182b 	sltu	v1,s7,v1
800107bc:	14600002 	bnez	v1,800107c8 <sfs_io_nolock+0x8c>
800107c0:	00000000 	nop
800107c4:	3c170800 	lui	s7,0x800
800107c8:	8fa30064 	lw	v1,100(sp)
800107cc:	00000000 	nop
800107d0:	1060002a 	beqz	v1,8001087c <sfs_io_nolock+0x140>
800107d4:	3c1e8001 	lui	s8,0x8001
800107d8:	3c028001 	lui	v0,0x8001
800107dc:	24421f84 	addiu	v0,v0,8068
800107e0:	27de1e94 	addiu	s8,s8,7828
800107e4:	afa20020 	sw	v0,32(sp)
800107e8:	06a00033 	bltz	s5,800108b8 <sfs_io_nolock+0x17c>
800107ec:	02a08021 	move	s0,s5
800107f0:	00108303 	sra	s0,s0,0xc
800107f4:	06e00034 	bltz	s7,800108c8 <sfs_io_nolock+0x18c>
800107f8:	02e08821 	move	s1,s7
800107fc:	3c138000 	lui	s3,0x8000
80010800:	26730fff 	addiu	s3,s3,4095
80010804:	00118b03 	sra	s1,s1,0xc
80010808:	02b39824 	and	s3,s5,s3
8001080c:	06600035 	bltz	s3,800108e4 <sfs_io_nolock+0x1a8>
80010810:	02308823 	subu	s1,s1,s0
80010814:	12600039 	beqz	s3,800108fc <sfs_io_nolock+0x1c0>
80010818:	00000000 	nop
8001081c:	16200061 	bnez	s1,800109a4 <sfs_io_nolock+0x268>
80010820:	24021000 	li	v0,4096
80010824:	02f51823 	subu	v1,s7,s5
80010828:	afa30024 	sw	v1,36(sp)
8001082c:	02802021 	move	a0,s4
80010830:	02c02821 	move	a1,s6
80010834:	02003021 	move	a2,s0
80010838:	0c004142 	jal	80010508 <sfs_bmap_load_nolock>
8001083c:	27a70018 	addiu	a3,sp,24
80010840:	1040005b 	beqz	v0,800109b0 <sfs_io_nolock+0x274>
80010844:	02802021 	move	a0,s4
80010848:	00009821 	move	s3,zero
8001084c:	8fa40060 	lw	a0,96(sp)
80010850:	8ec30000 	lw	v1,0(s6)
80010854:	ac930000 	sw	s3,0(a0)
80010858:	8c640000 	lw	a0,0(v1)
8001085c:	02759821 	addu	s3,s3,s5
80010860:	0093202b 	sltu	a0,a0,s3
80010864:	10800043 	beqz	a0,80010974 <sfs_io_nolock+0x238>
80010868:	00000000 	nop
8001086c:	ac730000 	sw	s3,0(v1)
80010870:	24030001 	li	v1,1
80010874:	0800425d 	j	80010974 <sfs_io_nolock+0x238>
80010878:	aec30008 	sw	v1,8(s6)
8001087c:	8c420000 	lw	v0,0(v0)
80010880:	00000000 	nop
80010884:	02a2182b 	sltu	v1,s5,v0
80010888:	10600039 	beqz	v1,80010970 <sfs_io_nolock+0x234>
8001088c:	0057182b 	sltu	v1,v0,s7
80010890:	10600002 	beqz	v1,8001089c <sfs_io_nolock+0x160>
80010894:	00000000 	nop
80010898:	0040b821 	move	s7,v0
8001089c:	3c028001 	lui	v0,0x8001
800108a0:	3c1e8001 	lui	s8,0x8001
800108a4:	24421eb8 	addiu	v0,v0,7864
800108a8:	27de1e74 	addiu	s8,s8,7796
800108ac:	afa20020 	sw	v0,32(sp)
800108b0:	06a1ffcf 	bgez	s5,800107f0 <sfs_io_nolock+0xb4>
800108b4:	02a08021 	move	s0,s5
800108b8:	26b00fff 	addiu	s0,s5,4095
800108bc:	00108303 	sra	s0,s0,0xc
800108c0:	06e1ffce 	bgez	s7,800107fc <sfs_io_nolock+0xc0>
800108c4:	02e08821 	move	s1,s7
800108c8:	3c138000 	lui	s3,0x8000
800108cc:	26f10fff 	addiu	s1,s7,4095
800108d0:	26730fff 	addiu	s3,s3,4095
800108d4:	00118b03 	sra	s1,s1,0xc
800108d8:	02b39824 	and	s3,s5,s3
800108dc:	0661ffcd 	bgez	s3,80010814 <sfs_io_nolock+0xd8>
800108e0:	02308823 	subu	s1,s1,s0
800108e4:	2673ffff 	addiu	s3,s3,-1
800108e8:	2402f000 	li	v0,-4096
800108ec:	02629825 	or	s3,s3,v0
800108f0:	26730001 	addiu	s3,s3,1
800108f4:	1660ffc9 	bnez	s3,8001081c <sfs_io_nolock+0xe0>
800108f8:	00000000 	nop
800108fc:	00009821 	move	s3,zero
80010900:	12200013 	beqz	s1,80010950 <sfs_io_nolock+0x214>
80010904:	3c028000 	lui	v0,0x8000
80010908:	02802021 	move	a0,s4
8001090c:	02c02821 	move	a1,s6
80010910:	02003021 	move	a2,s0
80010914:	0c004142 	jal	80010508 <sfs_bmap_load_nolock>
80010918:	27a70018 	addiu	a3,sp,24
8001091c:	1440ffcb 	bnez	v0,8001084c <sfs_io_nolock+0x110>
80010920:	02802021 	move	a0,s4
80010924:	8fa60018 	lw	a2,24(sp)
80010928:	02402821 	move	a1,s2
8001092c:	03c0f809 	jalr	s8
80010930:	24070001 	li	a3,1
80010934:	1440ffc5 	bnez	v0,8001084c <sfs_io_nolock+0x110>
80010938:	2631ffff 	addiu	s1,s1,-1
8001093c:	26731000 	addiu	s3,s3,4096
80010940:	26521000 	addiu	s2,s2,4096
80010944:	1620fff0 	bnez	s1,80010908 <sfs_io_nolock+0x1cc>
80010948:	26100001 	addiu	s0,s0,1
8001094c:	3c028000 	lui	v0,0x8000
80010950:	24420fff 	addiu	v0,v0,4095
80010954:	02e2b824 	and	s7,s7,v0
80010958:	06e00027 	bltz	s7,800109f8 <sfs_io_nolock+0x2bc>
8001095c:	2402f000 	li	v0,-4096
80010960:	16e00029 	bnez	s7,80010a08 <sfs_io_nolock+0x2cc>
80010964:	00001021 	move	v0,zero
80010968:	08004213 	j	8001084c <sfs_io_nolock+0x110>
8001096c:	00000000 	nop
80010970:	00001021 	move	v0,zero
80010974:	8fbf004c 	lw	ra,76(sp)
80010978:	8fbe0048 	lw	s8,72(sp)
8001097c:	8fb70044 	lw	s7,68(sp)
80010980:	8fb60040 	lw	s6,64(sp)
80010984:	8fb5003c 	lw	s5,60(sp)
80010988:	8fb40038 	lw	s4,56(sp)
8001098c:	8fb30034 	lw	s3,52(sp)
80010990:	8fb20030 	lw	s2,48(sp)
80010994:	8fb1002c 	lw	s1,44(sp)
80010998:	8fb00028 	lw	s0,40(sp)
8001099c:	03e00008 	jr	ra
800109a0:	27bd0050 	addiu	sp,sp,80
800109a4:	00531023 	subu	v0,v0,s3
800109a8:	0800420b 	j	8001082c <sfs_io_nolock+0xf0>
800109ac:	afa20024 	sw	v0,36(sp)
800109b0:	8fa60024 	lw	a2,36(sp)
800109b4:	8fa70018 	lw	a3,24(sp)
800109b8:	8fa30020 	lw	v1,32(sp)
800109bc:	afb30010 	sw	s3,16(sp)
800109c0:	0060f809 	jalr	v1
800109c4:	02402821 	move	a1,s2
800109c8:	1440ffa0 	bnez	v0,8001084c <sfs_io_nolock+0x110>
800109cc:	00009821 	move	s3,zero
800109d0:	1220001e 	beqz	s1,80010a4c <sfs_io_nolock+0x310>
800109d4:	26100001 	addiu	s0,s0,1
800109d8:	8fa30024 	lw	v1,36(sp)
800109dc:	00000000 	nop
800109e0:	02439021 	addu	s2,s2,v1
800109e4:	2631ffff 	addiu	s1,s1,-1
800109e8:	08004240 	j	80010900 <sfs_io_nolock+0x1c4>
800109ec:	00609821 	move	s3,v1
800109f0:	0800425d 	j	80010974 <sfs_io_nolock+0x238>
800109f4:	2402fffd 	li	v0,-3
800109f8:	26f7ffff 	addiu	s7,s7,-1
800109fc:	02e2b825 	or	s7,s7,v0
80010a00:	08004258 	j	80010960 <sfs_io_nolock+0x224>
80010a04:	26f70001 	addiu	s7,s7,1
80010a08:	02802021 	move	a0,s4
80010a0c:	02c02821 	move	a1,s6
80010a10:	02003021 	move	a2,s0
80010a14:	0c004142 	jal	80010508 <sfs_bmap_load_nolock>
80010a18:	27a70018 	addiu	a3,sp,24
80010a1c:	1440ff8b 	bnez	v0,8001084c <sfs_io_nolock+0x110>
80010a20:	02802021 	move	a0,s4
80010a24:	8fa70018 	lw	a3,24(sp)
80010a28:	8fa30020 	lw	v1,32(sp)
80010a2c:	afa00010 	sw	zero,16(sp)
80010a30:	02402821 	move	a1,s2
80010a34:	0060f809 	jalr	v1
80010a38:	02e03021 	move	a2,s7
80010a3c:	1440ff83 	bnez	v0,8001084c <sfs_io_nolock+0x110>
80010a40:	00000000 	nop
80010a44:	08004213 	j	8001084c <sfs_io_nolock+0x110>
80010a48:	02779821 	addu	s3,s3,s7
80010a4c:	8fb30024 	lw	s3,36(sp)
80010a50:	08004213 	j	8001084c <sfs_io_nolock+0x110>
80010a54:	00000000 	nop
80010a58:	3c048001 	lui	a0,0x8001
80010a5c:	3c068001 	lui	a2,0x8001
80010a60:	24847be0 	addiu	a0,a0,31712
80010a64:	240501ba 	li	a1,442
80010a68:	0c0009f2 	jal	800027c8 <__panic>
80010a6c:	24c67dfc 	addiu	a2,a2,32252

80010a70 <sfs_dirent_read_nolock>:
80010a70:	8ca20000 	lw	v0,0(a1)
80010a74:	27bdffd0 	addiu	sp,sp,-48
80010a78:	94480004 	lhu	t0,4(v0)
80010a7c:	afb10028 	sw	s1,40(sp)
80010a80:	00e08821 	move	s1,a3
80010a84:	24070002 	li	a3,2
80010a88:	afb00024 	sw	s0,36(sp)
80010a8c:	afbf002c 	sw	ra,44(sp)
80010a90:	15070023 	bne	t0,a3,80010b20 <sfs_dirent_read_nolock+0xb0>
80010a94:	00808021 	move	s0,a0
80010a98:	04c00021 	bltz	a2,80010b20 <sfs_dirent_read_nolock+0xb0>
80010a9c:	00000000 	nop
80010aa0:	8c420008 	lw	v0,8(v0)
80010aa4:	00000000 	nop
80010aa8:	00c2182b 	sltu	v1,a2,v0
80010aac:	1060001c 	beqz	v1,80010b20 <sfs_dirent_read_nolock+0xb0>
80010ab0:	00000000 	nop
80010ab4:	0c004142 	jal	80010508 <sfs_bmap_load_nolock>
80010ab8:	27a70018 	addiu	a3,sp,24
80010abc:	10400006 	beqz	v0,80010ad8 <sfs_dirent_read_nolock+0x68>
80010ac0:	00000000 	nop
80010ac4:	8fbf002c 	lw	ra,44(sp)
80010ac8:	8fb10028 	lw	s1,40(sp)
80010acc:	8fb00024 	lw	s0,36(sp)
80010ad0:	03e00008 	jr	ra
80010ad4:	27bd0030 	addiu	sp,sp,48
80010ad8:	8fa50018 	lw	a1,24(sp)
80010adc:	0c003fea 	jal	8000ffa8 <sfs_block_inuse>
80010ae0:	02002021 	move	a0,s0
80010ae4:	10400014 	beqz	v0,80010b38 <sfs_dirent_read_nolock+0xc8>
80010ae8:	02002021 	move	a0,s0
80010aec:	8fa70018 	lw	a3,24(sp)
80010af0:	02202821 	move	a1,s1
80010af4:	24060104 	li	a2,260
80010af8:	0c0047ae 	jal	80011eb8 <sfs_rbuf>
80010afc:	afa00010 	sw	zero,16(sp)
80010b00:	1440fff0 	bnez	v0,80010ac4 <sfs_dirent_read_nolock+0x54>
80010b04:	00000000 	nop
80010b08:	a2200103 	sb	zero,259(s1)
80010b0c:	8fbf002c 	lw	ra,44(sp)
80010b10:	8fb10028 	lw	s1,40(sp)
80010b14:	8fb00024 	lw	s0,36(sp)
80010b18:	03e00008 	jr	ra
80010b1c:	27bd0030 	addiu	sp,sp,48
80010b20:	3c048001 	lui	a0,0x8001
80010b24:	3c068001 	lui	a2,0x8001
80010b28:	24847be0 	addiu	a0,a0,31712
80010b2c:	24050141 	li	a1,321
80010b30:	0c0009f2 	jal	800027c8 <__panic>
80010b34:	24c67e38 	addiu	a2,a2,32312
80010b38:	3c048001 	lui	a0,0x8001
80010b3c:	3c068001 	lui	a2,0x8001
80010b40:	24847be0 	addiu	a0,a0,31712
80010b44:	24050147 	li	a1,327
80010b48:	0c0009f2 	jal	800027c8 <__panic>
80010b4c:	24c67cf0 	addiu	a2,a2,31984

80010b50 <sfs_getdirentry>:
80010b50:	27bdffb8 	addiu	sp,sp,-72
80010b54:	afb30030 	sw	s3,48(sp)
80010b58:	00809821 	move	s3,a0
80010b5c:	24040104 	li	a0,260
80010b60:	afb70040 	sw	s7,64(sp)
80010b64:	afb10028 	sw	s1,40(sp)
80010b68:	afbf0044 	sw	ra,68(sp)
80010b6c:	afb6003c 	sw	s6,60(sp)
80010b70:	afb50038 	sw	s5,56(sp)
80010b74:	afb40034 	sw	s4,52(sp)
80010b78:	afb2002c 	sw	s2,44(sp)
80010b7c:	afb00024 	sw	s0,36(sp)
80010b80:	0c001716 	jal	80005c58 <kmalloc>
80010b84:	00a0b821 	move	s7,a1
80010b88:	1040005c 	beqz	v0,80010cfc <sfs_getdirentry+0x1ac>
80010b8c:	00408821 	move	s1,v0
80010b90:	8e740038 	lw	s4,56(s3)
80010b94:	00000000 	nop
80010b98:	1280005e 	beqz	s4,80010d14 <sfs_getdirentry+0x1c4>
80010b9c:	3c048001 	lui	a0,0x8001
80010ba0:	8e82006c 	lw	v0,108(s4)
80010ba4:	00000000 	nop
80010ba8:	1440005a 	bnez	v0,80010d14 <sfs_getdirentry+0x1c4>
80010bac:	24021235 	li	v0,4661
80010bb0:	8e63002c 	lw	v1,44(s3)
80010bb4:	00000000 	nop
80010bb8:	14620052 	bne	v1,v0,80010d04 <sfs_getdirentry+0x1b4>
80010bbc:	3c068001 	lui	a2,0x8001
80010bc0:	8ef20004 	lw	s2,4(s7)
80010bc4:	00000000 	nop
80010bc8:	06400044 	bltz	s2,80010cdc <sfs_getdirentry+0x18c>
80010bcc:	00000000 	nop
80010bd0:	324200ff 	andi	v0,s2,0xff
80010bd4:	14400041 	bnez	v0,80010cdc <sfs_getdirentry+0x18c>
80010bd8:	00129202 	srl	s2,s2,0x8
80010bdc:	8e620000 	lw	v0,0(s3)
80010be0:	00000000 	nop
80010be4:	8c420008 	lw	v0,8(v0)
80010be8:	00000000 	nop
80010bec:	0052102b 	sltu	v0,v0,s2
80010bf0:	1440003e 	bnez	v0,80010cec <sfs_getdirentry+0x19c>
80010bf4:	26760010 	addiu	s6,s3,16
80010bf8:	0c0022f8 	jal	80008be0 <down>
80010bfc:	02c02021 	move	a0,s6
80010c00:	8e620000 	lw	v0,0(s3)
80010c04:	00000000 	nop
80010c08:	8c550008 	lw	s5,8(v0)
80010c0c:	00000000 	nop
80010c10:	1aa00026 	blez	s5,80010cac <sfs_getdirentry+0x15c>
80010c14:	00008021 	move	s0,zero
80010c18:	08004312 	j	80010c48 <sfs_getdirentry+0xf8>
80010c1c:	02802021 	move	a0,s4
80010c20:	8e220000 	lw	v0,0(s1)
80010c24:	00000000 	nop
80010c28:	10400003 	beqz	v0,80010c38 <sfs_getdirentry+0xe8>
80010c2c:	00000000 	nop
80010c30:	12400020 	beqz	s2,80010cb4 <sfs_getdirentry+0x164>
80010c34:	2652ffff 	addiu	s2,s2,-1
80010c38:	26100001 	addiu	s0,s0,1
80010c3c:	12b00008 	beq	s5,s0,80010c60 <sfs_getdirentry+0x110>
80010c40:	2402fff0 	li	v0,-16
80010c44:	02802021 	move	a0,s4
80010c48:	02602821 	move	a1,s3
80010c4c:	02003021 	move	a2,s0
80010c50:	0c00429c 	jal	80010a70 <sfs_dirent_read_nolock>
80010c54:	02203821 	move	a3,s1
80010c58:	1040fff1 	beqz	v0,80010c20 <sfs_getdirentry+0xd0>
80010c5c:	00000000 	nop
80010c60:	02c02021 	move	a0,s6
80010c64:	0c0022f6 	jal	80008bd8 <up>
80010c68:	afa20018 	sw	v0,24(sp)
80010c6c:	8fa20018 	lw	v0,24(sp)
80010c70:	02202021 	move	a0,s1
80010c74:	0c001740 	jal	80005d00 <kfree>
80010c78:	afa20018 	sw	v0,24(sp)
80010c7c:	8fa20018 	lw	v0,24(sp)
80010c80:	8fbf0044 	lw	ra,68(sp)
80010c84:	8fb70040 	lw	s7,64(sp)
80010c88:	8fb6003c 	lw	s6,60(sp)
80010c8c:	8fb50038 	lw	s5,56(sp)
80010c90:	8fb40034 	lw	s4,52(sp)
80010c94:	8fb30030 	lw	s3,48(sp)
80010c98:	8fb2002c 	lw	s2,44(sp)
80010c9c:	8fb10028 	lw	s1,40(sp)
80010ca0:	8fb00024 	lw	s0,36(sp)
80010ca4:	03e00008 	jr	ra
80010ca8:	27bd0048 	addiu	sp,sp,72
80010cac:	08004318 	j	80010c60 <sfs_getdirentry+0x110>
80010cb0:	2402fff0 	li	v0,-16
80010cb4:	0c0022f6 	jal	80008bd8 <up>
80010cb8:	02c02021 	move	a0,s6
80010cbc:	02e02021 	move	a0,s7
80010cc0:	26250004 	addiu	a1,s1,4
80010cc4:	24060100 	li	a2,256
80010cc8:	24070001 	li	a3,1
80010ccc:	0c00340c 	jal	8000d030 <iobuf_move>
80010cd0:	afa00010 	sw	zero,16(sp)
80010cd4:	0800431d 	j	80010c74 <sfs_getdirentry+0x124>
80010cd8:	02202021 	move	a0,s1
80010cdc:	0c001740 	jal	80005d00 <kfree>
80010ce0:	02202021 	move	a0,s1
80010ce4:	08004320 	j	80010c80 <sfs_getdirentry+0x130>
80010ce8:	2402fffd 	li	v0,-3
80010cec:	0c001740 	jal	80005d00 <kfree>
80010cf0:	02202021 	move	a0,s1
80010cf4:	08004320 	j	80010c80 <sfs_getdirentry+0x130>
80010cf8:	2402fff0 	li	v0,-16
80010cfc:	08004320 	j	80010c80 <sfs_getdirentry+0x130>
80010d00:	2402fffc 	li	v0,-4
80010d04:	24847be0 	addiu	a0,a0,31712
80010d08:	240502a4 	li	a1,676
80010d0c:	0c0009f2 	jal	800027c8 <__panic>
80010d10:	24c67bf8 	addiu	a2,a2,31736
80010d14:	3c068001 	lui	a2,0x8001
80010d18:	24847be0 	addiu	a0,a0,31712
80010d1c:	240502a3 	li	a1,675
80010d20:	0c0009f2 	jal	800027c8 <__panic>
80010d24:	24c67a0c 	addiu	a2,a2,31244

80010d28 <sfs_truncfile>:
80010d28:	3c020800 	lui	v0,0x800
80010d2c:	24420001 	addiu	v0,v0,1
80010d30:	27bdffb0 	addiu	sp,sp,-80
80010d34:	00a2102b 	sltu	v0,a1,v0
80010d38:	afb5003c 	sw	s5,60(sp)
80010d3c:	afb1002c 	sw	s1,44(sp)
80010d40:	afbf004c 	sw	ra,76(sp)
80010d44:	afbe0048 	sw	s8,72(sp)
80010d48:	afb70044 	sw	s7,68(sp)
80010d4c:	afb60040 	sw	s6,64(sp)
80010d50:	afb40038 	sw	s4,56(sp)
80010d54:	afb30034 	sw	s3,52(sp)
80010d58:	afb20030 	sw	s2,48(sp)
80010d5c:	afb00028 	sw	s0,40(sp)
80010d60:	00a0a821 	move	s5,a1
80010d64:	1040009c 	beqz	v0,80010fd8 <sfs_truncfile+0x2b0>
80010d68:	00808821 	move	s1,a0
80010d6c:	8c920038 	lw	s2,56(a0)
80010d70:	00000000 	nop
80010d74:	124000a0 	beqz	s2,80010ff8 <sfs_truncfile+0x2d0>
80010d78:	00000000 	nop
80010d7c:	8e42006c 	lw	v0,108(s2)
80010d80:	00000000 	nop
80010d84:	1440009c 	bnez	v0,80010ff8 <sfs_truncfile+0x2d0>
80010d88:	24021235 	li	v0,4661
80010d8c:	8c83002c 	lw	v1,44(a0)
80010d90:	00000000 	nop
80010d94:	14620092 	bne	v1,v0,80010fe0 <sfs_truncfile+0x2b8>
80010d98:	24b30fff 	addiu	s3,a1,4095
80010d9c:	8c960000 	lw	s6,0(a0)
80010da0:	00000000 	nop
80010da4:	8ec20000 	lw	v0,0(s6)
80010da8:	00000000 	nop
80010dac:	10a20039 	beq	a1,v0,80010e94 <sfs_truncfile+0x16c>
80010db0:	00139b02 	srl	s3,s3,0xc
80010db4:	24970010 	addiu	s7,a0,16
80010db8:	0c0022f8 	jal	80008be0 <down>
80010dbc:	02e02021 	move	a0,s7
80010dc0:	8ed00008 	lw	s0,8(s6)
80010dc4:	00000000 	nop
80010dc8:	0213102b 	sltu	v0,s0,s3
80010dcc:	14400028 	bnez	v0,80010e70 <sfs_truncfile+0x148>
80010dd0:	0270102b 	sltu	v0,s3,s0
80010dd4:	10400041 	beqz	v0,80010edc <sfs_truncfile+0x1b4>
80010dd8:	00000000 	nop
80010ddc:	8e340000 	lw	s4,0(s1)
80010de0:	00000000 	nop
80010de4:	8e880008 	lw	t0,8(s4)
80010de8:	00000000 	nop
80010dec:	11000018 	beqz	t0,80010e50 <sfs_truncfile+0x128>
80010df0:	2502ffff 	addiu	v0,t0,-1
80010df4:	241e0001 	li	s8,1
80010df8:	2c42000c 	sltiu	v0,v0,12
80010dfc:	10400042 	beqz	v0,80010f08 <sfs_truncfile+0x1e0>
80010e00:	00000000 	nop
80010e04:	25080001 	addiu	t0,t0,1
80010e08:	00084080 	sll	t0,t0,0x2
80010e0c:	02884021 	addu	t0,s4,t0
80010e10:	8d050004 	lw	a1,4(t0)
80010e14:	00000000 	nop
80010e18:	14a00069 	bnez	a1,80010fc0 <sfs_truncfile+0x298>
80010e1c:	00000000 	nop
80010e20:	8e820008 	lw	v0,8(s4)
80010e24:	2610ffff 	addiu	s0,s0,-1
80010e28:	2442ffff 	addiu	v0,v0,-1
80010e2c:	ae820008 	sw	v0,8(s4)
80010e30:	12130028 	beq	s0,s3,80010ed4 <sfs_truncfile+0x1ac>
80010e34:	ae3e0008 	sw	s8,8(s1)
80010e38:	8e340000 	lw	s4,0(s1)
80010e3c:	00000000 	nop
80010e40:	8e880008 	lw	t0,8(s4)
80010e44:	00000000 	nop
80010e48:	1500ffeb 	bnez	t0,80010df8 <sfs_truncfile+0xd0>
80010e4c:	2502ffff 	addiu	v0,t0,-1
80010e50:	3c048001 	lui	a0,0x8001
80010e54:	3c068001 	lui	a2,0x8001
80010e58:	24847be0 	addiu	a0,a0,31712
80010e5c:	24050135 	li	a1,309
80010e60:	0c0009f2 	jal	800027c8 <__panic>
80010e64:	24c67ecc 	addiu	a2,a2,32460
80010e68:	1213001a 	beq	s0,s3,80010ed4 <sfs_truncfile+0x1ac>
80010e6c:	00000000 	nop
80010e70:	02402021 	move	a0,s2
80010e74:	02202821 	move	a1,s1
80010e78:	02003021 	move	a2,s0
80010e7c:	0c004142 	jal	80010508 <sfs_bmap_load_nolock>
80010e80:	00003821 	move	a3,zero
80010e84:	1040fff8 	beqz	v0,80010e68 <sfs_truncfile+0x140>
80010e88:	26100001 	addiu	s0,s0,1
80010e8c:	080043bd 	j	80010ef4 <sfs_truncfile+0x1cc>
80010e90:	02e02021 	move	a0,s7
80010e94:	8ec20008 	lw	v0,8(s6)
80010e98:	00000000 	nop
80010e9c:	1662005c 	bne	s3,v0,80011010 <sfs_truncfile+0x2e8>
80010ea0:	00001021 	move	v0,zero
80010ea4:	8fbf004c 	lw	ra,76(sp)
80010ea8:	8fbe0048 	lw	s8,72(sp)
80010eac:	8fb70044 	lw	s7,68(sp)
80010eb0:	8fb60040 	lw	s6,64(sp)
80010eb4:	8fb5003c 	lw	s5,60(sp)
80010eb8:	8fb40038 	lw	s4,56(sp)
80010ebc:	8fb30034 	lw	s3,52(sp)
80010ec0:	8fb20030 	lw	s2,48(sp)
80010ec4:	8fb1002c 	lw	s1,44(sp)
80010ec8:	8fb00028 	lw	s0,40(sp)
80010ecc:	03e00008 	jr	ra
80010ed0:	27bd0050 	addiu	sp,sp,80
80010ed4:	8ed00008 	lw	s0,8(s6)
80010ed8:	00000000 	nop
80010edc:	16130058 	bne	s0,s3,80011040 <sfs_truncfile+0x318>
80010ee0:	24030001 	li	v1,1
80010ee4:	aed50000 	sw	s5,0(s6)
80010ee8:	00001021 	move	v0,zero
80010eec:	ae230008 	sw	v1,8(s1)
80010ef0:	02e02021 	move	a0,s7
80010ef4:	0c0022f6 	jal	80008bd8 <up>
80010ef8:	afa20020 	sw	v0,32(sp)
80010efc:	8fa20020 	lw	v0,32(sp)
80010f00:	080043a9 	j	80010ea4 <sfs_truncfile+0x17c>
80010f04:	00000000 	nop
80010f08:	2508fff3 	addiu	t0,t0,-13
80010f0c:	2d020400 	sltiu	v0,t0,1024
80010f10:	1040ffc3 	beqz	v0,80010e20 <sfs_truncfile+0xf8>
80010f14:	00000000 	nop
80010f18:	8e83003c 	lw	v1,60(s4)
80010f1c:	00000000 	nop
80010f20:	1060ffbf 	beqz	v1,80010e20 <sfs_truncfile+0xf8>
80010f24:	00000000 	nop
80010f28:	00602821 	move	a1,v1
80010f2c:	02402021 	move	a0,s2
80010f30:	afa30020 	sw	v1,32(sp)
80010f34:	0c003fea 	jal	8000ffa8 <sfs_block_inuse>
80010f38:	afa80024 	sw	t0,36(sp)
80010f3c:	8fa30020 	lw	v1,32(sp)
80010f40:	8fa80024 	lw	t0,36(sp)
80010f44:	10400038 	beqz	v0,80011028 <sfs_truncfile+0x300>
80010f48:	00084080 	sll	t0,t0,0x2
80010f4c:	00603821 	move	a3,v1
80010f50:	02402021 	move	a0,s2
80010f54:	27a5001c 	addiu	a1,sp,28
80010f58:	24060004 	li	a2,4
80010f5c:	afa80010 	sw	t0,16(sp)
80010f60:	afa30020 	sw	v1,32(sp)
80010f64:	afa80024 	sw	t0,36(sp)
80010f68:	0c0047ae 	jal	80011eb8 <sfs_rbuf>
80010f6c:	afa00018 	sw	zero,24(sp)
80010f70:	8fa30020 	lw	v1,32(sp)
80010f74:	8fa80024 	lw	t0,36(sp)
80010f78:	1440ffde 	bnez	v0,80010ef4 <sfs_truncfile+0x1cc>
80010f7c:	02e02021 	move	a0,s7
80010f80:	8fa2001c 	lw	v0,28(sp)
80010f84:	00000000 	nop
80010f88:	1040ffa5 	beqz	v0,80010e20 <sfs_truncfile+0xf8>
80010f8c:	24060004 	li	a2,4
80010f90:	02402021 	move	a0,s2
80010f94:	27a50018 	addiu	a1,sp,24
80010f98:	00603821 	move	a3,v1
80010f9c:	0c0047e1 	jal	80011f84 <sfs_wbuf>
80010fa0:	afa80010 	sw	t0,16(sp)
80010fa4:	1440ffd2 	bnez	v0,80010ef0 <sfs_truncfile+0x1c8>
80010fa8:	00000000 	nop
80010fac:	8fa5001c 	lw	a1,28(sp)
80010fb0:	0c00402e 	jal	800100b8 <sfs_block_free>
80010fb4:	02402021 	move	a0,s2
80010fb8:	08004388 	j	80010e20 <sfs_truncfile+0xf8>
80010fbc:	00000000 	nop
80010fc0:	02402021 	move	a0,s2
80010fc4:	0c00402e 	jal	800100b8 <sfs_block_free>
80010fc8:	afa80024 	sw	t0,36(sp)
80010fcc:	8fa80024 	lw	t0,36(sp)
80010fd0:	08004388 	j	80010e20 <sfs_truncfile+0xf8>
80010fd4:	ad000004 	sw	zero,4(t0)
80010fd8:	080043a9 	j	80010ea4 <sfs_truncfile+0x17c>
80010fdc:	2402fffd 	li	v0,-3
80010fe0:	3c048001 	lui	a0,0x8001
80010fe4:	3c068001 	lui	a2,0x8001
80010fe8:	24847be0 	addiu	a0,a0,31712
80010fec:	24050306 	li	a1,774
80010ff0:	0c0009f2 	jal	800027c8 <__panic>
80010ff4:	24c67bf8 	addiu	a2,a2,31736
80010ff8:	3c048001 	lui	a0,0x8001
80010ffc:	3c068001 	lui	a2,0x8001
80011000:	24847be0 	addiu	a0,a0,31712
80011004:	24050305 	li	a1,773
80011008:	0c0009f2 	jal	800027c8 <__panic>
8001100c:	24c67a0c 	addiu	a2,a2,31244
80011010:	3c048001 	lui	a0,0x8001
80011014:	3c068001 	lui	a2,0x8001
80011018:	24847be0 	addiu	a0,a0,31712
8001101c:	2405030c 	li	a1,780
80011020:	0c0009f2 	jal	800027c8 <__panic>
80011024:	24c67ea4 	addiu	a2,a2,32420
80011028:	3c048001 	lui	a0,0x8001
8001102c:	3c068001 	lui	a2,0x8001
80011030:	24847be0 	addiu	a0,a0,31712
80011034:	240500f2 	li	a1,242
80011038:	0c0009f2 	jal	800027c8 <__panic>
8001103c:	24c67ef0 	addiu	a2,a2,32496
80011040:	3c048001 	lui	a0,0x8001
80011044:	3c068001 	lui	a2,0x8001
80011048:	24847be0 	addiu	a0,a0,31712
8001104c:	24050322 	li	a1,802
80011050:	0c0009f2 	jal	800027c8 <__panic>
80011054:	24c67f38 	addiu	a2,a2,32568

80011058 <sfs_tryseek>:
80011058:	3c020800 	lui	v0,0x800
8001105c:	27bdffe0 	addiu	sp,sp,-32
80011060:	00a2102b 	sltu	v0,a1,v0
80011064:	afb10018 	sw	s1,24(sp)
80011068:	afb00014 	sw	s0,20(sp)
8001106c:	afbf001c 	sw	ra,28(sp)
80011070:	00a08821 	move	s1,a1
80011074:	10400027 	beqz	v0,80011114 <sfs_tryseek+0xbc>
80011078:	00808021 	move	s0,a0
8001107c:	10800027 	beqz	a0,8001111c <sfs_tryseek+0xc4>
80011080:	24021235 	li	v0,4661
80011084:	8c83002c 	lw	v1,44(a0)
80011088:	00000000 	nop
8001108c:	14620023 	bne	v1,v0,8001111c <sfs_tryseek+0xc4>
80011090:	00000000 	nop
80011094:	8c820000 	lw	v0,0(a0)
80011098:	00000000 	nop
8001109c:	8c420000 	lw	v0,0(v0)
800110a0:	00000000 	nop
800110a4:	0045102b 	sltu	v0,v0,a1
800110a8:	10400015 	beqz	v0,80011100 <sfs_tryseek+0xa8>
800110ac:	00001021 	move	v0,zero
800110b0:	8c82003c 	lw	v0,60(a0)
800110b4:	00000000 	nop
800110b8:	1040001e 	beqz	v0,80011134 <sfs_tryseek+0xdc>
800110bc:	00000000 	nop
800110c0:	8c420030 	lw	v0,48(v0)
800110c4:	00000000 	nop
800110c8:	1040001a 	beqz	v0,80011134 <sfs_tryseek+0xdc>
800110cc:	3c058001 	lui	a1,0x8001
800110d0:	0c003713 	jal	8000dc4c <inode_check>
800110d4:	24a576f4 	addiu	a1,a1,30452
800110d8:	8e02003c 	lw	v0,60(s0)
800110dc:	02002021 	move	a0,s0
800110e0:	02202821 	move	a1,s1
800110e4:	8fbf001c 	lw	ra,28(sp)
800110e8:	8fb10018 	lw	s1,24(sp)
800110ec:	8fb00014 	lw	s0,20(sp)
800110f0:	8c590030 	lw	t9,48(v0)
800110f4:	00000000 	nop
800110f8:	03200008 	jr	t9
800110fc:	27bd0020 	addiu	sp,sp,32
80011100:	8fbf001c 	lw	ra,28(sp)
80011104:	8fb10018 	lw	s1,24(sp)
80011108:	8fb00014 	lw	s0,20(sp)
8001110c:	03e00008 	jr	ra
80011110:	27bd0020 	addiu	sp,sp,32
80011114:	08004440 	j	80011100 <sfs_tryseek+0xa8>
80011118:	2402fffd 	li	v0,-3
8001111c:	3c048001 	lui	a0,0x8001
80011120:	3c068001 	lui	a2,0x8001
80011124:	24847be0 	addiu	a0,a0,31712
80011128:	240502fa 	li	a1,762
8001112c:	0c0009f2 	jal	800027c8 <__panic>
80011130:	24c67bf8 	addiu	a2,a2,31736
80011134:	3c048001 	lui	a0,0x8001
80011138:	3c068001 	lui	a2,0x8001
8001113c:	24847be0 	addiu	a0,a0,31712
80011140:	240502fc 	li	a1,764
80011144:	0c0009f2 	jal	800027c8 <__panic>
80011148:	24c67690 	addiu	a2,a2,30352

8001114c <sfs_close>:
8001114c:	27bdffe8 	addiu	sp,sp,-24
80011150:	afb00010 	sw	s0,16(sp)
80011154:	afbf0014 	sw	ra,20(sp)
80011158:	10800013 	beqz	a0,800111a8 <sfs_close+0x5c>
8001115c:	00808021 	move	s0,a0
80011160:	8c82003c 	lw	v0,60(a0)
80011164:	00000000 	nop
80011168:	1040000f 	beqz	v0,800111a8 <sfs_close+0x5c>
8001116c:	00000000 	nop
80011170:	8c420018 	lw	v0,24(v0)
80011174:	00000000 	nop
80011178:	1040000b 	beqz	v0,800111a8 <sfs_close+0x5c>
8001117c:	3c058001 	lui	a1,0x8001
80011180:	0c003713 	jal	8000dc4c <inode_check>
80011184:	24a56ed8 	addiu	a1,a1,28376
80011188:	8e02003c 	lw	v0,60(s0)
8001118c:	02002021 	move	a0,s0
80011190:	8fbf0014 	lw	ra,20(sp)
80011194:	8fb00010 	lw	s0,16(sp)
80011198:	8c590018 	lw	t9,24(v0)
8001119c:	00000000 	nop
800111a0:	03200008 	jr	t9
800111a4:	27bd0018 	addiu	sp,sp,24
800111a8:	3c048001 	lui	a0,0x8001
800111ac:	3c068001 	lui	a2,0x8001
800111b0:	24847be0 	addiu	a0,a0,31712
800111b4:	240501b4 	li	a1,436
800111b8:	0c0009f2 	jal	800027c8 <__panic>
800111bc:	24c66e78 	addiu	a2,a2,28280

800111c0 <sfs_fstat>:
800111c0:	27bdffe0 	addiu	sp,sp,-32
800111c4:	afb10018 	sw	s1,24(sp)
800111c8:	00a08821 	move	s1,a1
800111cc:	afb00014 	sw	s0,20(sp)
800111d0:	00002821 	move	a1,zero
800111d4:	00808021 	move	s0,a0
800111d8:	24060010 	li	a2,16
800111dc:	afbf001c 	sw	ra,28(sp)
800111e0:	0c00083d 	jal	800020f4 <memset>
800111e4:	02202021 	move	a0,s1
800111e8:	12000025 	beqz	s0,80011280 <sfs_fstat+0xc0>
800111ec:	00000000 	nop
800111f0:	8e02003c 	lw	v0,60(s0)
800111f4:	00000000 	nop
800111f8:	10400022 	beqz	v0,80011284 <sfs_fstat+0xc4>
800111fc:	3c048001 	lui	a0,0x8001
80011200:	8c420028 	lw	v0,40(v0)
80011204:	00000000 	nop
80011208:	1040001e 	beqz	v0,80011284 <sfs_fstat+0xc4>
8001120c:	3c058001 	lui	a1,0x8001
80011210:	02002021 	move	a0,s0
80011214:	0c003713 	jal	8000dc4c <inode_check>
80011218:	24a57828 	addiu	a1,a1,30760
8001121c:	8e02003c 	lw	v0,60(s0)
80011220:	02002021 	move	a0,s0
80011224:	8c420028 	lw	v0,40(v0)
80011228:	00000000 	nop
8001122c:	0040f809 	jalr	v0
80011230:	02202821 	move	a1,s1
80011234:	1440000d 	bnez	v0,8001126c <sfs_fstat+0xac>
80011238:	24031235 	li	v1,4661
8001123c:	8e04002c 	lw	a0,44(s0)
80011240:	00000000 	nop
80011244:	14830014 	bne	a0,v1,80011298 <sfs_fstat+0xd8>
80011248:	3c048001 	lui	a0,0x8001
8001124c:	8e030000 	lw	v1,0(s0)
80011250:	00000000 	nop
80011254:	94650006 	lhu	a1,6(v1)
80011258:	8c640008 	lw	a0,8(v1)
8001125c:	8c630000 	lw	v1,0(v1)
80011260:	ae250004 	sw	a1,4(s1)
80011264:	ae240008 	sw	a0,8(s1)
80011268:	ae23000c 	sw	v1,12(s1)
8001126c:	8fbf001c 	lw	ra,28(sp)
80011270:	8fb10018 	lw	s1,24(sp)
80011274:	8fb00014 	lw	s0,20(sp)
80011278:	03e00008 	jr	ra
8001127c:	27bd0020 	addiu	sp,sp,32
80011280:	3c048001 	lui	a0,0x8001
80011284:	3c068001 	lui	a2,0x8001
80011288:	24847be0 	addiu	a0,a0,31712
8001128c:	2405022f 	li	a1,559
80011290:	0c0009f2 	jal	800027c8 <__panic>
80011294:	24c677c4 	addiu	a2,a2,30660
80011298:	3c068001 	lui	a2,0x8001
8001129c:	24847be0 	addiu	a0,a0,31712
800112a0:	24050232 	li	a1,562
800112a4:	0c0009f2 	jal	800027c8 <__panic>
800112a8:	24c67bf8 	addiu	a2,a2,31736

800112ac <sfs_write>:
800112ac:	27bdffc0 	addiu	sp,sp,-64
800112b0:	afb30038 	sw	s3,56(sp)
800112b4:	8c930038 	lw	s3,56(a0)
800112b8:	afb20034 	sw	s2,52(sp)
800112bc:	afb0002c 	sw	s0,44(sp)
800112c0:	afbf003c 	sw	ra,60(sp)
800112c4:	afb10030 	sw	s1,48(sp)
800112c8:	00809021 	move	s2,a0
800112cc:	1260002f 	beqz	s3,8001138c <sfs_write+0xe0>
800112d0:	00a08021 	move	s0,a1
800112d4:	8e62006c 	lw	v0,108(s3)
800112d8:	00000000 	nop
800112dc:	1440002b 	bnez	v0,8001138c <sfs_write+0xe0>
800112e0:	24021235 	li	v0,4661
800112e4:	8c83002c 	lw	v1,44(a0)
800112e8:	00000000 	nop
800112ec:	14620021 	bne	v1,v0,80011374 <sfs_write+0xc8>
800112f0:	24910010 	addiu	s1,a0,16
800112f4:	0c0022f8 	jal	80008be0 <down>
800112f8:	02202021 	move	a0,s1
800112fc:	8e02000c 	lw	v0,12(s0)
80011300:	8e060000 	lw	a2,0(s0)
80011304:	8e070004 	lw	a3,4(s0)
80011308:	afa20018 	sw	v0,24(sp)
8001130c:	27a20018 	addiu	v0,sp,24
80011310:	02402821 	move	a1,s2
80011314:	afa20010 	sw	v0,16(sp)
80011318:	02602021 	move	a0,s3
8001131c:	24020001 	li	v0,1
80011320:	0c0041cf 	jal	8001073c <sfs_io_nolock>
80011324:	afa20014 	sw	v0,20(sp)
80011328:	8fa50018 	lw	a1,24(sp)
8001132c:	00000000 	nop
80011330:	10a00006 	beqz	a1,8001134c <sfs_write+0xa0>
80011334:	02202021 	move	a0,s1
80011338:	02002021 	move	a0,s0
8001133c:	0c0033d1 	jal	8000cf44 <iobuf_skip>
80011340:	afa20020 	sw	v0,32(sp)
80011344:	8fa20020 	lw	v0,32(sp)
80011348:	02202021 	move	a0,s1
8001134c:	0c0022f6 	jal	80008bd8 <up>
80011350:	afa20020 	sw	v0,32(sp)
80011354:	8fbf003c 	lw	ra,60(sp)
80011358:	8fa20020 	lw	v0,32(sp)
8001135c:	8fb30038 	lw	s3,56(sp)
80011360:	8fb20034 	lw	s2,52(sp)
80011364:	8fb10030 	lw	s1,48(sp)
80011368:	8fb0002c 	lw	s0,44(sp)
8001136c:	03e00008 	jr	ra
80011370:	27bd0040 	addiu	sp,sp,64
80011374:	3c048001 	lui	a0,0x8001
80011378:	3c068001 	lui	a2,0x8001
8001137c:	24847be0 	addiu	a0,a0,31712
80011380:	24050213 	li	a1,531
80011384:	0c0009f2 	jal	800027c8 <__panic>
80011388:	24c67bf8 	addiu	a2,a2,31736
8001138c:	3c048001 	lui	a0,0x8001
80011390:	3c068001 	lui	a2,0x8001
80011394:	24847be0 	addiu	a0,a0,31712
80011398:	24050212 	li	a1,530
8001139c:	0c0009f2 	jal	800027c8 <__panic>
800113a0:	24c67a0c 	addiu	a2,a2,31244

800113a4 <sfs_read>:
800113a4:	27bdffc0 	addiu	sp,sp,-64
800113a8:	afb30038 	sw	s3,56(sp)
800113ac:	8c930038 	lw	s3,56(a0)
800113b0:	afb20034 	sw	s2,52(sp)
800113b4:	afb0002c 	sw	s0,44(sp)
800113b8:	afbf003c 	sw	ra,60(sp)
800113bc:	afb10030 	sw	s1,48(sp)
800113c0:	00809021 	move	s2,a0
800113c4:	1260002e 	beqz	s3,80011480 <sfs_read+0xdc>
800113c8:	00a08021 	move	s0,a1
800113cc:	8e62006c 	lw	v0,108(s3)
800113d0:	00000000 	nop
800113d4:	1440002a 	bnez	v0,80011480 <sfs_read+0xdc>
800113d8:	24021235 	li	v0,4661
800113dc:	8c83002c 	lw	v1,44(a0)
800113e0:	00000000 	nop
800113e4:	14620020 	bne	v1,v0,80011468 <sfs_read+0xc4>
800113e8:	24910010 	addiu	s1,a0,16
800113ec:	0c0022f8 	jal	80008be0 <down>
800113f0:	02202021 	move	a0,s1
800113f4:	8e02000c 	lw	v0,12(s0)
800113f8:	8e060000 	lw	a2,0(s0)
800113fc:	8e070004 	lw	a3,4(s0)
80011400:	02402821 	move	a1,s2
80011404:	afa20018 	sw	v0,24(sp)
80011408:	02602021 	move	a0,s3
8001140c:	27a20018 	addiu	v0,sp,24
80011410:	afa20010 	sw	v0,16(sp)
80011414:	0c0041cf 	jal	8001073c <sfs_io_nolock>
80011418:	afa00014 	sw	zero,20(sp)
8001141c:	8fa50018 	lw	a1,24(sp)
80011420:	00000000 	nop
80011424:	10a00006 	beqz	a1,80011440 <sfs_read+0x9c>
80011428:	02202021 	move	a0,s1
8001142c:	02002021 	move	a0,s0
80011430:	0c0033d1 	jal	8000cf44 <iobuf_skip>
80011434:	afa20020 	sw	v0,32(sp)
80011438:	8fa20020 	lw	v0,32(sp)
8001143c:	02202021 	move	a0,s1
80011440:	0c0022f6 	jal	80008bd8 <up>
80011444:	afa20020 	sw	v0,32(sp)
80011448:	8fbf003c 	lw	ra,60(sp)
8001144c:	8fa20020 	lw	v0,32(sp)
80011450:	8fb30038 	lw	s3,56(sp)
80011454:	8fb20034 	lw	s2,52(sp)
80011458:	8fb10030 	lw	s1,48(sp)
8001145c:	8fb0002c 	lw	s0,44(sp)
80011460:	03e00008 	jr	ra
80011464:	27bd0040 	addiu	sp,sp,64
80011468:	3c048001 	lui	a0,0x8001
8001146c:	3c068001 	lui	a2,0x8001
80011470:	24847be0 	addiu	a0,a0,31712
80011474:	24050213 	li	a1,531
80011478:	0c0009f2 	jal	800027c8 <__panic>
8001147c:	24c67bf8 	addiu	a2,a2,31736
80011480:	3c048001 	lui	a0,0x8001
80011484:	3c068001 	lui	a2,0x8001
80011488:	24847be0 	addiu	a0,a0,31712
8001148c:	24050212 	li	a1,530
80011490:	0c0009f2 	jal	800027c8 <__panic>
80011494:	24c67a0c 	addiu	a2,a2,31244

80011498 <sfs_load_inode>:
80011498:	27bdffc0 	addiu	sp,sp,-64
8001149c:	afb00024 	sw	s0,36(sp)
800114a0:	00c08021 	move	s0,a2
800114a4:	afbf003c 	sw	ra,60(sp)
800114a8:	afb50038 	sw	s5,56(sp)
800114ac:	afb30030 	sw	s3,48(sp)
800114b0:	afb2002c 	sw	s2,44(sp)
800114b4:	afb10028 	sw	s1,40(sp)
800114b8:	00a09021 	move	s2,a1
800114bc:	00808821 	move	s1,a0
800114c0:	0c004873 	jal	800121cc <lock_sfs_fs>
800114c4:	afb40034 	sw	s4,52(sp)
800114c8:	02002021 	move	a0,s0
800114cc:	8e330068 	lw	s3,104(s1)
800114d0:	0c000050 	jal	80000140 <hash32>
800114d4:	2405000a 	li	a1,10
800114d8:	000210c0 	sll	v0,v0,0x3
800114dc:	02629821 	addu	s3,s3,v0
800114e0:	0260a821 	move	s5,s3
800114e4:	8eb50004 	lw	s5,4(s5)
800114e8:	00000000 	nop
800114ec:	1275001f 	beq	s3,s5,8001156c <sfs_load_inode+0xd4>
800114f0:	00000000 	nop
800114f4:	8ea3ffe0 	lw	v1,-32(s5)
800114f8:	00000000 	nop
800114fc:	1603fff9 	bne	s0,v1,800114e4 <sfs_load_inode+0x4c>
80011500:	00000000 	nop
80011504:	26b4ffdc 	addiu	s4,s5,-36
80011508:	0c0036d4 	jal	8000db50 <inode_ref_inc>
8001150c:	02802021 	move	a0,s4
80011510:	24030001 	li	v1,1
80011514:	10430010 	beq	v0,v1,80011558 <sfs_load_inode+0xc0>
80011518:	00000000 	nop
8001151c:	12800013 	beqz	s4,8001156c <sfs_load_inode+0xd4>
80011520:	00000000 	nop
80011524:	0c004879 	jal	800121e4 <unlock_sfs_fs>
80011528:	02202021 	move	a0,s1
8001152c:	00001021 	move	v0,zero
80011530:	ae540000 	sw	s4,0(s2)
80011534:	8fbf003c 	lw	ra,60(sp)
80011538:	8fb50038 	lw	s5,56(sp)
8001153c:	8fb40034 	lw	s4,52(sp)
80011540:	8fb30030 	lw	s3,48(sp)
80011544:	8fb2002c 	lw	s2,44(sp)
80011548:	8fb10028 	lw	s1,40(sp)
8001154c:	8fb00024 	lw	s0,36(sp)
80011550:	03e00008 	jr	ra
80011554:	27bd0040 	addiu	sp,sp,64
80011558:	8ea2ffe8 	lw	v0,-24(s5)
8001155c:	00000000 	nop
80011560:	24420001 	addiu	v0,v0,1
80011564:	08004547 	j	8001151c <sfs_load_inode+0x84>
80011568:	aea2ffe8 	sw	v0,-24(s5)
8001156c:	0c001716 	jal	80005c58 <kmalloc>
80011570:	24040040 	li	a0,64
80011574:	1040002b 	beqz	v0,80011624 <sfs_load_inode+0x18c>
80011578:	00409821 	move	s3,v0
8001157c:	02202021 	move	a0,s1
80011580:	0c003fea 	jal	8000ffa8 <sfs_block_inuse>
80011584:	02002821 	move	a1,s0
80011588:	10400057 	beqz	v0,800116e8 <sfs_load_inode+0x250>
8001158c:	02202021 	move	a0,s1
80011590:	02602821 	move	a1,s3
80011594:	24060040 	li	a2,64
80011598:	02003821 	move	a3,s0
8001159c:	0c0047ae 	jal	80011eb8 <sfs_rbuf>
800115a0:	afa00010 	sw	zero,16(sp)
800115a4:	14400016 	bnez	v0,80011600 <sfs_load_inode+0x168>
800115a8:	02602021 	move	a0,s3
800115ac:	96620006 	lhu	v0,6(s3)
800115b0:	00000000 	nop
800115b4:	10400047 	beqz	v0,800116d4 <sfs_load_inode+0x23c>
800115b8:	3c048001 	lui	a0,0x8001
800115bc:	0c0036b1 	jal	8000dac4 <__alloc_inode>
800115c0:	24041235 	li	a0,4661
800115c4:	1040000c 	beqz	v0,800115f8 <sfs_load_inode+0x160>
800115c8:	0040a021 	move	s4,v0
800115cc:	96670004 	lhu	a3,4(s3)
800115d0:	24020001 	li	v0,1
800115d4:	10e2003c 	beq	a3,v0,800116c8 <sfs_load_inode+0x230>
800115d8:	24020002 	li	v0,2
800115dc:	10e20013 	beq	a3,v0,8001162c <sfs_load_inode+0x194>
800115e0:	3c048001 	lui	a0,0x8001
800115e4:	3c068001 	lui	a2,0x8001
800115e8:	24847be0 	addiu	a0,a0,31712
800115ec:	24050025 	li	a1,37
800115f0:	0c0009f2 	jal	800027c8 <__panic>
800115f4:	24c67c40 	addiu	a2,a2,31808
800115f8:	2402fffc 	li	v0,-4
800115fc:	02602021 	move	a0,s3
80011600:	0c001740 	jal	80005d00 <kfree>
80011604:	afa20018 	sw	v0,24(sp)
80011608:	8fa20018 	lw	v0,24(sp)
8001160c:	02202021 	move	a0,s1
80011610:	0c004879 	jal	800121e4 <unlock_sfs_fs>
80011614:	afa20018 	sw	v0,24(sp)
80011618:	8fa20018 	lw	v0,24(sp)
8001161c:	0800454d 	j	80011534 <sfs_load_inode+0x9c>
80011620:	00000000 	nop
80011624:	08004583 	j	8001160c <sfs_load_inode+0x174>
80011628:	2402fffc 	li	v0,-4
8001162c:	3c058001 	lui	a1,0x8001
80011630:	24a543a4 	addiu	a1,a1,17316
80011634:	02802021 	move	a0,s4
80011638:	0c0036f1 	jal	8000dbc4 <inode_init>
8001163c:	02203021 	move	a2,s1
80011640:	8e95002c 	lw	s5,44(s4)
80011644:	24021235 	li	v0,4661
80011648:	16a20033 	bne	s5,v0,80011718 <sfs_load_inode+0x280>
8001164c:	24020001 	li	v0,1
80011650:	ae82000c 	sw	v0,12(s4)
80011654:	ae930000 	sw	s3,0(s4)
80011658:	ae900004 	sw	s0,4(s4)
8001165c:	ae800008 	sw	zero,8(s4)
80011660:	26840010 	addiu	a0,s4,16
80011664:	0c0022f3 	jal	80008bcc <sem_init>
80011668:	24050001 	li	a1,1
8001166c:	8e82002c 	lw	v0,44(s4)
80011670:	00000000 	nop
80011674:	14550022 	bne	v0,s5,80011700 <sfs_load_inode+0x268>
80011678:	2683001c 	addiu	v1,s4,28
8001167c:	8e220064 	lw	v0,100(s1)
80011680:	8e840004 	lw	a0,4(s4)
80011684:	26250060 	addiu	a1,s1,96
80011688:	ac430000 	sw	v1,0(v0)
8001168c:	ae230064 	sw	v1,100(s1)
80011690:	ae85001c 	sw	a1,28(s4)
80011694:	ae820020 	sw	v0,32(s4)
80011698:	8e300068 	lw	s0,104(s1)
8001169c:	0c000050 	jal	80000140 <hash32>
800116a0:	2405000a 	li	a1,10
800116a4:	000210c0 	sll	v0,v0,0x3
800116a8:	02028021 	addu	s0,s0,v0
800116ac:	8e020004 	lw	v0,4(s0)
800116b0:	26830024 	addiu	v1,s4,36
800116b4:	ac430000 	sw	v1,0(v0)
800116b8:	ae030004 	sw	v1,4(s0)
800116bc:	ae900024 	sw	s0,36(s4)
800116c0:	08004549 	j	80011524 <sfs_load_inode+0x8c>
800116c4:	ae820028 	sw	v0,40(s4)
800116c8:	3c058001 	lui	a1,0x8001
800116cc:	0800458d 	j	80011634 <sfs_load_inode+0x19c>
800116d0:	24a543e4 	addiu	a1,a1,17380
800116d4:	3c068001 	lui	a2,0x8001
800116d8:	24847be0 	addiu	a0,a0,31712
800116dc:	24050086 	li	a1,134
800116e0:	0c0009f2 	jal	800027c8 <__panic>
800116e4:	24c67f60 	addiu	a2,a2,32608
800116e8:	3c048001 	lui	a0,0x8001
800116ec:	3c068001 	lui	a2,0x8001
800116f0:	24847be0 	addiu	a0,a0,31712
800116f4:	24050081 	li	a1,129
800116f8:	0c0009f2 	jal	800027c8 <__panic>
800116fc:	24c67cf0 	addiu	a2,a2,31984
80011700:	3c048001 	lui	a0,0x8001
80011704:	3c068001 	lui	a2,0x8001
80011708:	24847be0 	addiu	a0,a0,31712
8001170c:	2405008a 	li	a1,138
80011710:	0c0009f2 	jal	800027c8 <__panic>
80011714:	24c67bf8 	addiu	a2,a2,31736
80011718:	3c048001 	lui	a0,0x8001
8001171c:	3c068001 	lui	a2,0x8001
80011720:	24847be0 	addiu	a0,a0,31712
80011724:	24050059 	li	a1,89
80011728:	0c0009f2 	jal	800027c8 <__panic>
8001172c:	24c67bf8 	addiu	a2,a2,31736

80011730 <sfs_lookup_once.constprop.9>:
80011730:	27bdffc0 	addiu	sp,sp,-64
80011734:	afb70034 	sw	s7,52(sp)
80011738:	24b70010 	addiu	s7,a1,16
8001173c:	afb5002c 	sw	s5,44(sp)
80011740:	afb40028 	sw	s4,40(sp)
80011744:	00c0a821 	move	s5,a2
80011748:	0080a021 	move	s4,a0
8001174c:	02e02021 	move	a0,s7
80011750:	afbf003c 	sw	ra,60(sp)
80011754:	afbe0038 	sw	s8,56(sp)
80011758:	afb20020 	sw	s2,32(sp)
8001175c:	00e0f021 	move	s8,a3
80011760:	00a09021 	move	s2,a1
80011764:	afb60030 	sw	s6,48(sp)
80011768:	afb30024 	sw	s3,36(sp)
8001176c:	afb1001c 	sw	s1,28(sp)
80011770:	0c0022f8 	jal	80008be0 <down>
80011774:	afb00018 	sw	s0,24(sp)
80011778:	0c0007b2 	jal	80001ec8 <strlen>
8001177c:	02a02021 	move	a0,s5
80011780:	2c420100 	sltiu	v0,v0,256
80011784:	1040004b 	beqz	v0,800118b4 <sfs_lookup_once.constprop.9+0x184>
80011788:	3c048001 	lui	a0,0x8001
8001178c:	0c001716 	jal	80005c58 <kmalloc>
80011790:	24040104 	li	a0,260
80011794:	10400043 	beqz	v0,800118a4 <sfs_lookup_once.constprop.9+0x174>
80011798:	00408821 	move	s1,v0
8001179c:	8e420000 	lw	v0,0(s2)
800117a0:	00000000 	nop
800117a4:	8c530008 	lw	s3,8(v0)
800117a8:	00000000 	nop
800117ac:	1a60002a 	blez	s3,80011858 <sfs_lookup_once.constprop.9+0x128>
800117b0:	00008021 	move	s0,zero
800117b4:	080045f2 	j	800117c8 <sfs_lookup_once.constprop.9+0x98>
800117b8:	26360004 	addiu	s6,s1,4
800117bc:	26100001 	addiu	s0,s0,1
800117c0:	12700026 	beq	s3,s0,8001185c <sfs_lookup_once.constprop.9+0x12c>
800117c4:	2402fff0 	li	v0,-16
800117c8:	02802021 	move	a0,s4
800117cc:	02402821 	move	a1,s2
800117d0:	02003021 	move	a2,s0
800117d4:	0c00429c 	jal	80010a70 <sfs_dirent_read_nolock>
800117d8:	02203821 	move	a3,s1
800117dc:	14400020 	bnez	v0,80011860 <sfs_lookup_once.constprop.9+0x130>
800117e0:	02202021 	move	a0,s1
800117e4:	8e220000 	lw	v0,0(s1)
800117e8:	00000000 	nop
800117ec:	1040fff3 	beqz	v0,800117bc <sfs_lookup_once.constprop.9+0x8c>
800117f0:	02a02021 	move	a0,s5
800117f4:	0c0007eb 	jal	80001fac <strcmp>
800117f8:	02c02821 	move	a1,s6
800117fc:	1440fff0 	bnez	v0,800117c0 <sfs_lookup_once.constprop.9+0x90>
80011800:	26100001 	addiu	s0,s0,1
80011804:	8e260000 	lw	a2,0(s1)
80011808:	02202021 	move	a0,s1
8001180c:	0c001740 	jal	80005d00 <kfree>
80011810:	afa60010 	sw	a2,16(sp)
80011814:	0c0022f6 	jal	80008bd8 <up>
80011818:	02e02021 	move	a0,s7
8001181c:	02802021 	move	a0,s4
80011820:	03c02821 	move	a1,s8
80011824:	8fa60010 	lw	a2,16(sp)
80011828:	8fbf003c 	lw	ra,60(sp)
8001182c:	8fbe0038 	lw	s8,56(sp)
80011830:	8fb70034 	lw	s7,52(sp)
80011834:	8fb60030 	lw	s6,48(sp)
80011838:	8fb5002c 	lw	s5,44(sp)
8001183c:	8fb40028 	lw	s4,40(sp)
80011840:	8fb30024 	lw	s3,36(sp)
80011844:	8fb20020 	lw	s2,32(sp)
80011848:	8fb1001c 	lw	s1,28(sp)
8001184c:	8fb00018 	lw	s0,24(sp)
80011850:	08004526 	j	80011498 <sfs_load_inode>
80011854:	27bd0040 	addiu	sp,sp,64
80011858:	2402fff0 	li	v0,-16
8001185c:	02202021 	move	a0,s1
80011860:	0c001740 	jal	80005d00 <kfree>
80011864:	afa20010 	sw	v0,16(sp)
80011868:	0c0022f6 	jal	80008bd8 <up>
8001186c:	02e02021 	move	a0,s7
80011870:	8fa20010 	lw	v0,16(sp)
80011874:	8fbf003c 	lw	ra,60(sp)
80011878:	8fbe0038 	lw	s8,56(sp)
8001187c:	8fb70034 	lw	s7,52(sp)
80011880:	8fb60030 	lw	s6,48(sp)
80011884:	8fb5002c 	lw	s5,44(sp)
80011888:	8fb40028 	lw	s4,40(sp)
8001188c:	8fb30024 	lw	s3,36(sp)
80011890:	8fb20020 	lw	s2,32(sp)
80011894:	8fb1001c 	lw	s1,28(sp)
80011898:	8fb00018 	lw	s0,24(sp)
8001189c:	03e00008 	jr	ra
800118a0:	27bd0040 	addiu	sp,sp,64
800118a4:	0c0022f6 	jal	80008bd8 <up>
800118a8:	02e02021 	move	a0,s7
800118ac:	0800461d 	j	80011874 <sfs_lookup_once.constprop.9+0x144>
800118b0:	2402fffc 	li	v0,-4
800118b4:	3c068001 	lui	a2,0x8001
800118b8:	24847be0 	addiu	a0,a0,31712
800118bc:	24050162 	li	a1,354
800118c0:	0c0009f2 	jal	800027c8 <__panic>
800118c4:	24c67f94 	addiu	a2,a2,32660

800118c8 <sfs_namefile>:
800118c8:	8ca2000c 	lw	v0,12(a1)
800118cc:	27bdffb0 	addiu	sp,sp,-80
800118d0:	2c420003 	sltiu	v0,v0,3
800118d4:	afb00028 	sw	s0,40(sp)
800118d8:	afbf004c 	sw	ra,76(sp)
800118dc:	afbe0048 	sw	s8,72(sp)
800118e0:	afb70044 	sw	s7,68(sp)
800118e4:	afb60040 	sw	s6,64(sp)
800118e8:	afb5003c 	sw	s5,60(sp)
800118ec:	afb40038 	sw	s4,56(sp)
800118f0:	afb30034 	sw	s3,52(sp)
800118f4:	afb20030 	sw	s2,48(sp)
800118f8:	afb1002c 	sw	s1,44(sp)
800118fc:	afa50054 	sw	a1,84(sp)
80011900:	144000a4 	bnez	v0,80011b94 <sfs_namefile+0x2cc>
80011904:	00808021 	move	s0,a0
80011908:	0c001716 	jal	80005c58 <kmalloc>
8001190c:	24040104 	li	a0,260
80011910:	104000a0 	beqz	v0,80011b94 <sfs_namefile+0x2cc>
80011914:	00408821 	move	s1,v0
80011918:	8e150038 	lw	s5,56(s0)
8001191c:	00000000 	nop
80011920:	12a000ac 	beqz	s5,80011bd4 <sfs_namefile+0x30c>
80011924:	00000000 	nop
80011928:	8ea2006c 	lw	v0,108(s5)
8001192c:	00000000 	nop
80011930:	144000a8 	bnez	v0,80011bd4 <sfs_namefile+0x30c>
80011934:	24021235 	li	v0,4661
80011938:	8e03002c 	lw	v1,44(s0)
8001193c:	00000000 	nop
80011940:	146200aa 	bne	v1,v0,80011bec <sfs_namefile+0x324>
80011944:	02002021 	move	a0,s0
80011948:	8fa30054 	lw	v1,84(sp)
8001194c:	00000000 	nop
80011950:	8c62000c 	lw	v0,12(v1)
80011954:	8c770000 	lw	s7,0(v1)
80011958:	0200b021 	move	s6,s0
8001195c:	02e2b821 	addu	s7,s7,v0
80011960:	2442fffe 	addiu	v0,v0,-2
80011964:	0c0036d4 	jal	8000db50 <inode_ref_inc>
80011968:	afa20018 	sw	v0,24(sp)
8001196c:	3c068001 	lui	a2,0x8001
80011970:	26230004 	addiu	v1,s1,4
80011974:	02a02021 	move	a0,s5
80011978:	02c02821 	move	a1,s6
8001197c:	24c67fc8 	addiu	a2,a2,32712
80011980:	27a70010 	addiu	a3,sp,16
80011984:	0c0045cc 	jal	80011730 <sfs_lookup_once.constprop.9>
80011988:	afa3001c 	sw	v1,28(sp)
8001198c:	14400067 	bnez	v0,80011b2c <sfs_namefile+0x264>
80011990:	00401821 	move	v1,v0
80011994:	02002021 	move	a0,s0
80011998:	8ed30004 	lw	s3,4(s6)
8001199c:	0c003793 	jal	8000de4c <inode_ref_dec>
800119a0:	afa20020 	sw	v0,32(sp)
800119a4:	8fb20010 	lw	s2,16(sp)
800119a8:	00000000 	nop
800119ac:	12120061 	beq	s0,s2,80011b34 <sfs_namefile+0x26c>
800119b0:	00000000 	nop
800119b4:	12400081 	beqz	s2,80011bbc <sfs_namefile+0x2f4>
800119b8:	24031235 	li	v1,4661
800119bc:	8e42002c 	lw	v0,44(s2)
800119c0:	00000000 	nop
800119c4:	1443007e 	bne	v0,v1,80011bc0 <sfs_namefile+0x2f8>
800119c8:	3c048001 	lui	a0,0x8001
800119cc:	8e420004 	lw	v0,4(s2)
800119d0:	00000000 	nop
800119d4:	10530074 	beq	v0,s3,80011ba8 <sfs_namefile+0x2e0>
800119d8:	0240b021 	move	s6,s2
800119dc:	8e420000 	lw	v0,0(s2)
800119e0:	24040002 	li	a0,2
800119e4:	94420004 	lhu	v0,4(v0)
800119e8:	00000000 	nop
800119ec:	1444006d 	bne	v0,a0,80011ba4 <sfs_namefile+0x2dc>
800119f0:	265e0010 	addiu	s8,s2,16
800119f4:	0c0022f8 	jal	80008be0 <down>
800119f8:	03c02021 	move	a0,s8
800119fc:	8e420000 	lw	v0,0(s2)
80011a00:	00000000 	nop
80011a04:	8c540008 	lw	s4,8(v0)
80011a08:	00000000 	nop
80011a0c:	1a800027 	blez	s4,80011aac <sfs_namefile+0x1e4>
80011a10:	00008021 	move	s0,zero
80011a14:	0800468e 	j	80011a38 <sfs_namefile+0x170>
80011a18:	02a02021 	move	a0,s5
80011a1c:	8e220000 	lw	v0,0(s1)
80011a20:	00000000 	nop
80011a24:	12620023 	beq	s3,v0,80011ab4 <sfs_namefile+0x1ec>
80011a28:	26100001 	addiu	s0,s0,1
80011a2c:	12900008 	beq	s4,s0,80011a50 <sfs_namefile+0x188>
80011a30:	2403fff0 	li	v1,-16
80011a34:	02a02021 	move	a0,s5
80011a38:	02402821 	move	a1,s2
80011a3c:	02003021 	move	a2,s0
80011a40:	0c00429c 	jal	80010a70 <sfs_dirent_read_nolock>
80011a44:	02203821 	move	a3,s1
80011a48:	1040fff4 	beqz	v0,80011a1c <sfs_namefile+0x154>
80011a4c:	00401821 	move	v1,v0
80011a50:	03c02021 	move	a0,s8
80011a54:	0c0022f6 	jal	80008bd8 <up>
80011a58:	afa30020 	sw	v1,32(sp)
80011a5c:	8fa30020 	lw	v1,32(sp)
80011a60:	02402021 	move	a0,s2
80011a64:	0c003793 	jal	8000de4c <inode_ref_dec>
80011a68:	afa30020 	sw	v1,32(sp)
80011a6c:	0c001740 	jal	80005d00 <kfree>
80011a70:	02202021 	move	a0,s1
80011a74:	8fa30020 	lw	v1,32(sp)
80011a78:	8fbf004c 	lw	ra,76(sp)
80011a7c:	00601021 	move	v0,v1
80011a80:	8fbe0048 	lw	s8,72(sp)
80011a84:	8fb70044 	lw	s7,68(sp)
80011a88:	8fb60040 	lw	s6,64(sp)
80011a8c:	8fb5003c 	lw	s5,60(sp)
80011a90:	8fb40038 	lw	s4,56(sp)
80011a94:	8fb30034 	lw	s3,52(sp)
80011a98:	8fb20030 	lw	s2,48(sp)
80011a9c:	8fb1002c 	lw	s1,44(sp)
80011aa0:	8fb00028 	lw	s0,40(sp)
80011aa4:	03e00008 	jr	ra
80011aa8:	27bd0050 	addiu	sp,sp,80
80011aac:	08004694 	j	80011a50 <sfs_namefile+0x188>
80011ab0:	2403fff0 	li	v1,-16
80011ab4:	0c0022f6 	jal	80008bd8 <up>
80011ab8:	03c02021 	move	a0,s8
80011abc:	8fa4001c 	lw	a0,28(sp)
80011ac0:	0c0007b2 	jal	80001ec8 <strlen>
80011ac4:	00000000 	nop
80011ac8:	8fa40018 	lw	a0,24(sp)
80011acc:	00408021 	move	s0,v0
80011ad0:	24420001 	addiu	v0,v0,1
80011ad4:	0082182b 	sltu	v1,a0,v0
80011ad8:	14600030 	bnez	v1,80011b9c <sfs_namefile+0x2d4>
80011adc:	02e2b823 	subu	s7,s7,v0
80011ae0:	8fa30018 	lw	v1,24(sp)
80011ae4:	8fa5001c 	lw	a1,28(sp)
80011ae8:	00621823 	subu	v1,v1,v0
80011aec:	02003021 	move	a2,s0
80011af0:	02e02021 	move	a0,s7
80011af4:	afa30018 	sw	v1,24(sp)
80011af8:	0c000847 	jal	8000211c <memcpy>
80011afc:	02f08021 	addu	s0,s7,s0
80011b00:	2404002f 	li	a0,47
80011b04:	3c068001 	lui	a2,0x8001
80011b08:	a2040000 	sb	a0,0(s0)
80011b0c:	02c02821 	move	a1,s6
80011b10:	02a02021 	move	a0,s5
80011b14:	24c67fc8 	addiu	a2,a2,32712
80011b18:	0c0045cc 	jal	80011730 <sfs_lookup_once.constprop.9>
80011b1c:	27a70010 	addiu	a3,sp,16
80011b20:	02408021 	move	s0,s2
80011b24:	1040ff9b 	beqz	v0,80011994 <sfs_namefile+0xcc>
80011b28:	00401821 	move	v1,v0
80011b2c:	08004698 	j	80011a60 <sfs_namefile+0x198>
80011b30:	02009021 	move	s2,s0
80011b34:	0c003793 	jal	8000de4c <inode_ref_dec>
80011b38:	02002021 	move	a0,s0
80011b3c:	8fa40054 	lw	a0,84(sp)
80011b40:	8fa20018 	lw	v0,24(sp)
80011b44:	8c90000c 	lw	s0,12(a0)
80011b48:	8c840000 	lw	a0,0(a0)
80011b4c:	2610fffe 	addiu	s0,s0,-2
80011b50:	02028023 	subu	s0,s0,v0
80011b54:	02003021 	move	a2,s0
80011b58:	24840001 	addiu	a0,a0,1
80011b5c:	0c000852 	jal	80002148 <memmove>
80011b60:	02e02821 	move	a1,s7
80011b64:	2404002f 	li	a0,47
80011b68:	00502821 	addu	a1,v0,s0
80011b6c:	a044ffff 	sb	a0,-1(v0)
80011b70:	8fa40054 	lw	a0,84(sp)
80011b74:	a0a00000 	sb	zero,0(a1)
80011b78:	0c0033d1 	jal	8000cf44 <iobuf_skip>
80011b7c:	02002821 	move	a1,s0
80011b80:	0c001740 	jal	80005d00 <kfree>
80011b84:	02202021 	move	a0,s1
80011b88:	8fa30020 	lw	v1,32(sp)
80011b8c:	0800469e 	j	80011a78 <sfs_namefile+0x1b0>
80011b90:	00000000 	nop
80011b94:	0800469e 	j	80011a78 <sfs_namefile+0x1b0>
80011b98:	2403fffc 	li	v1,-4
80011b9c:	08004698 	j	80011a60 <sfs_namefile+0x198>
80011ba0:	2403fffc 	li	v1,-4
80011ba4:	3c048001 	lui	a0,0x8001
80011ba8:	3c068001 	lui	a2,0x8001
80011bac:	24847be0 	addiu	a0,a0,31712
80011bb0:	24050269 	li	a1,617
80011bb4:	0c0009f2 	jal	800027c8 <__panic>
80011bb8:	24c67fcc 	addiu	a2,a2,32716
80011bbc:	3c048001 	lui	a0,0x8001
80011bc0:	3c068001 	lui	a2,0x8001
80011bc4:	24847be0 	addiu	a0,a0,31712
80011bc8:	24050268 	li	a1,616
80011bcc:	0c0009f2 	jal	800027c8 <__panic>
80011bd0:	24c67bf8 	addiu	a2,a2,31736
80011bd4:	3c048001 	lui	a0,0x8001
80011bd8:	3c068001 	lui	a2,0x8001
80011bdc:	24847be0 	addiu	a0,a0,31712
80011be0:	24050254 	li	a1,596
80011be4:	0c0009f2 	jal	800027c8 <__panic>
80011be8:	24c67a0c 	addiu	a2,a2,31244
80011bec:	3c048001 	lui	a0,0x8001
80011bf0:	3c068001 	lui	a2,0x8001
80011bf4:	24847be0 	addiu	a0,a0,31712
80011bf8:	24050255 	li	a1,597
80011bfc:	0c0009f2 	jal	800027c8 <__panic>
80011c00:	24c67bf8 	addiu	a2,a2,31736

80011c04 <sfs_lookup>:
80011c04:	27bdffd0 	addiu	sp,sp,-48
80011c08:	afb20024 	sw	s2,36(sp)
80011c0c:	8c920038 	lw	s2,56(a0)
80011c10:	afb30028 	sw	s3,40(sp)
80011c14:	afb10020 	sw	s1,32(sp)
80011c18:	afb0001c 	sw	s0,28(sp)
80011c1c:	afbf002c 	sw	ra,44(sp)
80011c20:	00808021 	move	s0,a0
80011c24:	00a09821 	move	s3,a1
80011c28:	1240002f 	beqz	s2,80011ce8 <sfs_lookup+0xe4>
80011c2c:	00c08821 	move	s1,a2
80011c30:	8e42006c 	lw	v0,108(s2)
80011c34:	00000000 	nop
80011c38:	1440002b 	bnez	v0,80011ce8 <sfs_lookup+0xe4>
80011c3c:	00000000 	nop
80011c40:	90a20000 	lbu	v0,0(a1)
80011c44:	00000000 	nop
80011c48:	10400032 	beqz	v0,80011d14 <sfs_lookup+0x110>
80011c4c:	2403002f 	li	v1,47
80011c50:	10430030 	beq	v0,v1,80011d14 <sfs_lookup+0x110>
80011c54:	00000000 	nop
80011c58:	0c0036d4 	jal	8000db50 <inode_ref_inc>
80011c5c:	00000000 	nop
80011c60:	8e03002c 	lw	v1,44(s0)
80011c64:	24021235 	li	v0,4661
80011c68:	14620025 	bne	v1,v0,80011d00 <sfs_lookup+0xfc>
80011c6c:	3c048001 	lui	a0,0x8001
80011c70:	8e020000 	lw	v0,0(s0)
80011c74:	00000000 	nop
80011c78:	94430004 	lhu	v1,4(v0)
80011c7c:	24020002 	li	v0,2
80011c80:	14620015 	bne	v1,v0,80011cd8 <sfs_lookup+0xd4>
80011c84:	02002821 	move	a1,s0
80011c88:	02402021 	move	a0,s2
80011c8c:	02603021 	move	a2,s3
80011c90:	0c0045cc 	jal	80011730 <sfs_lookup_once.constprop.9>
80011c94:	27a70010 	addiu	a3,sp,16
80011c98:	00409021 	move	s2,v0
80011c9c:	0c003793 	jal	8000de4c <inode_ref_dec>
80011ca0:	02002021 	move	a0,s0
80011ca4:	16400004 	bnez	s2,80011cb8 <sfs_lookup+0xb4>
80011ca8:	00000000 	nop
80011cac:	8fa20010 	lw	v0,16(sp)
80011cb0:	00000000 	nop
80011cb4:	ae220000 	sw	v0,0(s1)
80011cb8:	8fbf002c 	lw	ra,44(sp)
80011cbc:	02401021 	move	v0,s2
80011cc0:	8fb30028 	lw	s3,40(sp)
80011cc4:	8fb20024 	lw	s2,36(sp)
80011cc8:	8fb10020 	lw	s1,32(sp)
80011ccc:	8fb0001c 	lw	s0,28(sp)
80011cd0:	03e00008 	jr	ra
80011cd4:	27bd0030 	addiu	sp,sp,48
80011cd8:	0c003793 	jal	8000de4c <inode_ref_dec>
80011cdc:	02002021 	move	a0,s0
80011ce0:	0800472e 	j	80011cb8 <sfs_lookup+0xb4>
80011ce4:	2412ffee 	li	s2,-18
80011ce8:	3c048001 	lui	a0,0x8001
80011cec:	3c068001 	lui	a2,0x8001
80011cf0:	24847be0 	addiu	a0,a0,31712
80011cf4:	2405032d 	li	a1,813
80011cf8:	0c0009f2 	jal	800027c8 <__panic>
80011cfc:	24c67a0c 	addiu	a2,a2,31244
80011d00:	3c068001 	lui	a2,0x8001
80011d04:	24847be0 	addiu	a0,a0,31712
80011d08:	24050330 	li	a1,816
80011d0c:	0c0009f2 	jal	800027c8 <__panic>
80011d10:	24c67bf8 	addiu	a2,a2,31736
80011d14:	3c048001 	lui	a0,0x8001
80011d18:	3c068002 	lui	a2,0x8002
80011d1c:	24847be0 	addiu	a0,a0,31712
80011d20:	2405032e 	li	a1,814
80011d24:	0c0009f2 	jal	800027c8 <__panic>
80011d28:	24c68020 	addiu	a2,a2,-32736

80011d2c <sfs_rwblock_nolock>:
80011d2c:	27bdffd0 	addiu	sp,sp,-48
80011d30:	afb10028 	sw	s1,40(sp)
80011d34:	afb00024 	sw	s0,36(sp)
80011d38:	afbf002c 	sw	ra,44(sp)
80011d3c:	00c01021 	move	v0,a2
80011d40:	00808021 	move	s0,a0
80011d44:	14c00005 	bnez	a2,80011d5c <sfs_rwblock_nolock+0x30>
80011d48:	00e08821 	move	s1,a3
80011d4c:	8fa30040 	lw	v1,64(sp)
80011d50:	00000000 	nop
80011d54:	14600015 	bnez	v1,80011dac <sfs_rwblock_nolock+0x80>
80011d58:	3c048002 	lui	a0,0x8002
80011d5c:	8e030004 	lw	v1,4(s0)
80011d60:	00000000 	nop
80011d64:	0043182b 	sltu	v1,v0,v1
80011d68:	1060000f 	beqz	v1,80011da8 <sfs_rwblock_nolock+0x7c>
80011d6c:	27a40010 	addiu	a0,sp,16
80011d70:	24061000 	li	a2,4096
80011d74:	0c0033cb 	jal	8000cf2c <iobuf_init>
80011d78:	00023b00 	sll	a3,v0,0xc
80011d7c:	8e04002c 	lw	a0,44(s0)
80011d80:	00402821 	move	a1,v0
80011d84:	8c820010 	lw	v0,16(a0)
80011d88:	00000000 	nop
80011d8c:	0040f809 	jalr	v0
80011d90:	02203021 	move	a2,s1
80011d94:	8fbf002c 	lw	ra,44(sp)
80011d98:	8fb10028 	lw	s1,40(sp)
80011d9c:	8fb00024 	lw	s0,36(sp)
80011da0:	03e00008 	jr	ra
80011da4:	27bd0030 	addiu	sp,sp,48
80011da8:	3c048002 	lui	a0,0x8002
80011dac:	3c068002 	lui	a2,0x8002
80011db0:	24848050 	addiu	a0,a0,-32688
80011db4:	2405000b 	li	a1,11
80011db8:	0c0009f2 	jal	800027c8 <__panic>
80011dbc:	24c68068 	addiu	a2,a2,-32664

80011dc0 <sfs_rwblock>:
80011dc0:	27bdffc0 	addiu	sp,sp,-64
80011dc4:	afb30030 	sw	s3,48(sp)
80011dc8:	afb2002c 	sw	s2,44(sp)
80011dcc:	afb10028 	sw	s1,40(sp)
80011dd0:	afb00024 	sw	s0,36(sp)
80011dd4:	afa70018 	sw	a3,24(sp)
80011dd8:	afbf003c 	sw	ra,60(sp)
80011ddc:	afb50038 	sw	s5,56(sp)
80011de0:	afb40034 	sw	s4,52(sp)
80011de4:	00809021 	move	s2,a0
80011de8:	00a08821 	move	s1,a1
80011dec:	8fb30050 	lw	s3,80(sp)
80011df0:	0c004875 	jal	800121d4 <lock_sfs_io>
80011df4:	00c08021 	move	s0,a2
80011df8:	8fa70018 	lw	a3,24(sp)
80011dfc:	00000000 	nop
80011e00:	10e0001a 	beqz	a3,80011e6c <sfs_rwblock+0xac>
80011e04:	00f0a821 	addu	s5,a3,s0
80011e08:	08004786 	j	80011e18 <sfs_rwblock+0x58>
80011e0c:	24140001 	li	s4,1
80011e10:	12150009 	beq	s0,s5,80011e38 <sfs_rwblock+0x78>
80011e14:	26311000 	addiu	s1,s1,4096
80011e18:	02003021 	move	a2,s0
80011e1c:	02202821 	move	a1,s1
80011e20:	02402021 	move	a0,s2
80011e24:	02603821 	move	a3,s3
80011e28:	0c00474b 	jal	80011d2c <sfs_rwblock_nolock>
80011e2c:	afb40010 	sw	s4,16(sp)
80011e30:	1040fff7 	beqz	v0,80011e10 <sfs_rwblock+0x50>
80011e34:	26100001 	addiu	s0,s0,1
80011e38:	02402021 	move	a0,s2
80011e3c:	0c00487b 	jal	800121ec <unlock_sfs_io>
80011e40:	afa20018 	sw	v0,24(sp)
80011e44:	8fbf003c 	lw	ra,60(sp)
80011e48:	8fa20018 	lw	v0,24(sp)
80011e4c:	8fb50038 	lw	s5,56(sp)
80011e50:	8fb40034 	lw	s4,52(sp)
80011e54:	8fb30030 	lw	s3,48(sp)
80011e58:	8fb2002c 	lw	s2,44(sp)
80011e5c:	8fb10028 	lw	s1,40(sp)
80011e60:	8fb00024 	lw	s0,36(sp)
80011e64:	03e00008 	jr	ra
80011e68:	27bd0040 	addiu	sp,sp,64
80011e6c:	0800478e 	j	80011e38 <sfs_rwblock+0x78>
80011e70:	00001021 	move	v0,zero

80011e74 <sfs_rblock>:
80011e74:	27bdffe0 	addiu	sp,sp,-32
80011e78:	afbf001c 	sw	ra,28(sp)
80011e7c:	0c004770 	jal	80011dc0 <sfs_rwblock>
80011e80:	afa00010 	sw	zero,16(sp)
80011e84:	8fbf001c 	lw	ra,28(sp)
80011e88:	00000000 	nop
80011e8c:	03e00008 	jr	ra
80011e90:	27bd0020 	addiu	sp,sp,32

80011e94 <sfs_wblock>:
80011e94:	27bdffe0 	addiu	sp,sp,-32
80011e98:	24020001 	li	v0,1
80011e9c:	afbf001c 	sw	ra,28(sp)
80011ea0:	0c004770 	jal	80011dc0 <sfs_rwblock>
80011ea4:	afa20010 	sw	v0,16(sp)
80011ea8:	8fbf001c 	lw	ra,28(sp)
80011eac:	00000000 	nop
80011eb0:	03e00008 	jr	ra
80011eb4:	27bd0020 	addiu	sp,sp,32

80011eb8 <sfs_rbuf>:
80011eb8:	27bdffc8 	addiu	sp,sp,-56
80011ebc:	afb10024 	sw	s1,36(sp)
80011ec0:	8fb10048 	lw	s1,72(sp)
80011ec4:	afb3002c 	sw	s3,44(sp)
80011ec8:	2e221000 	sltiu	v0,s1,4096
80011ecc:	afb20028 	sw	s2,40(sp)
80011ed0:	afb00020 	sw	s0,32(sp)
80011ed4:	afbf0034 	sw	ra,52(sp)
80011ed8:	afb40030 	sw	s4,48(sp)
80011edc:	00808021 	move	s0,a0
80011ee0:	00a09821 	move	s3,a1
80011ee4:	10400021 	beqz	v0,80011f6c <sfs_rbuf+0xb4>
80011ee8:	00c09021 	move	s2,a2
80011eec:	02261021 	addu	v0,s1,a2
80011ef0:	2c421001 	sltiu	v0,v0,4097
80011ef4:	1040001d 	beqz	v0,80011f6c <sfs_rbuf+0xb4>
80011ef8:	00000000 	nop
80011efc:	0c004875 	jal	800121d4 <lock_sfs_io>
80011f00:	afa70018 	sw	a3,24(sp)
80011f04:	8fa70018 	lw	a3,24(sp)
80011f08:	8e050038 	lw	a1,56(s0)
80011f0c:	00e03021 	move	a2,a3
80011f10:	24020001 	li	v0,1
80011f14:	02002021 	move	a0,s0
80011f18:	00003821 	move	a3,zero
80011f1c:	0c00474b 	jal	80011d2c <sfs_rwblock_nolock>
80011f20:	afa20010 	sw	v0,16(sp)
80011f24:	14400006 	bnez	v0,80011f40 <sfs_rbuf+0x88>
80011f28:	0040a021 	move	s4,v0
80011f2c:	8e050038 	lw	a1,56(s0)
80011f30:	02602021 	move	a0,s3
80011f34:	00b12821 	addu	a1,a1,s1
80011f38:	0c000847 	jal	8000211c <memcpy>
80011f3c:	02403021 	move	a2,s2
80011f40:	0c00487b 	jal	800121ec <unlock_sfs_io>
80011f44:	02002021 	move	a0,s0
80011f48:	8fbf0034 	lw	ra,52(sp)
80011f4c:	02801021 	move	v0,s4
80011f50:	8fb3002c 	lw	s3,44(sp)
80011f54:	8fb40030 	lw	s4,48(sp)
80011f58:	8fb20028 	lw	s2,40(sp)
80011f5c:	8fb10024 	lw	s1,36(sp)
80011f60:	8fb00020 	lw	s0,32(sp)
80011f64:	03e00008 	jr	ra
80011f68:	27bd0038 	addiu	sp,sp,56
80011f6c:	3c048002 	lui	a0,0x8002
80011f70:	3c068002 	lui	a2,0x8002
80011f74:	24848050 	addiu	a0,a0,-32688
80011f78:	2405002d 	li	a1,45
80011f7c:	0c0009f2 	jal	800027c8 <__panic>
80011f80:	24c680b0 	addiu	a2,a2,-32592

80011f84 <sfs_wbuf>:
80011f84:	27bdffc0 	addiu	sp,sp,-64
80011f88:	afb10028 	sw	s1,40(sp)
80011f8c:	8fb10050 	lw	s1,80(sp)
80011f90:	afb50038 	sw	s5,56(sp)
80011f94:	2e221000 	sltiu	v0,s1,4096
80011f98:	afb30030 	sw	s3,48(sp)
80011f9c:	afb2002c 	sw	s2,44(sp)
80011fa0:	afb00024 	sw	s0,36(sp)
80011fa4:	afbf003c 	sw	ra,60(sp)
80011fa8:	afb40034 	sw	s4,52(sp)
80011fac:	00808021 	move	s0,a0
80011fb0:	00a0a821 	move	s5,a1
80011fb4:	00c09821 	move	s3,a2
80011fb8:	10400027 	beqz	v0,80012058 <sfs_wbuf+0xd4>
80011fbc:	00e09021 	move	s2,a3
80011fc0:	02261021 	addu	v0,s1,a2
80011fc4:	2c421001 	sltiu	v0,v0,4097
80011fc8:	10400023 	beqz	v0,80012058 <sfs_wbuf+0xd4>
80011fcc:	00000000 	nop
80011fd0:	0c004875 	jal	800121d4 <lock_sfs_io>
80011fd4:	24140001 	li	s4,1
80011fd8:	8e050038 	lw	a1,56(s0)
80011fdc:	02002021 	move	a0,s0
80011fe0:	02403021 	move	a2,s2
80011fe4:	00003821 	move	a3,zero
80011fe8:	0c00474b 	jal	80011d2c <sfs_rwblock_nolock>
80011fec:	afb40010 	sw	s4,16(sp)
80011ff0:	1440000d 	bnez	v0,80012028 <sfs_wbuf+0xa4>
80011ff4:	02002021 	move	a0,s0
80011ff8:	8e040038 	lw	a0,56(s0)
80011ffc:	02a02821 	move	a1,s5
80012000:	00912021 	addu	a0,a0,s1
80012004:	0c000847 	jal	8000211c <memcpy>
80012008:	02603021 	move	a2,s3
8001200c:	8e050038 	lw	a1,56(s0)
80012010:	02002021 	move	a0,s0
80012014:	02403021 	move	a2,s2
80012018:	24070001 	li	a3,1
8001201c:	0c00474b 	jal	80011d2c <sfs_rwblock_nolock>
80012020:	afb40010 	sw	s4,16(sp)
80012024:	02002021 	move	a0,s0
80012028:	0c00487b 	jal	800121ec <unlock_sfs_io>
8001202c:	afa20018 	sw	v0,24(sp)
80012030:	8fbf003c 	lw	ra,60(sp)
80012034:	8fa20018 	lw	v0,24(sp)
80012038:	8fb50038 	lw	s5,56(sp)
8001203c:	8fb40034 	lw	s4,52(sp)
80012040:	8fb30030 	lw	s3,48(sp)
80012044:	8fb2002c 	lw	s2,44(sp)
80012048:	8fb10028 	lw	s1,40(sp)
8001204c:	8fb00024 	lw	s0,36(sp)
80012050:	03e00008 	jr	ra
80012054:	27bd0040 	addiu	sp,sp,64
80012058:	3c048002 	lui	a0,0x8002
8001205c:	3c068002 	lui	a2,0x8002
80012060:	24848050 	addiu	a0,a0,-32688
80012064:	2405003b 	li	a1,59
80012068:	0c0009f2 	jal	800027c8 <__panic>
8001206c:	24c680b0 	addiu	a2,a2,-32592

80012070 <sfs_sync_super>:
80012070:	27bdffd8 	addiu	sp,sp,-40
80012074:	afb00020 	sw	s0,32(sp)
80012078:	afbf0024 	sw	ra,36(sp)
8001207c:	0c004875 	jal	800121d4 <lock_sfs_io>
80012080:	00808021 	move	s0,a0
80012084:	8e040038 	lw	a0,56(s0)
80012088:	00002821 	move	a1,zero
8001208c:	0c00083d 	jal	800020f4 <memset>
80012090:	24061000 	li	a2,4096
80012094:	8e040038 	lw	a0,56(s0)
80012098:	02002821 	move	a1,s0
8001209c:	0c000847 	jal	8000211c <memcpy>
800120a0:	2406002c 	li	a2,44
800120a4:	8e050038 	lw	a1,56(s0)
800120a8:	02002021 	move	a0,s0
800120ac:	00003021 	move	a2,zero
800120b0:	24070001 	li	a3,1
800120b4:	0c00474b 	jal	80011d2c <sfs_rwblock_nolock>
800120b8:	afa00010 	sw	zero,16(sp)
800120bc:	02002021 	move	a0,s0
800120c0:	0c00487b 	jal	800121ec <unlock_sfs_io>
800120c4:	afa20018 	sw	v0,24(sp)
800120c8:	8fbf0024 	lw	ra,36(sp)
800120cc:	8fa20018 	lw	v0,24(sp)
800120d0:	8fb00020 	lw	s0,32(sp)
800120d4:	03e00008 	jr	ra
800120d8:	27bd0028 	addiu	sp,sp,40

800120dc <sfs_sync_freemap>:
800120dc:	8c870004 	lw	a3,4(a0)
800120e0:	27bdffe0 	addiu	sp,sp,-32
800120e4:	afb00018 	sw	s0,24(sp)
800120e8:	24e77fff 	addiu	a3,a3,32767
800120ec:	00808021 	move	s0,a0
800120f0:	8c840030 	lw	a0,48(a0)
800120f4:	00073bc2 	srl	a3,a3,0xf
800120f8:	00002821 	move	a1,zero
800120fc:	afbf001c 	sw	ra,28(sp)
80012100:	0c003d79 	jal	8000f5e4 <bitmap_getdata>
80012104:	afa70010 	sw	a3,16(sp)
80012108:	02002021 	move	a0,s0
8001210c:	8fa70010 	lw	a3,16(sp)
80012110:	8fbf001c 	lw	ra,28(sp)
80012114:	8fb00018 	lw	s0,24(sp)
80012118:	00402821 	move	a1,v0
8001211c:	24060002 	li	a2,2
80012120:	080047a5 	j	80011e94 <sfs_wblock>
80012124:	27bd0020 	addiu	sp,sp,32

80012128 <sfs_clear_block>:
80012128:	27bdffd0 	addiu	sp,sp,-48
8001212c:	afb1001c 	sw	s1,28(sp)
80012130:	00808821 	move	s1,a0
80012134:	afb30024 	sw	s3,36(sp)
80012138:	afb00018 	sw	s0,24(sp)
8001213c:	00c09821 	move	s3,a2
80012140:	afbf002c 	sw	ra,44(sp)
80012144:	afb40028 	sw	s4,40(sp)
80012148:	afb20020 	sw	s2,32(sp)
8001214c:	0c004875 	jal	800121d4 <lock_sfs_io>
80012150:	00a08021 	move	s0,a1
80012154:	8e240038 	lw	a0,56(s1)
80012158:	00002821 	move	a1,zero
8001215c:	0c00083d 	jal	800020f4 <memset>
80012160:	24061000 	li	a2,4096
80012164:	1260000e 	beqz	s3,800121a0 <sfs_clear_block+0x78>
80012168:	02709821 	addu	s3,s3,s0
8001216c:	0800485f 	j	8001217c <sfs_clear_block+0x54>
80012170:	24120001 	li	s2,1
80012174:	1213000a 	beq	s0,s3,800121a0 <sfs_clear_block+0x78>
80012178:	00000000 	nop
8001217c:	8e250038 	lw	a1,56(s1)
80012180:	02003021 	move	a2,s0
80012184:	02202021 	move	a0,s1
80012188:	24070001 	li	a3,1
8001218c:	0c00474b 	jal	80011d2c <sfs_rwblock_nolock>
80012190:	afb20010 	sw	s2,16(sp)
80012194:	0040a021 	move	s4,v0
80012198:	1040fff6 	beqz	v0,80012174 <sfs_clear_block+0x4c>
8001219c:	26100001 	addiu	s0,s0,1
800121a0:	0c00487b 	jal	800121ec <unlock_sfs_io>
800121a4:	02202021 	move	a0,s1
800121a8:	8fbf002c 	lw	ra,44(sp)
800121ac:	02801021 	move	v0,s4
800121b0:	8fb30024 	lw	s3,36(sp)
800121b4:	8fb40028 	lw	s4,40(sp)
800121b8:	8fb20020 	lw	s2,32(sp)
800121bc:	8fb1001c 	lw	s1,28(sp)
800121c0:	8fb00018 	lw	s0,24(sp)
800121c4:	03e00008 	jr	ra
800121c8:	27bd0030 	addiu	sp,sp,48

800121cc <lock_sfs_fs>:
800121cc:	080022f8 	j	80008be0 <down>
800121d0:	2484003c 	addiu	a0,a0,60

800121d4 <lock_sfs_io>:
800121d4:	080022f8 	j	80008be0 <down>
800121d8:	24840048 	addiu	a0,a0,72

800121dc <lock_sfs_mutex>:
800121dc:	080022f8 	j	80008be0 <down>
800121e0:	24840054 	addiu	a0,a0,84

800121e4 <unlock_sfs_fs>:
800121e4:	080022f6 	j	80008bd8 <up>
800121e8:	2484003c 	addiu	a0,a0,60

800121ec <unlock_sfs_io>:
800121ec:	080022f6 	j	80008bd8 <up>
800121f0:	24840048 	addiu	a0,a0,72

800121f4 <unlock_sfs_mutex>:
800121f4:	080022f6 	j	80008bd8 <up>
800121f8:	24840054 	addiu	a0,a0,84

800121fc <dev_lookup>:
800121fc:	90a20000 	lbu	v0,0(a1)
80012200:	27bdffe0 	addiu	sp,sp,-32
80012204:	afb00018 	sw	s0,24(sp)
80012208:	afbf001c 	sw	ra,28(sp)
8001220c:	1440000a 	bnez	v0,80012238 <dev_lookup+0x3c>
80012210:	00808021 	move	s0,a0
80012214:	0c0036d4 	jal	8000db50 <inode_ref_inc>
80012218:	afa60010 	sw	a2,16(sp)
8001221c:	8fa60010 	lw	a2,16(sp)
80012220:	00001021 	move	v0,zero
80012224:	acd00000 	sw	s0,0(a2)
80012228:	8fbf001c 	lw	ra,28(sp)
8001222c:	8fb00018 	lw	s0,24(sp)
80012230:	03e00008 	jr	ra
80012234:	27bd0020 	addiu	sp,sp,32
80012238:	0800488a 	j	80012228 <dev_lookup+0x2c>
8001223c:	2402fff0 	li	v0,-16

80012240 <dev_ioctl>:
80012240:	27bdffe8 	addiu	sp,sp,-24
80012244:	1080000a 	beqz	a0,80012270 <dev_ioctl+0x30>
80012248:	afbf0014 	sw	ra,20(sp)
8001224c:	8c87002c 	lw	a3,44(a0)
80012250:	24031234 	li	v1,4660
80012254:	14e30006 	bne	a3,v1,80012270 <dev_ioctl+0x30>
80012258:	00000000 	nop
8001225c:	8fbf0014 	lw	ra,20(sp)
80012260:	8c990014 	lw	t9,20(a0)
80012264:	00000000 	nop
80012268:	03200008 	jr	t9
8001226c:	27bd0018 	addiu	sp,sp,24
80012270:	3c048002 	lui	a0,0x8002
80012274:	3c068001 	lui	a2,0x8001
80012278:	24848108 	addiu	a0,a0,-32504
8001227c:	24050026 	li	a1,38
80012280:	0c0009f2 	jal	800027c8 <__panic>
80012284:	24c674a0 	addiu	a2,a2,29856

80012288 <dev_tryseek>:
80012288:	27bdffe8 	addiu	sp,sp,-24
8001228c:	1080001f 	beqz	a0,8001230c <dev_tryseek+0x84>
80012290:	afbf0014 	sw	ra,20(sp)
80012294:	8c83002c 	lw	v1,44(a0)
80012298:	24021234 	li	v0,4660
8001229c:	1462001b 	bne	v1,v0,8001230c <dev_tryseek+0x84>
800122a0:	00000000 	nop
800122a4:	8c830000 	lw	v1,0(a0)
800122a8:	00000000 	nop
800122ac:	10600013 	beqz	v1,800122fc <dev_tryseek+0x74>
800122b0:	00000000 	nop
800122b4:	8c820004 	lw	v0,4(a0)
800122b8:	00000000 	nop
800122bc:	14400002 	bnez	v0,800122c8 <dev_tryseek+0x40>
800122c0:	00a2001b 	divu	zero,a1,v0
800122c4:	0007000d 	break	0x7
800122c8:	00002010 	mfhi	a0
800122cc:	1480000b 	bnez	a0,800122fc <dev_tryseek+0x74>
800122d0:	00000000 	nop
800122d4:	04a00009 	bltz	a1,800122fc <dev_tryseek+0x74>
800122d8:	00430018 	mult	v0,v1
800122dc:	00001012 	mflo	v0
800122e0:	00a2282b 	sltu	a1,a1,v0
800122e4:	10a00005 	beqz	a1,800122fc <dev_tryseek+0x74>
800122e8:	00001021 	move	v0,zero
800122ec:	8fbf0014 	lw	ra,20(sp)
800122f0:	00000000 	nop
800122f4:	03e00008 	jr	ra
800122f8:	27bd0018 	addiu	sp,sp,24
800122fc:	8fbf0014 	lw	ra,20(sp)
80012300:	2402fffd 	li	v0,-3
80012304:	03e00008 	jr	ra
80012308:	27bd0018 	addiu	sp,sp,24
8001230c:	3c048002 	lui	a0,0x8002
80012310:	3c068001 	lui	a2,0x8001
80012314:	24848108 	addiu	a0,a0,-32504
80012318:	24050041 	li	a1,65
8001231c:	0c0009f2 	jal	800027c8 <__panic>
80012320:	24c674a0 	addiu	a2,a2,29856

80012324 <dev_gettype>:
80012324:	27bdffe8 	addiu	sp,sp,-24
80012328:	10800015 	beqz	a0,80012380 <dev_gettype+0x5c>
8001232c:	afbf0014 	sw	ra,20(sp)
80012330:	8c83002c 	lw	v1,44(a0)
80012334:	24021234 	li	v0,4660
80012338:	14620011 	bne	v1,v0,80012380 <dev_gettype+0x5c>
8001233c:	00000000 	nop
80012340:	8c820000 	lw	v0,0(a0)
80012344:	00000000 	nop
80012348:	14400007 	bnez	v0,80012368 <dev_gettype+0x44>
8001234c:	00000000 	nop
80012350:	8fbf0014 	lw	ra,20(sp)
80012354:	24024000 	li	v0,16384
80012358:	aca20000 	sw	v0,0(a1)
8001235c:	27bd0018 	addiu	sp,sp,24
80012360:	03e00008 	jr	ra
80012364:	00001021 	move	v0,zero
80012368:	8fbf0014 	lw	ra,20(sp)
8001236c:	24025000 	li	v0,20480
80012370:	aca20000 	sw	v0,0(a1)
80012374:	27bd0018 	addiu	sp,sp,24
80012378:	03e00008 	jr	ra
8001237c:	00001021 	move	v0,zero
80012380:	3c048002 	lui	a0,0x8002
80012384:	3c068001 	lui	a2,0x8001
80012388:	24848108 	addiu	a0,a0,-32504
8001238c:	2405003a 	li	a1,58
80012390:	0c0009f2 	jal	800027c8 <__panic>
80012394:	24c674a0 	addiu	a2,a2,29856

80012398 <dev_write>:
80012398:	27bdffe8 	addiu	sp,sp,-24
8001239c:	1080000a 	beqz	a0,800123c8 <dev_write+0x30>
800123a0:	afbf0014 	sw	ra,20(sp)
800123a4:	8c86002c 	lw	a2,44(a0)
800123a8:	24031234 	li	v1,4660
800123ac:	14c30006 	bne	a2,v1,800123c8 <dev_write+0x30>
800123b0:	00000000 	nop
800123b4:	8fbf0014 	lw	ra,20(sp)
800123b8:	8c990010 	lw	t9,16(a0)
800123bc:	24060001 	li	a2,1
800123c0:	03200008 	jr	t9
800123c4:	27bd0018 	addiu	sp,sp,24
800123c8:	3c048002 	lui	a0,0x8002
800123cc:	3c068001 	lui	a2,0x8001
800123d0:	24848108 	addiu	a0,a0,-32504
800123d4:	24050020 	li	a1,32
800123d8:	0c0009f2 	jal	800027c8 <__panic>
800123dc:	24c674a0 	addiu	a2,a2,29856

800123e0 <dev_read>:
800123e0:	27bdffe8 	addiu	sp,sp,-24
800123e4:	1080000a 	beqz	a0,80012410 <dev_read+0x30>
800123e8:	afbf0014 	sw	ra,20(sp)
800123ec:	8c86002c 	lw	a2,44(a0)
800123f0:	24031234 	li	v1,4660
800123f4:	14c30006 	bne	a2,v1,80012410 <dev_read+0x30>
800123f8:	00000000 	nop
800123fc:	8fbf0014 	lw	ra,20(sp)
80012400:	8c990010 	lw	t9,16(a0)
80012404:	00003021 	move	a2,zero
80012408:	03200008 	jr	t9
8001240c:	27bd0018 	addiu	sp,sp,24
80012410:	3c048002 	lui	a0,0x8002
80012414:	3c068001 	lui	a2,0x8001
80012418:	24848108 	addiu	a0,a0,-32504
8001241c:	2405001a 	li	a1,26
80012420:	0c0009f2 	jal	800027c8 <__panic>
80012424:	24c674a0 	addiu	a2,a2,29856

80012428 <dev_close>:
80012428:	27bdffe8 	addiu	sp,sp,-24
8001242c:	1080000a 	beqz	a0,80012458 <dev_close+0x30>
80012430:	afbf0014 	sw	ra,20(sp)
80012434:	8c85002c 	lw	a1,44(a0)
80012438:	24031234 	li	v1,4660
8001243c:	14a30006 	bne	a1,v1,80012458 <dev_close+0x30>
80012440:	00000000 	nop
80012444:	8fbf0014 	lw	ra,20(sp)
80012448:	8c99000c 	lw	t9,12(a0)
8001244c:	00000000 	nop
80012450:	03200008 	jr	t9
80012454:	27bd0018 	addiu	sp,sp,24
80012458:	3c048002 	lui	a0,0x8002
8001245c:	3c068001 	lui	a2,0x8001
80012460:	24848108 	addiu	a0,a0,-32504
80012464:	24050014 	li	a1,20
80012468:	0c0009f2 	jal	800027c8 <__panic>
8001246c:	24c674a0 	addiu	a2,a2,29856

80012470 <dev_open>:
80012470:	27bdffe8 	addiu	sp,sp,-24
80012474:	30a3003c 	andi	v1,a1,0x3c
80012478:	1460000c 	bnez	v1,800124ac <dev_open+0x3c>
8001247c:	afbf0014 	sw	ra,20(sp)
80012480:	1080000e 	beqz	a0,800124bc <dev_open+0x4c>
80012484:	24031234 	li	v1,4660
80012488:	8c86002c 	lw	a2,44(a0)
8001248c:	00000000 	nop
80012490:	14c3000a 	bne	a2,v1,800124bc <dev_open+0x4c>
80012494:	00000000 	nop
80012498:	8fbf0014 	lw	ra,20(sp)
8001249c:	8c990008 	lw	t9,8(a0)
800124a0:	00000000 	nop
800124a4:	03200008 	jr	t9
800124a8:	27bd0018 	addiu	sp,sp,24
800124ac:	8fbf0014 	lw	ra,20(sp)
800124b0:	2402fffd 	li	v0,-3
800124b4:	03e00008 	jr	ra
800124b8:	27bd0018 	addiu	sp,sp,24
800124bc:	3c048002 	lui	a0,0x8002
800124c0:	3c068001 	lui	a2,0x8001
800124c4:	24848108 	addiu	a0,a0,-32504
800124c8:	2405000e 	li	a1,14
800124cc:	0c0009f2 	jal	800027c8 <__panic>
800124d0:	24c674a0 	addiu	a2,a2,29856

800124d4 <dev_fstat>:
800124d4:	27bdffe0 	addiu	sp,sp,-32
800124d8:	afb10018 	sw	s1,24(sp)
800124dc:	00a08821 	move	s1,a1
800124e0:	afb00014 	sw	s0,20(sp)
800124e4:	00002821 	move	a1,zero
800124e8:	00808021 	move	s0,a0
800124ec:	24060010 	li	a2,16
800124f0:	afbf001c 	sw	ra,28(sp)
800124f4:	0c00083d 	jal	800020f4 <memset>
800124f8:	02202021 	move	a0,s1
800124fc:	12000025 	beqz	s0,80012594 <dev_fstat+0xc0>
80012500:	00000000 	nop
80012504:	8e02003c 	lw	v0,60(s0)
80012508:	00000000 	nop
8001250c:	10400022 	beqz	v0,80012598 <dev_fstat+0xc4>
80012510:	3c048002 	lui	a0,0x8002
80012514:	8c420028 	lw	v0,40(v0)
80012518:	00000000 	nop
8001251c:	1040001e 	beqz	v0,80012598 <dev_fstat+0xc4>
80012520:	3c058001 	lui	a1,0x8001
80012524:	02002021 	move	a0,s0
80012528:	0c003713 	jal	8000dc4c <inode_check>
8001252c:	24a57828 	addiu	a1,a1,30760
80012530:	8e02003c 	lw	v0,60(s0)
80012534:	02002021 	move	a0,s0
80012538:	8c420028 	lw	v0,40(v0)
8001253c:	00000000 	nop
80012540:	0040f809 	jalr	v0
80012544:	02202821 	move	a1,s1
80012548:	1440000d 	bnez	v0,80012580 <dev_fstat+0xac>
8001254c:	24031234 	li	v1,4660
80012550:	8e04002c 	lw	a0,44(s0)
80012554:	00000000 	nop
80012558:	14830014 	bne	a0,v1,800125ac <dev_fstat+0xd8>
8001255c:	3c048002 	lui	a0,0x8002
80012560:	8e030000 	lw	v1,0(s0)
80012564:	8e040004 	lw	a0,4(s0)
80012568:	ae230008 	sw	v1,8(s1)
8001256c:	00830018 	mult	a0,v1
80012570:	24040001 	li	a0,1
80012574:	ae240004 	sw	a0,4(s1)
80012578:	00001812 	mflo	v1
8001257c:	ae23000c 	sw	v1,12(s1)
80012580:	8fbf001c 	lw	ra,28(sp)
80012584:	8fb10018 	lw	s1,24(sp)
80012588:	8fb00014 	lw	s0,20(sp)
8001258c:	03e00008 	jr	ra
80012590:	27bd0020 	addiu	sp,sp,32
80012594:	3c048002 	lui	a0,0x8002
80012598:	3c068001 	lui	a2,0x8001
8001259c:	24848108 	addiu	a0,a0,-32504
800125a0:	2405002e 	li	a1,46
800125a4:	0c0009f2 	jal	800027c8 <__panic>
800125a8:	24c677c4 	addiu	a2,a2,30660
800125ac:	3c068001 	lui	a2,0x8001
800125b0:	24848108 	addiu	a0,a0,-32504
800125b4:	24050031 	li	a1,49
800125b8:	0c0009f2 	jal	800027c8 <__panic>
800125bc:	24c674a0 	addiu	a2,a2,29856

800125c0 <dev_init>:
800125c0:	27bdffe8 	addiu	sp,sp,-24
800125c4:	afbf0014 	sw	ra,20(sp)
800125c8:	0c004b49 	jal	80012d24 <dev_init_stdin>
800125cc:	00000000 	nop
800125d0:	0c004bab 	jal	80012eac <dev_init_stdout>
800125d4:	00000000 	nop
800125d8:	8fbf0014 	lw	ra,20(sp)
800125dc:	08004a26 	j	80012898 <dev_init_disk0>
800125e0:	27bd0018 	addiu	sp,sp,24

800125e4 <dev_create_inode>:
800125e4:	27bdffe0 	addiu	sp,sp,-32
800125e8:	afbf001c 	sw	ra,28(sp)
800125ec:	0c0036b1 	jal	8000dac4 <__alloc_inode>
800125f0:	24041234 	li	a0,4660
800125f4:	10400007 	beqz	v0,80012614 <dev_create_inode+0x30>
800125f8:	3c058001 	lui	a1,0x8001
800125fc:	00402021 	move	a0,v0
80012600:	24a54424 	addiu	a1,a1,17444
80012604:	00003021 	move	a2,zero
80012608:	0c0036f1 	jal	8000dbc4 <inode_init>
8001260c:	afa20010 	sw	v0,16(sp)
80012610:	8fa20010 	lw	v0,16(sp)
80012614:	8fbf001c 	lw	ra,28(sp)
80012618:	00000000 	nop
8001261c:	03e00008 	jr	ra
80012620:	27bd0020 	addiu	sp,sp,32

80012624 <disk0_open>:
80012624:	03e00008 	jr	ra
80012628:	00001021 	move	v0,zero

8001262c <disk0_close>:
8001262c:	03e00008 	jr	ra
80012630:	00001021 	move	v0,zero

80012634 <disk0_ioctl>:
80012634:	03e00008 	jr	ra
80012638:	2402ffec 	li	v0,-20

8001263c <disk0_io>:
8001263c:	27bdffb0 	addiu	sp,sp,-80
80012640:	afb1002c 	sw	s1,44(sp)
80012644:	8cb10004 	lw	s1,4(a1)
80012648:	afb70044 	sw	s7,68(sp)
8001264c:	32220fff 	andi	v0,s1,0xfff
80012650:	afb60040 	sw	s6,64(sp)
80012654:	afb00028 	sw	s0,40(sp)
80012658:	afbf004c 	sw	ra,76(sp)
8001265c:	afbe0048 	sw	s8,72(sp)
80012660:	afb5003c 	sw	s5,60(sp)
80012664:	afb40038 	sw	s4,56(sp)
80012668:	afb30034 	sw	s3,52(sp)
8001266c:	afb20030 	sw	s2,48(sp)
80012670:	00a0b021 	move	s6,a1
80012674:	8cb0000c 	lw	s0,12(a1)
80012678:	14400064 	bnez	v0,8001280c <disk0_io+0x1d0>
8001267c:	00c0b821 	move	s7,a2
80012680:	32020fff 	andi	v0,s0,0xfff
80012684:	1440000c 	bnez	v0,800126b8 <disk0_io+0x7c>
80012688:	2402fffd 	li	v0,-3
8001268c:	0620005d 	bltz	s1,80012804 <disk0_io+0x1c8>
80012690:	00000000 	nop
80012694:	8c830000 	lw	v1,0(a0)
80012698:	00118b03 	sra	s1,s1,0xc
8001269c:	00101302 	srl	v0,s0,0xc
800126a0:	02222021 	addu	a0,s1,v0
800126a4:	0064182b 	sltu	v1,v1,a0
800126a8:	14600058 	bnez	v1,8001280c <disk0_io+0x1d0>
800126ac:	00000000 	nop
800126b0:	1440000d 	bnez	v0,800126e8 <disk0_io+0xac>
800126b4:	00001021 	move	v0,zero
800126b8:	8fbf004c 	lw	ra,76(sp)
800126bc:	8fbe0048 	lw	s8,72(sp)
800126c0:	8fb70044 	lw	s7,68(sp)
800126c4:	8fb60040 	lw	s6,64(sp)
800126c8:	8fb5003c 	lw	s5,60(sp)
800126cc:	8fb40038 	lw	s4,56(sp)
800126d0:	8fb30034 	lw	s3,52(sp)
800126d4:	8fb20030 	lw	s2,48(sp)
800126d8:	8fb1002c 	lw	s1,44(sp)
800126dc:	8fb00028 	lw	s0,40(sp)
800126e0:	03e00008 	jr	ra
800126e4:	27bd0050 	addiu	sp,sp,80
800126e8:	3c02800e 	lui	v0,0x800e
800126ec:	0c0022f8 	jal	80008be0 <down>
800126f0:	24449d80 	addiu	a0,v0,-25216
800126f4:	1200001f 	beqz	s0,80012774 <disk0_io+0x138>
800126f8:	3c1e800e 	lui	s8,0x800e
800126fc:	16e00025 	bnez	s7,80012794 <disk0_io+0x158>
80012700:	2e024000 	sltiu	v0,s0,16384
80012704:	10400020 	beqz	v0,80012788 <disk0_io+0x14c>
80012708:	24150020 	li	s5,32
8001270c:	00109b02 	srl	s3,s0,0xc
80012710:	0013a8c0 	sll	s5,s3,0x3
80012714:	02009021 	move	s2,s0
80012718:	0011a0c0 	sll	s4,s1,0x3
8001271c:	8fc69d8c 	lw	a2,-25204(s8)
80012720:	24040002 	li	a0,2
80012724:	02802821 	move	a1,s4
80012728:	0c000b4f 	jal	80002d3c <ide_read_secs>
8001272c:	02a03821 	move	a3,s5
80012730:	1440003e 	bnez	v0,8001282c <disk0_io+0x1f0>
80012734:	02c02021 	move	a0,s6
80012738:	3c02800e 	lui	v0,0x800e
8001273c:	8c459d8c 	lw	a1,-25204(v0)
80012740:	27a20020 	addiu	v0,sp,32
80012744:	02403021 	move	a2,s2
80012748:	24070001 	li	a3,1
8001274c:	0c00340c 	jal	8000d030 <iobuf_move>
80012750:	afa20010 	sw	v0,16(sp)
80012754:	8fa20020 	lw	v0,32(sp)
80012758:	00000000 	nop
8001275c:	1452002d 	bne	v0,s2,80012814 <disk0_io+0x1d8>
80012760:	32520fff 	andi	s2,s2,0xfff
80012764:	1640002b 	bnez	s2,80012814 <disk0_io+0x1d8>
80012768:	02028023 	subu	s0,s0,v0
8001276c:	1600ffe3 	bnez	s0,800126fc <disk0_io+0xc0>
80012770:	02338821 	addu	s1,s1,s3
80012774:	3c02800e 	lui	v0,0x800e
80012778:	0c0022f6 	jal	80008bd8 <up>
8001277c:	24449d80 	addiu	a0,v0,-25216
80012780:	080049ae 	j	800126b8 <disk0_io+0x7c>
80012784:	00001021 	move	v0,zero
80012788:	24130004 	li	s3,4
8001278c:	080049c6 	j	80012718 <disk0_io+0xdc>
80012790:	24124000 	li	s2,16384
80012794:	8fc59d8c 	lw	a1,-25204(s8)
80012798:	27a20020 	addiu	v0,sp,32
8001279c:	02c02021 	move	a0,s6
800127a0:	24064000 	li	a2,16384
800127a4:	00003821 	move	a3,zero
800127a8:	0c00340c 	jal	8000d030 <iobuf_move>
800127ac:	afa20010 	sw	v0,16(sp)
800127b0:	8fb30020 	lw	s3,32(sp)
800127b4:	00000000 	nop
800127b8:	12600027 	beqz	s3,80012858 <disk0_io+0x21c>
800127bc:	0213102b 	sltu	v0,s0,s3
800127c0:	14400025 	bnez	v0,80012858 <disk0_io+0x21c>
800127c4:	32620fff 	andi	v0,s3,0xfff
800127c8:	14400023 	bnez	v0,80012858 <disk0_io+0x21c>
800127cc:	00139b02 	srl	s3,s3,0xc
800127d0:	3c02800e 	lui	v0,0x800e
800127d4:	0011a0c0 	sll	s4,s1,0x3
800127d8:	001390c0 	sll	s2,s3,0x3
800127dc:	8c469d8c 	lw	a2,-25204(v0)
800127e0:	24040002 	li	a0,2
800127e4:	02802821 	move	a1,s4
800127e8:	0c000b63 	jal	80002d8c <ide_write_secs>
800127ec:	02403821 	move	a3,s2
800127f0:	1440001f 	bnez	v0,80012870 <disk0_io+0x234>
800127f4:	3c048002 	lui	a0,0x8002
800127f8:	8fa20020 	lw	v0,32(sp)
800127fc:	080049db 	j	8001276c <disk0_io+0x130>
80012800:	02028023 	subu	s0,s0,v0
80012804:	080049a5 	j	80012694 <disk0_io+0x58>
80012808:	26310fff 	addiu	s1,s1,4095
8001280c:	080049ae 	j	800126b8 <disk0_io+0x7c>
80012810:	2402fffd 	li	v0,-3
80012814:	3c048002 	lui	a0,0x8002
80012818:	3c068002 	lui	a2,0x8002
8001281c:	2484811c 	addiu	a0,a0,-32484
80012820:	24050062 	li	a1,98
80012824:	0c0009f2 	jal	800027c8 <__panic>
80012828:	24c6821c 	addiu	a2,a2,-32228
8001282c:	3c048002 	lui	a0,0x8002
80012830:	3c068002 	lui	a2,0x8002
80012834:	2484811c 	addiu	a0,a0,-32484
80012838:	2405002e 	li	a1,46
8001283c:	24c681d4 	addiu	a2,a2,-32300
80012840:	02203821 	move	a3,s1
80012844:	afb40010 	sw	s4,16(sp)
80012848:	afb30014 	sw	s3,20(sp)
8001284c:	afb50018 	sw	s5,24(sp)
80012850:	0c0009f2 	jal	800027c8 <__panic>
80012854:	afa2001c 	sw	v0,28(sp)
80012858:	3c048002 	lui	a0,0x8002
8001285c:	3c068002 	lui	a2,0x8002
80012860:	2484811c 	addiu	a0,a0,-32484
80012864:	24050057 	li	a1,87
80012868:	0c0009f2 	jal	800027c8 <__panic>
8001286c:	24c68138 	addiu	a2,a2,-32456
80012870:	3c068002 	lui	a2,0x8002
80012874:	2484811c 	addiu	a0,a0,-32484
80012878:	24050038 	li	a1,56
8001287c:	24c68188 	addiu	a2,a2,-32376
80012880:	02203821 	move	a3,s1
80012884:	afb40010 	sw	s4,16(sp)
80012888:	afb30014 	sw	s3,20(sp)
8001288c:	afb20018 	sw	s2,24(sp)
80012890:	0c0009f2 	jal	800027c8 <__panic>
80012894:	afa2001c 	sw	v0,28(sp)

80012898 <dev_init_disk0>:
80012898:	27bdffe8 	addiu	sp,sp,-24
8001289c:	afb00010 	sw	s0,16(sp)
800128a0:	afbf0014 	sw	ra,20(sp)
800128a4:	0c004979 	jal	800125e4 <dev_create_inode>
800128a8:	00000000 	nop
800128ac:	10400034 	beqz	v0,80012980 <dev_init_disk0+0xe8>
800128b0:	00408021 	move	s0,v0
800128b4:	8c43002c 	lw	v1,44(v0)
800128b8:	24021234 	li	v0,4660
800128bc:	1462002b 	bne	v1,v0,8001296c <dev_init_disk0+0xd4>
800128c0:	3c048002 	lui	a0,0x8002
800128c4:	0c000b34 	jal	80002cd0 <ide_device_valid>
800128c8:	24040002 	li	a0,2
800128cc:	1040003e 	beqz	v0,800129c8 <dev_init_disk0+0x130>
800128d0:	3c068002 	lui	a2,0x8002
800128d4:	0c000b3f 	jal	80002cfc <ide_device_size>
800128d8:	24040002 	li	a0,2
800128dc:	000210c2 	srl	v0,v0,0x3
800128e0:	ae020000 	sw	v0,0(s0)
800128e4:	24021000 	li	v0,4096
800128e8:	ae020004 	sw	v0,4(s0)
800128ec:	3c028001 	lui	v0,0x8001
800128f0:	24422624 	addiu	v0,v0,9764
800128f4:	ae020008 	sw	v0,8(s0)
800128f8:	3c028001 	lui	v0,0x8001
800128fc:	2442262c 	addiu	v0,v0,9772
80012900:	ae02000c 	sw	v0,12(s0)
80012904:	3c028001 	lui	v0,0x8001
80012908:	2442263c 	addiu	v0,v0,9788
8001290c:	ae020010 	sw	v0,16(s0)
80012910:	3c028001 	lui	v0,0x8001
80012914:	24422634 	addiu	v0,v0,9780
80012918:	3c04800e 	lui	a0,0x800e
8001291c:	24849d80 	addiu	a0,a0,-25216
80012920:	24050001 	li	a1,1
80012924:	0c0022f3 	jal	80008bcc <sem_init>
80012928:	ae020014 	sw	v0,20(s0)
8001292c:	0c001716 	jal	80005c58 <kmalloc>
80012930:	24044000 	li	a0,16384
80012934:	3c03800e 	lui	v1,0x800e
80012938:	1040001d 	beqz	v0,800129b0 <dev_init_disk0+0x118>
8001293c:	ac629d8c 	sw	v0,-25204(v1)
80012940:	3c048001 	lui	a0,0x8001
80012944:	248479b8 	addiu	a0,a0,31160
80012948:	02002821 	move	a1,s0
8001294c:	0c003979 	jal	8000e5e4 <vfs_add_dev>
80012950:	24060001 	li	a2,1
80012954:	14400010 	bnez	v0,80012998 <dev_init_disk0+0x100>
80012958:	3c048002 	lui	a0,0x8002
8001295c:	8fbf0014 	lw	ra,20(sp)
80012960:	8fb00010 	lw	s0,16(sp)
80012964:	03e00008 	jr	ra
80012968:	27bd0018 	addiu	sp,sp,24
8001296c:	3c068001 	lui	a2,0x8001
80012970:	2484811c 	addiu	a0,a0,-32484
80012974:	24050089 	li	a1,137
80012978:	0c0009f2 	jal	800027c8 <__panic>
8001297c:	24c674a0 	addiu	a2,a2,29856
80012980:	3c048002 	lui	a0,0x8002
80012984:	3c068002 	lui	a2,0x8002
80012988:	2484811c 	addiu	a0,a0,-32484
8001298c:	24050087 	li	a1,135
80012990:	0c0009f2 	jal	800027c8 <__panic>
80012994:	24c6825c 	addiu	a2,a2,-32164
80012998:	3c068002 	lui	a2,0x8002
8001299c:	2484811c 	addiu	a0,a0,-32484
800129a0:	2405008d 	li	a1,141
800129a4:	24c682b4 	addiu	a2,a2,-32076
800129a8:	0c0009f2 	jal	800027c8 <__panic>
800129ac:	00403821 	move	a3,v0
800129b0:	3c048002 	lui	a0,0x8002
800129b4:	3c068002 	lui	a2,0x8002
800129b8:	2484811c 	addiu	a0,a0,-32484
800129bc:	2405007f 	li	a1,127
800129c0:	0c0009f2 	jal	800027c8 <__panic>
800129c4:	24c68298 	addiu	a2,a2,-32104
800129c8:	3c048002 	lui	a0,0x8002
800129cc:	2484811c 	addiu	a0,a0,-32484
800129d0:	24050073 	li	a1,115
800129d4:	0c0009f2 	jal	800027c8 <__panic>
800129d8:	24c68278 	addiu	a2,a2,-32136

800129dc <stdin_open>:
800129dc:	14a00003 	bnez	a1,800129ec <stdin_open+0x10>
800129e0:	00000000 	nop
800129e4:	03e00008 	jr	ra
800129e8:	00001021 	move	v0,zero
800129ec:	03e00008 	jr	ra
800129f0:	2402fffd 	li	v0,-3

800129f4 <stdin_close>:
800129f4:	03e00008 	jr	ra
800129f8:	00001021 	move	v0,zero

800129fc <stdin_ioctl>:
800129fc:	03e00008 	jr	ra
80012a00:	2402fffd 	li	v0,-3

80012a04 <stdin_io>:
80012a04:	27bdffb0 	addiu	sp,sp,-80
80012a08:	afb40038 	sw	s4,56(sp)
80012a0c:	afbf004c 	sw	ra,76(sp)
80012a10:	afbe0048 	sw	s8,72(sp)
80012a14:	afb70044 	sw	s7,68(sp)
80012a18:	afb60040 	sw	s6,64(sp)
80012a1c:	afb5003c 	sw	s5,60(sp)
80012a20:	afb30034 	sw	s3,52(sp)
80012a24:	afb20030 	sw	s2,48(sp)
80012a28:	afb1002c 	sw	s1,44(sp)
80012a2c:	afb00028 	sw	s0,40(sp)
80012a30:	14c00072 	bnez	a2,80012bfc <stdin_io+0x1f8>
80012a34:	00a0a021 	move	s4,a1
80012a38:	8cbe0000 	lw	s8,0(a1)
80012a3c:	8cb6000c 	lw	s6,12(a1)
80012a40:	40026000 	mfc0	v0,c0_status
80012a44:	00000000 	nop
80012a48:	30420001 	andi	v0,v0,0x1
80012a4c:	14400053 	bnez	v0,80012b9c <stdin_io+0x198>
80012a50:	00000000 	nop
80012a54:	00008021 	move	s0,zero
80012a58:	12c0006e 	beqz	s6,80012c14 <stdin_io+0x210>
80012a5c:	3c12800e 	lui	s2,0x800e
80012a60:	3c13800e 	lui	s3,0x800e
80012a64:	3c11800e 	lui	s1,0x800e
80012a68:	8e42a594 	lw	v0,-23148(s2)
80012a6c:	8e649d90 	lw	a0,-25200(s3)
80012a70:	0000b821 	move	s7,zero
80012a74:	0000a821 	move	s5,zero
80012a78:	08004aac 	j	80012ab0 <stdin_io+0xac>
80012a7c:	2631a598 	addiu	s1,s1,-23144
80012a80:	0c0023a8 	jal	80008ea0 <wait_in_queue>
80012a84:	00008021 	move	s0,zero
80012a88:	14400020 	bnez	v0,80012b0c <stdin_io+0x108>
80012a8c:	02202021 	move	a0,s1
80012a90:	3c028000 	lui	v0,0x8000
80012a94:	8fa30014 	lw	v1,20(sp)
80012a98:	24420004 	addiu	v0,v0,4
80012a9c:	14620022 	bne	v1,v0,80012b28 <stdin_io+0x124>
80012aa0:	00000000 	nop
80012aa4:	8e42a594 	lw	v0,-23148(s2)
80012aa8:	8e649d90 	lw	a0,-25200(s3)
80012aac:	00000000 	nop
80012ab0:	0044182a 	slt	v1,v0,a0
80012ab4:	1460003d 	bnez	v1,80012bac <stdin_io+0x1a8>
80012ab8:	3c068000 	lui	a2,0x8000
80012abc:	02202021 	move	a0,s1
80012ac0:	27a50010 	addiu	a1,sp,16
80012ac4:	0c0023f3 	jal	80008fcc <wait_current_set>
80012ac8:	24c60004 	addiu	a2,a2,4
80012acc:	1600002b 	bnez	s0,80012b7c <stdin_io+0x178>
80012ad0:	00000000 	nop
80012ad4:	0c002c8a 	jal	8000b228 <schedule>
80012ad8:	00000000 	nop
80012adc:	40026000 	mfc0	v0,c0_status
80012ae0:	00000000 	nop
80012ae4:	30420001 	andi	v0,v0,0x1
80012ae8:	1040ffe5 	beqz	v0,80012a80 <stdin_io+0x7c>
80012aec:	27a40010 	addiu	a0,sp,16
80012af0:	0c000b7d 	jal	80002df4 <intr_disable>
80012af4:	24100001 	li	s0,1
80012af8:	0c0023a8 	jal	80008ea0 <wait_in_queue>
80012afc:	27a40010 	addiu	a0,sp,16
80012b00:	1040ffe4 	beqz	v0,80012a94 <stdin_io+0x90>
80012b04:	3c028000 	lui	v0,0x8000
80012b08:	02202021 	move	a0,s1
80012b0c:	0c00234a 	jal	80008d28 <wait_queue_del>
80012b10:	27a50010 	addiu	a1,sp,16
80012b14:	3c028000 	lui	v0,0x8000
80012b18:	8fa30014 	lw	v1,20(sp)
80012b1c:	24420004 	addiu	v0,v0,4
80012b20:	1062ffe0 	beq	v1,v0,80012aa4 <stdin_io+0xa0>
80012b24:	00000000 	nop
80012b28:	16000018 	bnez	s0,80012b8c <stdin_io+0x188>
80012b2c:	00000000 	nop
80012b30:	12a00005 	beqz	s5,80012b48 <stdin_io+0x144>
80012b34:	00000000 	nop
80012b38:	8e82000c 	lw	v0,12(s4)
80012b3c:	00000000 	nop
80012b40:	0057b823 	subu	s7,v0,s7
80012b44:	ae97000c 	sw	s7,12(s4)
80012b48:	8fbf004c 	lw	ra,76(sp)
80012b4c:	02a01021 	move	v0,s5
80012b50:	8fbe0048 	lw	s8,72(sp)
80012b54:	8fb70044 	lw	s7,68(sp)
80012b58:	8fb60040 	lw	s6,64(sp)
80012b5c:	8fb5003c 	lw	s5,60(sp)
80012b60:	8fb40038 	lw	s4,56(sp)
80012b64:	8fb30034 	lw	s3,52(sp)
80012b68:	8fb20030 	lw	s2,48(sp)
80012b6c:	8fb1002c 	lw	s1,44(sp)
80012b70:	8fb00028 	lw	s0,40(sp)
80012b74:	03e00008 	jr	ra
80012b78:	27bd0050 	addiu	sp,sp,80
80012b7c:	0c000b77 	jal	80002ddc <intr_enable>
80012b80:	00000000 	nop
80012b84:	08004ab5 	j	80012ad4 <stdin_io+0xd0>
80012b88:	00000000 	nop
80012b8c:	0c000b77 	jal	80002ddc <intr_enable>
80012b90:	00000000 	nop
80012b94:	08004acc 	j	80012b30 <stdin_io+0x12c>
80012b98:	00000000 	nop
80012b9c:	0c000b7d 	jal	80002df4 <intr_disable>
80012ba0:	24100001 	li	s0,1
80012ba4:	08004a96 	j	80012a58 <stdin_io+0x54>
80012ba8:	00000000 	nop
80012bac:	3c038000 	lui	v1,0x8000
80012bb0:	246307ff 	addiu	v1,v1,2047
80012bb4:	00431824 	and	v1,v0,v1
80012bb8:	04600012 	bltz	v1,80012c04 <stdin_io+0x200>
80012bbc:	2405f800 	li	a1,-2048
80012bc0:	3c05800e 	lui	a1,0x800e
80012bc4:	24a59d94 	addiu	a1,a1,-25196
80012bc8:	00651821 	addu	v1,v1,a1
80012bcc:	90630000 	lbu	v1,0(v1)
80012bd0:	26b50001 	addiu	s5,s5,1
80012bd4:	24420001 	addiu	v0,v0,1
80012bd8:	a3c30000 	sb	v1,0(s8)
80012bdc:	ae42a594 	sw	v0,-23148(s2)
80012be0:	27de0001 	addiu	s8,s8,1
80012be4:	16b6ffb2 	bne	s5,s6,80012ab0 <stdin_io+0xac>
80012be8:	02a0b821 	move	s7,s5
80012bec:	1200ffd0 	beqz	s0,80012b30 <stdin_io+0x12c>
80012bf0:	00000000 	nop
80012bf4:	08004ae3 	j	80012b8c <stdin_io+0x188>
80012bf8:	00000000 	nop
80012bfc:	08004ad2 	j	80012b48 <stdin_io+0x144>
80012c00:	2415fffd 	li	s5,-3
80012c04:	2463ffff 	addiu	v1,v1,-1
80012c08:	00651825 	or	v1,v1,a1
80012c0c:	08004af0 	j	80012bc0 <stdin_io+0x1bc>
80012c10:	24630001 	addiu	v1,v1,1
80012c14:	0000b821 	move	s7,zero
80012c18:	1200ffc5 	beqz	s0,80012b30 <stdin_io+0x12c>
80012c1c:	0000a821 	move	s5,zero
80012c20:	08004ae3 	j	80012b8c <stdin_io+0x188>
80012c24:	00000000 	nop

80012c28 <dev_stdin_write>:
80012c28:	27bdffe0 	addiu	sp,sp,-32
80012c2c:	afb10018 	sw	s1,24(sp)
80012c30:	309100ff 	andi	s1,a0,0xff
80012c34:	afbf001c 	sw	ra,28(sp)
80012c38:	16200006 	bnez	s1,80012c54 <dev_stdin_write+0x2c>
80012c3c:	afb00014 	sw	s0,20(sp)
80012c40:	8fbf001c 	lw	ra,28(sp)
80012c44:	8fb10018 	lw	s1,24(sp)
80012c48:	8fb00014 	lw	s0,20(sp)
80012c4c:	03e00008 	jr	ra
80012c50:	27bd0020 	addiu	sp,sp,32
80012c54:	40026000 	mfc0	v0,c0_status
80012c58:	00000000 	nop
80012c5c:	30420001 	andi	v0,v0,0x1
80012c60:	14400028 	bnez	v0,80012d04 <dev_stdin_write+0xdc>
80012c64:	00000000 	nop
80012c68:	00008021 	move	s0,zero
80012c6c:	3c04800e 	lui	a0,0x800e
80012c70:	8c839d90 	lw	v1,-25200(a0)
80012c74:	3c028000 	lui	v0,0x8000
80012c78:	244207ff 	addiu	v0,v0,2047
80012c7c:	00621024 	and	v0,v1,v0
80012c80:	04400024 	bltz	v0,80012d14 <dev_stdin_write+0xec>
80012c84:	2405f800 	li	a1,-2048
80012c88:	3c05800e 	lui	a1,0x800e
80012c8c:	8ca5a594 	lw	a1,-23148(a1)
80012c90:	3c06800e 	lui	a2,0x800e
80012c94:	00652823 	subu	a1,v1,a1
80012c98:	24c69d94 	addiu	a2,a2,-25196
80012c9c:	00461021 	addu	v0,v0,a2
80012ca0:	28a50800 	slti	a1,a1,2048
80012ca4:	10a00003 	beqz	a1,80012cb4 <dev_stdin_write+0x8c>
80012ca8:	a0510000 	sb	s1,0(v0)
80012cac:	24630001 	addiu	v1,v1,1
80012cb0:	ac839d90 	sw	v1,-25200(a0)
80012cb4:	3c11800e 	lui	s1,0x800e
80012cb8:	0c0023a3 	jal	80008e8c <wait_queue_empty>
80012cbc:	2624a598 	addiu	a0,s1,-23144
80012cc0:	10400008 	beqz	v0,80012ce4 <dev_stdin_write+0xbc>
80012cc4:	3c058000 	lui	a1,0x8000
80012cc8:	1200ffdd 	beqz	s0,80012c40 <dev_stdin_write+0x18>
80012ccc:	00000000 	nop
80012cd0:	8fbf001c 	lw	ra,28(sp)
80012cd4:	8fb10018 	lw	s1,24(sp)
80012cd8:	8fb00014 	lw	s0,20(sp)
80012cdc:	08000b77 	j	80002ddc <intr_enable>
80012ce0:	27bd0020 	addiu	sp,sp,32
80012ce4:	2624a598 	addiu	a0,s1,-23144
80012ce8:	24a50004 	addiu	a1,a1,4
80012cec:	0c0023c6 	jal	80008f18 <wakeup_queue>
80012cf0:	24060001 	li	a2,1
80012cf4:	1200ffd2 	beqz	s0,80012c40 <dev_stdin_write+0x18>
80012cf8:	00000000 	nop
80012cfc:	08004b34 	j	80012cd0 <dev_stdin_write+0xa8>
80012d00:	00000000 	nop
80012d04:	0c000b7d 	jal	80002df4 <intr_disable>
80012d08:	24100001 	li	s0,1
80012d0c:	08004b1c 	j	80012c70 <dev_stdin_write+0x48>
80012d10:	3c04800e 	lui	a0,0x800e
80012d14:	2442ffff 	addiu	v0,v0,-1
80012d18:	00451025 	or	v0,v0,a1
80012d1c:	08004b22 	j	80012c88 <dev_stdin_write+0x60>
80012d20:	24420001 	addiu	v0,v0,1

80012d24 <dev_init_stdin>:
80012d24:	27bdffe0 	addiu	sp,sp,-32
80012d28:	afbf001c 	sw	ra,28(sp)
80012d2c:	0c004979 	jal	800125e4 <dev_create_inode>
80012d30:	00000000 	nop
80012d34:	1040002d 	beqz	v0,80012dec <dev_init_stdin+0xc8>
80012d38:	24031234 	li	v1,4660
80012d3c:	8c44002c 	lw	a0,44(v0)
80012d40:	00000000 	nop
80012d44:	14830023 	bne	a0,v1,80012dd4 <dev_init_stdin+0xb0>
80012d48:	24030001 	li	v1,1
80012d4c:	ac430004 	sw	v1,4(v0)
80012d50:	3c038001 	lui	v1,0x8001
80012d54:	246329dc 	addiu	v1,v1,10716
80012d58:	ac430008 	sw	v1,8(v0)
80012d5c:	3c038001 	lui	v1,0x8001
80012d60:	246329f4 	addiu	v1,v1,10740
80012d64:	ac43000c 	sw	v1,12(v0)
80012d68:	3c038001 	lui	v1,0x8001
80012d6c:	24632a04 	addiu	v1,v1,10756
80012d70:	ac430010 	sw	v1,16(v0)
80012d74:	3c038001 	lui	v1,0x8001
80012d78:	246329fc 	addiu	v1,v1,10748
80012d7c:	ac430014 	sw	v1,20(v0)
80012d80:	3c04800e 	lui	a0,0x800e
80012d84:	3c03800e 	lui	v1,0x800e
80012d88:	ac400000 	sw	zero,0(v0)
80012d8c:	2484a598 	addiu	a0,a0,-23144
80012d90:	ac609d90 	sw	zero,-25200(v1)
80012d94:	3c03800e 	lui	v1,0x800e
80012d98:	afa20010 	sw	v0,16(sp)
80012d9c:	0c00232f 	jal	80008cbc <wait_queue_init>
80012da0:	ac60a594 	sw	zero,-23148(v1)
80012da4:	8fa20010 	lw	v0,16(sp)
80012da8:	3c048002 	lui	a0,0x8002
80012dac:	24848308 	addiu	a0,a0,-31992
80012db0:	00402821 	move	a1,v0
80012db4:	0c003979 	jal	8000e5e4 <vfs_add_dev>
80012db8:	00003021 	move	a2,zero
80012dbc:	14400011 	bnez	v0,80012e04 <dev_init_stdin+0xe0>
80012dc0:	3c048002 	lui	a0,0x8002
80012dc4:	8fbf001c 	lw	ra,28(sp)
80012dc8:	00000000 	nop
80012dcc:	03e00008 	jr	ra
80012dd0:	27bd0020 	addiu	sp,sp,32
80012dd4:	3c048002 	lui	a0,0x8002
80012dd8:	3c068001 	lui	a2,0x8001
80012ddc:	248482d0 	addiu	a0,a0,-32048
80012de0:	24050077 	li	a1,119
80012de4:	0c0009f2 	jal	800027c8 <__panic>
80012de8:	24c674a0 	addiu	a2,a2,29856
80012dec:	3c048002 	lui	a0,0x8002
80012df0:	3c068002 	lui	a2,0x8002
80012df4:	248482d0 	addiu	a0,a0,-32048
80012df8:	24050075 	li	a1,117
80012dfc:	0c0009f2 	jal	800027c8 <__panic>
80012e00:	24c682ec 	addiu	a2,a2,-32020
80012e04:	3c068002 	lui	a2,0x8002
80012e08:	248482d0 	addiu	a0,a0,-32048
80012e0c:	2405007b 	li	a1,123
80012e10:	24c68310 	addiu	a2,a2,-31984
80012e14:	0c0009f2 	jal	800027c8 <__panic>
80012e18:	00403821 	move	a3,v0

80012e1c <stdout_open>:
80012e1c:	24020001 	li	v0,1
80012e20:	14a20003 	bne	a1,v0,80012e30 <stdout_open+0x14>
80012e24:	00000000 	nop
80012e28:	03e00008 	jr	ra
80012e2c:	00001021 	move	v0,zero
80012e30:	03e00008 	jr	ra
80012e34:	2402fffd 	li	v0,-3

80012e38 <stdout_close>:
80012e38:	03e00008 	jr	ra
80012e3c:	00001021 	move	v0,zero

80012e40 <stdout_ioctl>:
80012e40:	03e00008 	jr	ra
80012e44:	2402fffd 	li	v0,-3

80012e48 <stdout_io>:
80012e48:	27bdffe0 	addiu	sp,sp,-32
80012e4c:	afb00014 	sw	s0,20(sp)
80012e50:	afbf001c 	sw	ra,28(sp)
80012e54:	afb10018 	sw	s1,24(sp)
80012e58:	10c00012 	beqz	a2,80012ea4 <stdout_io+0x5c>
80012e5c:	00a08021 	move	s0,a1
80012e60:	8ca2000c 	lw	v0,12(a1)
80012e64:	8cb10000 	lw	s1,0(a1)
80012e68:	10400009 	beqz	v0,80012e90 <stdout_io+0x48>
80012e6c:	00001021 	move	v0,zero
80012e70:	92240000 	lbu	a0,0(s1)
80012e74:	0c00078a 	jal	80001e28 <kputchar>
80012e78:	26310001 	addiu	s1,s1,1
80012e7c:	8e02000c 	lw	v0,12(s0)
80012e80:	00000000 	nop
80012e84:	2442ffff 	addiu	v0,v0,-1
80012e88:	1440fff9 	bnez	v0,80012e70 <stdout_io+0x28>
80012e8c:	ae02000c 	sw	v0,12(s0)
80012e90:	8fbf001c 	lw	ra,28(sp)
80012e94:	8fb10018 	lw	s1,24(sp)
80012e98:	8fb00014 	lw	s0,20(sp)
80012e9c:	03e00008 	jr	ra
80012ea0:	27bd0020 	addiu	sp,sp,32
80012ea4:	08004ba4 	j	80012e90 <stdout_io+0x48>
80012ea8:	2402fffd 	li	v0,-3

80012eac <dev_init_stdout>:
80012eac:	27bdffe8 	addiu	sp,sp,-24
80012eb0:	afbf0014 	sw	ra,20(sp)
80012eb4:	0c004979 	jal	800125e4 <dev_create_inode>
80012eb8:	00000000 	nop
80012ebc:	10400024 	beqz	v0,80012f50 <dev_init_stdout+0xa4>
80012ec0:	24031234 	li	v1,4660
80012ec4:	8c44002c 	lw	a0,44(v0)
80012ec8:	00000000 	nop
80012ecc:	1483001a 	bne	a0,v1,80012f38 <dev_init_stdout+0x8c>
80012ed0:	24030001 	li	v1,1
80012ed4:	ac430004 	sw	v1,4(v0)
80012ed8:	3c038001 	lui	v1,0x8001
80012edc:	24632e1c 	addiu	v1,v1,11804
80012ee0:	ac430008 	sw	v1,8(v0)
80012ee4:	3c038001 	lui	v1,0x8001
80012ee8:	24632e38 	addiu	v1,v1,11832
80012eec:	ac43000c 	sw	v1,12(v0)
80012ef0:	3c038001 	lui	v1,0x8001
80012ef4:	24632e48 	addiu	v1,v1,11848
80012ef8:	ac430010 	sw	v1,16(v0)
80012efc:	3c038001 	lui	v1,0x8001
80012f00:	24632e40 	addiu	v1,v1,11840
80012f04:	3c048002 	lui	a0,0x8002
80012f08:	ac400000 	sw	zero,0(v0)
80012f0c:	ac430014 	sw	v1,20(v0)
80012f10:	24848364 	addiu	a0,a0,-31900
80012f14:	00402821 	move	a1,v0
80012f18:	0c003979 	jal	8000e5e4 <vfs_add_dev>
80012f1c:	00003021 	move	a2,zero
80012f20:	14400011 	bnez	v0,80012f68 <dev_init_stdout+0xbc>
80012f24:	3c048002 	lui	a0,0x8002
80012f28:	8fbf0014 	lw	ra,20(sp)
80012f2c:	00000000 	nop
80012f30:	03e00008 	jr	ra
80012f34:	27bd0018 	addiu	sp,sp,24
80012f38:	3c048002 	lui	a0,0x8002
80012f3c:	3c068001 	lui	a2,0x8001
80012f40:	2484832c 	addiu	a0,a0,-31956
80012f44:	24050039 	li	a1,57
80012f48:	0c0009f2 	jal	800027c8 <__panic>
80012f4c:	24c674a0 	addiu	a2,a2,29856
80012f50:	3c048002 	lui	a0,0x8002
80012f54:	3c068002 	lui	a2,0x8002
80012f58:	2484832c 	addiu	a0,a0,-31956
80012f5c:	24050037 	li	a1,55
80012f60:	0c0009f2 	jal	800027c8 <__panic>
80012f64:	24c68348 	addiu	a2,a2,-31928
80012f68:	3c068002 	lui	a2,0x8002
80012f6c:	2484832c 	addiu	a0,a0,-31956
80012f70:	2405003d 	li	a1,61
80012f74:	24c6836c 	addiu	a2,a2,-31892
80012f78:	0c0009f2 	jal	800027c8 <__panic>
80012f7c:	00403821 	move	a3,v0

80012f80 <fetchrun>:
80012f80:	27bdffc8 	addiu	sp,sp,-56
80012f84:	afb40030 	sw	s4,48(sp)
80012f88:	afb3002c 	sw	s3,44(sp)
80012f8c:	afb00020 	sw	s0,32(sp)
80012f90:	afbf0034 	sw	ra,52(sp)
80012f94:	afb20028 	sw	s2,40(sp)
80012f98:	afb10024 	sw	s1,36(sp)
80012f9c:	00809821 	move	s3,a0
80012fa0:	00a0a021 	move	s4,a1
80012fa4:	00c08021 	move	s0,a2
80012fa8:	40026000 	mfc0	v0,c0_status
80012fac:	00000000 	nop
80012fb0:	30420001 	andi	v0,v0,0x1
80012fb4:	14400095 	bnez	v0,8001320c <fetchrun+0x28c>
80012fb8:	2e020400 	sltiu	v0,s0,1024
80012fbc:	10400098 	beqz	v0,80013220 <fetchrun+0x2a0>
80012fc0:	00009021 	move	s2,zero
80012fc4:	3c02800d 	lui	v0,0x800d
80012fc8:	8c427d0c 	lw	v0,32012(v0)
80012fcc:	3c11800e 	lui	s1,0x800e
80012fd0:	8c440018 	lw	a0,24(v0)
80012fd4:	2625a5a0 	addiu	a1,s1,-23136
80012fd8:	02803021 	move	a2,s4
80012fdc:	02003821 	move	a3,s0
80012fe0:	0c002209 	jal	80008824 <copy_from_user>
80012fe4:	afa00010 	sw	zero,16(sp)
80012fe8:	1040008d 	beqz	v0,80013220 <fetchrun+0x2a0>
80012fec:	2622a5a0 	addiu	v0,s1,-23136
80012ff0:	02028021 	addu	s0,s0,v0
80012ff4:	a2000000 	sb	zero,0(s0)
80012ff8:	3c03bfd0 	lui	v1,0xbfd0
80012ffc:	8c6203fc 	lw	v0,1020(v1)
80013000:	00000000 	nop
80013004:	30420001 	andi	v0,v0,0x1
80013008:	1040fffc 	beqz	v0,80012ffc <fetchrun+0x7c>
8001300c:	3c02bfd0 	lui	v0,0xbfd0
80013010:	9224a5a0 	lbu	a0,-23136(s1)
80013014:	24030072 	li	v1,114
80013018:	ac4303f8 	sw	v1,1016(v0)
8001301c:	1080000e 	beqz	a0,80013058 <fetchrun+0xd8>
80013020:	3c03bfd0 	lui	v1,0xbfd0
80013024:	3c05800e 	lui	a1,0x800e
80013028:	24a5a5a1 	addiu	a1,a1,-23135
8001302c:	8c6203fc 	lw	v0,1020(v1)
80013030:	00000000 	nop
80013034:	30420001 	andi	v0,v0,0x1
80013038:	1040fffc 	beqz	v0,8001302c <fetchrun+0xac>
8001303c:	00000000 	nop
80013040:	ac6403f8 	sw	a0,1016(v1)
80013044:	24a50001 	addiu	a1,a1,1
80013048:	90a4ffff 	lbu	a0,-1(a1)
8001304c:	00000000 	nop
80013050:	1480fff6 	bnez	a0,8001302c <fetchrun+0xac>
80013054:	00000000 	nop
80013058:	3c03bfd0 	lui	v1,0xbfd0
8001305c:	8c6203fc 	lw	v0,1020(v1)
80013060:	00000000 	nop
80013064:	30420001 	andi	v0,v0,0x1
80013068:	1040fffc 	beqz	v0,8001305c <fetchrun+0xdc>
8001306c:	3c02bfd0 	lui	v0,0xbfd0
80013070:	ac4003f8 	sw	zero,1016(v0)
80013074:	3c11800e 	lui	s1,0x800e
80013078:	24020023 	li	v0,35
8001307c:	ae22a9a0 	sw	v0,-22112(s1)
80013080:	00002821 	move	a1,zero
80013084:	24060023 	li	a2,35
80013088:	00002021 	move	a0,zero
8001308c:	3c03bfd0 	lui	v1,0xbfd0
80013090:	24080020 	li	t0,32
80013094:	8c6203fc 	lw	v0,1020(v1)
80013098:	00000000 	nop
8001309c:	30420002 	andi	v0,v0,0x2
800130a0:	1040fffc 	beqz	v0,80013094 <fetchrun+0x114>
800130a4:	00000000 	nop
800130a8:	8c6203f8 	lw	v0,1016(v1)
800130ac:	00000000 	nop
800130b0:	00a23804 	sllv	a3,v0,a1
800130b4:	00c23026 	xor	a2,a2,v0
800130b8:	24a50008 	addiu	a1,a1,8
800130bc:	ae26a9a0 	sw	a2,-22112(s1)
800130c0:	14a8fff4 	bne	a1,t0,80013094 <fetchrun+0x114>
800130c4:	00872021 	addu	a0,a0,a3
800130c8:	1080005e 	beqz	a0,80013244 <fetchrun+0x2c4>
800130cc:	afa40018 	sw	a0,24(sp)
800130d0:	0c001716 	jal	80005c58 <kmalloc>
800130d4:	00000000 	nop
800130d8:	00408021 	move	s0,v0
800130dc:	3c02800e 	lui	v0,0x800e
800130e0:	8c44a9a0 	lw	a0,-22112(v0)
800130e4:	3c03bfd0 	lui	v1,0xbfd0
800130e8:	8c6203fc 	lw	v0,1020(v1)
800130ec:	00000000 	nop
800130f0:	30420001 	andi	v0,v0,0x1
800130f4:	1040fffc 	beqz	v0,800130e8 <fetchrun+0x168>
800130f8:	3c02bfd0 	lui	v0,0xbfd0
800130fc:	308300ff 	andi	v1,a0,0xff
80013100:	ac4303f8 	sw	v1,1016(v0)
80013104:	24020023 	li	v0,35
80013108:	ae22a9a0 	sw	v0,-22112(s1)
8001310c:	8fa20018 	lw	v0,24(sp)
80013110:	00000000 	nop
80013114:	10400012 	beqz	v0,80013160 <fetchrun+0x1e0>
80013118:	24050023 	li	a1,35
8001311c:	00002021 	move	a0,zero
80013120:	3c03bfd0 	lui	v1,0xbfd0
80013124:	8c6203fc 	lw	v0,1020(v1)
80013128:	00000000 	nop
8001312c:	30420002 	andi	v0,v0,0x2
80013130:	1040fffc 	beqz	v0,80013124 <fetchrun+0x1a4>
80013134:	00000000 	nop
80013138:	8c6203f8 	lw	v0,1016(v1)
8001313c:	02043021 	addu	a2,s0,a0
80013140:	a0c20000 	sb	v0,0(a2)
80013144:	00a22826 	xor	a1,a1,v0
80013148:	8fa20018 	lw	v0,24(sp)
8001314c:	24840001 	addiu	a0,a0,1
80013150:	0082102b 	sltu	v0,a0,v0
80013154:	1440fff3 	bnez	v0,80013124 <fetchrun+0x1a4>
80013158:	ae25a9a0 	sw	a1,-22112(s1)
8001315c:	30a500ff 	andi	a1,a1,0xff
80013160:	3c03bfd0 	lui	v1,0xbfd0
80013164:	8c6203fc 	lw	v0,1020(v1)
80013168:	00000000 	nop
8001316c:	30420001 	andi	v0,v0,0x1
80013170:	1040fffc 	beqz	v0,80013164 <fetchrun+0x1e4>
80013174:	3c02bfd0 	lui	v0,0xbfd0
80013178:	ac4503f8 	sw	a1,1016(v0)
8001317c:	8fa60018 	lw	a2,24(sp)
80013180:	02602021 	move	a0,s3
80013184:	02002821 	move	a1,s0
80013188:	0c00311c 	jal	8000c470 <file_write>
8001318c:	27a70018 	addiu	a3,sp,24
80013190:	00002821 	move	a1,zero
80013194:	3c04bfd0 	lui	a0,0xbfd0
80013198:	24070020 	li	a3,32
8001319c:	00a23006 	srlv	a2,v0,a1
800131a0:	30c600ff 	andi	a2,a2,0xff
800131a4:	8c8303fc 	lw	v1,1020(a0)
800131a8:	00000000 	nop
800131ac:	30630001 	andi	v1,v1,0x1
800131b0:	1060fffc 	beqz	v1,800131a4 <fetchrun+0x224>
800131b4:	3c03bfd0 	lui	v1,0xbfd0
800131b8:	24a50008 	addiu	a1,a1,8
800131bc:	ac6603f8 	sw	a2,1016(v1)
800131c0:	14a7fff7 	bne	a1,a3,800131a0 <fetchrun+0x220>
800131c4:	00a23006 	srlv	a2,v0,a1
800131c8:	0c001740 	jal	80005d00 <kfree>
800131cc:	02002021 	move	a0,s0
800131d0:	1640000a 	bnez	s2,800131fc <fetchrun+0x27c>
800131d4:	00000000 	nop
800131d8:	8fa20018 	lw	v0,24(sp)
800131dc:	8fbf0034 	lw	ra,52(sp)
800131e0:	8fb40030 	lw	s4,48(sp)
800131e4:	8fb3002c 	lw	s3,44(sp)
800131e8:	8fb20028 	lw	s2,40(sp)
800131ec:	8fb10024 	lw	s1,36(sp)
800131f0:	8fb00020 	lw	s0,32(sp)
800131f4:	03e00008 	jr	ra
800131f8:	27bd0038 	addiu	sp,sp,56
800131fc:	0c000b77 	jal	80002ddc <intr_enable>
80013200:	00000000 	nop
80013204:	08004c76 	j	800131d8 <fetchrun+0x258>
80013208:	00000000 	nop
8001320c:	0c000b7d 	jal	80002df4 <intr_disable>
80013210:	24120001 	li	s2,1
80013214:	2e020400 	sltiu	v0,s0,1024
80013218:	1440ff6b 	bnez	v0,80012fc8 <fetchrun+0x48>
8001321c:	3c02800d 	lui	v0,0x800d
80013220:	8fbf0034 	lw	ra,52(sp)
80013224:	2402ffff 	li	v0,-1
80013228:	8fb40030 	lw	s4,48(sp)
8001322c:	8fb3002c 	lw	s3,44(sp)
80013230:	8fb20028 	lw	s2,40(sp)
80013234:	8fb10024 	lw	s1,36(sp)
80013238:	8fb00020 	lw	s0,32(sp)
8001323c:	03e00008 	jr	ra
80013240:	27bd0038 	addiu	sp,sp,56
80013244:	08004c77 	j	800131dc <fetchrun+0x25c>
80013248:	2402fffe 	li	v0,-2

8001324c <ramExcHandle_tlbmiss>:
8001324c:	10000003 00000000                       ........

80013254 <ramReserved>:
80013254:	1000ffff 00000000                       ........

8001325c <ramExcHandle_general>:
8001325c:	03a0d821 	move	k1,sp
80013260:	401a6000 	mfc0	k0,c0_status
80013264:	335a0010 	andi	k0,k0,0x10
80013268:	13400007 	beqz	k0,80013288 <ramExcHandle_general+0x2c>
8001326c:	00000000 	nop
80013270:	3c1a800d 	lui	k0,0x800d
80013274:	275a7d0c 	addiu	k0,k0,32012
80013278:	8f5a0000 	lw	k0,0(k0)
8001327c:	8f5a000c 	lw	k0,12(k0)
80013280:	275d2000 	addiu	sp,k0,8192
80013284:	00000000 	nop
80013288:	401a6800 	mfc0	k0,c0_cause
8001328c:	08004ca5 	j	80013294 <common_exception>
80013290:	00000000 	nop

80013294 <common_exception>:
80013294:	27bdff5c 	addiu	sp,sp,-164
80013298:	afbf00a0 	sw	ra,160(sp)
8001329c:	afbe009c 	sw	s8,156(sp)
800132a0:	afbd0098 	sw	sp,152(sp)
800132a4:	afbc0094 	sw	gp,148(sp)
800132a8:	afbb0090 	sw	k1,144(sp)
800132ac:	afba008c 	sw	k0,140(sp)
800132b0:	afbb0098 	sw	k1,152(sp)
800132b4:	00000000 	nop
800132b8:	401b7000 	mfc0	k1,c0_epc
800132bc:	afbb00a0 	sw	k1,160(sp)
800132c0:	afb90088 	sw	t9,136(sp)
800132c4:	afb80084 	sw	t8,132(sp)
800132c8:	afb70080 	sw	s7,128(sp)
800132cc:	afb6007c 	sw	s6,124(sp)
800132d0:	afb50078 	sw	s5,120(sp)
800132d4:	afb40074 	sw	s4,116(sp)
800132d8:	afb30070 	sw	s3,112(sp)
800132dc:	afb2006c 	sw	s2,108(sp)
800132e0:	afb10068 	sw	s1,104(sp)
800132e4:	afb00064 	sw	s0,100(sp)
800132e8:	afaf0060 	sw	t7,96(sp)
800132ec:	afae005c 	sw	t6,92(sp)
800132f0:	afad0058 	sw	t5,88(sp)
800132f4:	afac0054 	sw	t4,84(sp)
800132f8:	afab0050 	sw	t3,80(sp)
800132fc:	afaa004c 	sw	t2,76(sp)
80013300:	afa90048 	sw	t1,72(sp)
80013304:	afa80044 	sw	t0,68(sp)
80013308:	afa70040 	sw	a3,64(sp)
8001330c:	afa6003c 	sw	a2,60(sp)
80013310:	afa50038 	sw	a1,56(sp)
80013314:	afa40034 	sw	a0,52(sp)
80013318:	afa30030 	sw	v1,48(sp)
8001331c:	afa2002c 	sw	v0,44(sp)
80013320:	afa10028 	sw	at,40(sp)
80013324:	afbf0024 	sw	ra,36(sp)
80013328:	00004010 	mfhi	t0
8001332c:	00004812 	mflo	t1
80013330:	afa80020 	sw	t0,32(sp)
80013334:	afa9001c 	sw	t1,28(sp)
80013338:	afba0018 	sw	k0,24(sp)
8001333c:	40096000 	mfc0	t1,c0_status
80013340:	afa90014 	sw	t1,20(sp)
80013344:	400a4000 	mfc0	t2,c0_badvaddr
80013348:	afaa0010 	sw	t2,16(sp)
8001334c:	afa0000c 	sw	zero,12(sp)
80013350:	2408ffe4 	li	t0,-28
80013354:	01284824 	and	t1,t1,t0
80013358:	40896000 	mtc0	t1,c0_status
8001335c:	27a40010 	addiu	a0,sp,16
80013360:	3c198000 	lui	t9,0x8000
80013364:	27393d20 	addiu	t9,t9,15648
80013368:	0320f809 	jalr	t9
8001336c:	00000000 	nop
80013370:	00000000 	nop

80013374 <exception_return>:
80013374:	8fa80014 	lw	t0,20(sp)
80013378:	35080002 	ori	t0,t0,0x2
8001337c:	00000000 	nop
80013380:	40886000 	mtc0	t0,c0_status
80013384:	8fa9001c 	lw	t1,28(sp)
80013388:	8fa80020 	lw	t0,32(sp)
8001338c:	01200013 	mtlo	t1
80013390:	01000011 	mthi	t0
80013394:	8fbf0024 	lw	ra,36(sp)
80013398:	8fa10028 	lw	at,40(sp)
8001339c:	8fa2002c 	lw	v0,44(sp)
800133a0:	8fa30030 	lw	v1,48(sp)
800133a4:	8fa40034 	lw	a0,52(sp)
800133a8:	8fa50038 	lw	a1,56(sp)
800133ac:	8fa6003c 	lw	a2,60(sp)
800133b0:	8fa70040 	lw	a3,64(sp)
800133b4:	8fa80044 	lw	t0,68(sp)
800133b8:	8fa90048 	lw	t1,72(sp)
800133bc:	8faa004c 	lw	t2,76(sp)
800133c0:	8fab0050 	lw	t3,80(sp)
800133c4:	8fac0054 	lw	t4,84(sp)
800133c8:	8fad0058 	lw	t5,88(sp)
800133cc:	8fae005c 	lw	t6,92(sp)
800133d0:	8faf0060 	lw	t7,96(sp)
800133d4:	8fb00064 	lw	s0,100(sp)
800133d8:	8fb10068 	lw	s1,104(sp)
800133dc:	8fb2006c 	lw	s2,108(sp)
800133e0:	8fb30070 	lw	s3,112(sp)
800133e4:	8fb40074 	lw	s4,116(sp)
800133e8:	8fb50078 	lw	s5,120(sp)
800133ec:	8fb6007c 	lw	s6,124(sp)
800133f0:	8fb70080 	lw	s7,128(sp)
800133f4:	8fb80084 	lw	t8,132(sp)
800133f8:	8fb90088 	lw	t9,136(sp)
800133fc:	8fbc0094 	lw	gp,148(sp)
80013400:	8fbe009c 	lw	s8,156(sp)
80013404:	8fba00a0 	lw	k0,160(sp)
80013408:	8fbd0098 	lw	sp,152(sp)
8001340c:	409a7000 	mtc0	k0,c0_epc
80013410:	00000000 	nop
80013414:	42000018 	eret
80013418:	00000000 	nop

8001341c <forkrets>:
8001341c:	249dfff0 	addiu	sp,a0,-16
80013420:	1000ffd4 	b	80013374 <exception_return>
80013424:	00000000 	nop

80013428 <kernel_thread_entry>:
80013428:	00a0f809 27bdfff0 00000000 00402021     .......'....! @.
80013438:	3c088001 25089bec 0100f809 00000000     ...<...%........
80013448:	00000000                                ....

8001344c <switch_to>:
8001344c:	ac9d002c 	sw	sp,44(a0)
80013450:	ac9f0028 	sw	ra,40(a0)
80013454:	ac9c0024 	sw	gp,36(a0)
80013458:	ac9e0020 	sw	s8,32(a0)
8001345c:	ac97001c 	sw	s7,28(a0)
80013460:	ac960018 	sw	s6,24(a0)
80013464:	ac950014 	sw	s5,20(a0)
80013468:	ac940010 	sw	s4,16(a0)
8001346c:	ac93000c 	sw	s3,12(a0)
80013470:	ac920008 	sw	s2,8(a0)
80013474:	ac910004 	sw	s1,4(a0)
80013478:	ac900000 	sw	s0,0(a0)
8001347c:	00000000 	nop
80013480:	8cb00000 	lw	s0,0(a1)
80013484:	8cb10004 	lw	s1,4(a1)
80013488:	8cb20008 	lw	s2,8(a1)
8001348c:	8cb3000c 	lw	s3,12(a1)
80013490:	8cb40010 	lw	s4,16(a1)
80013494:	8cb50014 	lw	s5,20(a1)
80013498:	8cb60018 	lw	s6,24(a1)
8001349c:	8cb7001c 	lw	s7,28(a1)
800134a0:	8cbe0020 	lw	s8,32(a1)
800134a4:	8cbc0024 	lw	gp,36(a1)
800134a8:	8cbf0028 	lw	ra,40(a1)
800134ac:	8cbd002c 	lw	sp,44(a1)
800134b0:	00000000 	nop
800134b4:	03e00008 	jr	ra
800134b8:	00000000 	nop

800134bc <pa2page.part.2>:
800134bc:	3c048001 	lui	a0,0x8001
800134c0:	3c068001 	lui	a2,0x8001
800134c4:	27bdffe8 	addiu	sp,sp,-24
800134c8:	24845508 	addiu	a0,a0,21768
800134cc:	24050062 	li	a1,98
800134d0:	afbf0014 	sw	ra,20(sp)
800134d4:	0c0009f2 	jal	800027c8 <__panic>
800134d8:	24c65560 	addiu	a2,a2,21856

800134dc <pte2page.part.3>:
800134dc:	3c048001 	lui	a0,0x8001
800134e0:	3c068001 	lui	a2,0x8001
800134e4:	27bdffe8 	addiu	sp,sp,-24
800134e8:	24845508 	addiu	a0,a0,21768
800134ec:	24050074 	li	a1,116
800134f0:	afbf0014 	sw	ra,20(sp)
800134f4:	0c0009f2 	jal	800027c8 <__panic>
800134f8:	24c6566c 	addiu	a2,a2,22124
800134fc:	800006ec 	lb	zero,1772(zero)
80013500:	800003c8 	lb	zero,968(zero)
80013504:	80000700 	lb	zero,1792(zero)
80013508:	800003c8 	lb	zero,968(zero)
8001350c:	800003c8 	lb	zero,968(zero)
80013510:	800003c8 	lb	zero,968(zero)
80013514:	800003c8 	lb	zero,968(zero)
80013518:	80000714 	lb	zero,1812(zero)
8001351c:	800003c8 	lb	zero,968(zero)
80013520:	800003c8 	lb	zero,968(zero)
80013524:	80000728 	lb	zero,1832(zero)
80013528:	80000738 	lb	zero,1848(zero)
8001352c:	800003c8 	lb	zero,968(zero)
80013530:	80000750 	lb	zero,1872(zero)
80013534:	8000046c 	lb	zero,1132(zero)
80013538:	8000046c 	lb	zero,1132(zero)
8001353c:	8000046c 	lb	zero,1132(zero)
80013540:	8000046c 	lb	zero,1132(zero)
80013544:	8000046c 	lb	zero,1132(zero)
80013548:	8000046c 	lb	zero,1132(zero)
8001354c:	8000046c 	lb	zero,1132(zero)
80013550:	8000046c 	lb	zero,1132(zero)
80013554:	8000046c 	lb	zero,1132(zero)
80013558:	800003c8 	lb	zero,968(zero)
8001355c:	800003c8 	lb	zero,968(zero)
80013560:	800003c8 	lb	zero,968(zero)
80013564:	800003c8 	lb	zero,968(zero)
80013568:	800003c8 	lb	zero,968(zero)
8001356c:	800003c8 	lb	zero,968(zero)
80013570:	800003c8 	lb	zero,968(zero)
80013574:	800003c8 	lb	zero,968(zero)
80013578:	800003c8 	lb	zero,968(zero)
8001357c:	800003c8 	lb	zero,968(zero)
80013580:	800003c8 	lb	zero,968(zero)
80013584:	800003c8 	lb	zero,968(zero)
80013588:	800003c8 	lb	zero,968(zero)
8001358c:	800003c8 	lb	zero,968(zero)
80013590:	800003c8 	lb	zero,968(zero)
80013594:	800003c8 	lb	zero,968(zero)
80013598:	800003c8 	lb	zero,968(zero)
8001359c:	800003c8 	lb	zero,968(zero)
800135a0:	800003c8 	lb	zero,968(zero)
800135a4:	800003c8 	lb	zero,968(zero)
800135a8:	800003c8 	lb	zero,968(zero)
800135ac:	800003c8 	lb	zero,968(zero)
800135b0:	800003c8 	lb	zero,968(zero)
800135b4:	800003c8 	lb	zero,968(zero)
800135b8:	800003c8 	lb	zero,968(zero)
800135bc:	800003c8 	lb	zero,968(zero)
800135c0:	800003c8 	lb	zero,968(zero)
800135c4:	800003c8 	lb	zero,968(zero)
800135c8:	800003c8 	lb	zero,968(zero)
800135cc:	800003c8 	lb	zero,968(zero)
800135d0:	800003c8 	lb	zero,968(zero)
800135d4:	800003c8 	lb	zero,968(zero)
800135d8:	800003c8 	lb	zero,968(zero)
800135dc:	800003c8 	lb	zero,968(zero)
800135e0:	800003c8 	lb	zero,968(zero)
800135e4:	800003c8 	lb	zero,968(zero)
800135e8:	800003c8 	lb	zero,968(zero)
800135ec:	800003c8 	lb	zero,968(zero)
800135f0:	800003c8 	lb	zero,968(zero)
800135f4:	800003c8 	lb	zero,968(zero)
800135f8:	800003c8 	lb	zero,968(zero)
800135fc:	800004c8 	lb	zero,1224(zero)
80013600:	800004e4 	lb	zero,1252(zero)
80013604:	80000538 	lb	zero,1336(zero)
80013608:	800003c8 	lb	zero,968(zero)
8001360c:	800003c8 	lb	zero,968(zero)
80013610:	800003c8 	lb	zero,968(zero)
80013614:	800003c8 	lb	zero,968(zero)
80013618:	800003c8 	lb	zero,968(zero)
8001361c:	800003c8 	lb	zero,968(zero)
80013620:	8000058c 	lb	zero,1420(zero)
80013624:	800003c8 	lb	zero,968(zero)
80013628:	800003c8 	lb	zero,968(zero)
8001362c:	800003c8 	lb	zero,968(zero)
80013630:	8000059c 	lb	zero,1436(zero)
80013634:	800003c8 	lb	zero,968(zero)
80013638:	800003c8 	lb	zero,968(zero)
8001363c:	800005cc 	lb	zero,1484(zero)
80013640:	800003c8 	lb	zero,968(zero)
80013644:	800003c8 	lb	zero,968(zero)
80013648:	800003c8 	lb	zero,968(zero)
8001364c:	800003c8 	lb	zero,968(zero)
80013650:	800006c4 	lb	zero,1732(zero)

80013654 <error_string>:
80013654:	00000000 800144b0 800144c4 800144d0     .....D...D...D..
80013664:	800144e4 800144f4 80014508 00000000     .D...D...E......
80013674:	8001451c 80014530 80014544 00000000     .E..0E..DE......
80013684:	00000000 80014554 80014564 8001457c     ....TE..dE..|E..
80013694:	80014590 800145ac 800145bc 800145cc     .E...E...E...E..
800136a4:	800145e0 800145f8 80014608 80014620     .E...E...F.. F..
800136b4:	80014644                                DF..

800136b8 <commands>:
800136b8:	80014ad0 80014adc 80002518 80014afc     .J...J...%...J..
800136c8:	80014b08 800024f8                       .K...$..

800136d0 <KEYCODE_MAP>:
	...
800136dc:	00600000 00000000 00317100 737a0000     ..`......q1...zs
800136ec:	00327761 64786300 00333465 66762000     aw2..cxde43.. vf
800136fc:	00357274 68626e00 00367967 6a6d0000     tr5..nbhgy6...mj
8001370c:	00383775 696b2c00 0039306f 6c2f2e00     u78..,kio09.../l
8001371c:	002d703b 00270000 00003d5b 5d0d0000     ;p-...'.[=.....]
8001372c:	00005c00 00000000 00080000 00000000     .\..............
	...
8001375c:	007e0000 00000000 00215100 535a0000     ..~......Q!...ZS
8001376c:	00405741 44584300 00232445 46562000     AW@..CXDE$#.. VF
8001377c:	00255254 48424e00 005e5947 4a4d0000     TR%..NBHGY^...MJ
8001378c:	002a2655 494b3c00 0028294f 4c3f3e00     U&*..<KIO)(..>?L
8001379c:	005f503a 00220000 00002b7b 7d0d0000     :P_...".{+.....}
800137ac:	00007c00 00000000 00080000 00000000     .|..............
	...

800137d0 <CHAR_FONT_BITMAP>:
	...
800137e4:	01000000 00401004 00000401 00040100     ......@.........
800137f4:	00000000 02800000 00a0280a 00000000     .........(......
	...
8001380c:	04800000 43f86812 507f0902 00048120     .....h.C...P ...
8001381c:	00000000 01004000 6048961f 40d00f01     .....@....H`...@
8001382c:	101f0d22 00000040 40600000 01180902     "...@.....`@....
8001383c:	40620303 00180902 00000000 03800000     ..b@............
8001384c:	c0300401 88a22480 003f0663 00000000     ..0..$..c.?.....
8001385c:	01000000 00401004 00000000 00000000     ......@.........
8001386c:	00000000 01008000 80200804 20080200     .......... .... 
8001387c:	20040100 00000000 00801000 00401002     ... ..........@.
8001388c:	40100401 04020080 00000000 81000000     ...@............
8001389c:	20e03824 00000409 00000000 00000000     $8. ............
800138ac:	00000000 00401000 40103f81 00000100     ......@..?.@....
	...
800138cc:	08060180 00000010 00000000 00000000     ................
800138dc:	003c0000 00000000 00000000 00000000     ..<.............
	...
800138f4:	00060180 00000000 04000000 00802008     ............. ..
80013904:	20080401 04010040 00000008 03800000     ... @...........
80013914:	22088211 08822089 000e0442 00000000     ...". ..B.......
80013924:	01800000 00401005 40100401 001f0100     ......@....@....
80013934:	00000000 83c00000 02008030 20301804     ........0.....0 
80013944:	003f8040 00000000 83c00000 83008030     @.?.........0...
80013954:	00803007 000f0c22 00000000 06000000     .0.."...........
80013964:	41205814 00fe1084 00100401 00000000     .X A............
80013974:	87e00000 20f80200 00802004 000f0422     ....... . .."...
80013984:	00000000 07800000 a0080623 08823187     ........#....1..
80013994:	001e0c42 00000000 0fe00000 00804030     B...........0@..
800139a4:	20100402 00010080 00000000 87c00000     ... ............
800139b4:	c3188231 08823187 001f0c62 00000000     1....1..b.......
800139c4:	83c00000 62088211 00802f0c 000f0623     .......b./..#...
	...
800139dc:	80600000 00000001 00060180 00000000     ..`.............
800139ec:	00000000 80600000 00000001 08060180     ......`.........
800139fc:	00000010 00000000 c1c08000 c01c0181     ................
80013a0c:	00000801 00000000 00000000 03f80000     ................
80013a1c:	00fe0000 00000000 00000000 00000000     ................
80013a2c:	00700200 70703007 00000020 00000000     ..p..0pp .......
80013a3c:	81c00000 00c02008 00080201 00020080     ..... ..........
80013a4c:	00000000 07800000 23888433 48922489     ........3..#.$.H
80013a5c:	0c010e22 000001c0 01000000 80a0280e     "............(..
80013a6c:	107c1102 00208821 00000000 87e00000     ..|.!. .........
80013a7c:	e3088230 08823087 001f8c22 00000000     0....0..".......
80013a8c:	07800000 20080623 18020080 001e0840     ....#.. ....@...
80013a9c:	00000000 83e00000 22088218 08822088     ...........". ..
80013aac:	000f8622 00000000 8fe00000 e0080200     "...............
80013abc:	0802008f 003f8020 00000000 8fe00000     .... .?.........
80013acc:	e0080200 0802008f 00008020 00000000     ........ .......
80013adc:	07800000 20080621 08823080 001e0842     ....!.. .0..B...
80013aec:	00000000 88200000 e2088220 0882208f     ...... . .... ..
80013afc:	00208822 00000000 07c00000 00401004     ". ...........@.
80013b0c:	40100401 001f0100 00000000 07800000     ...@............
80013b1c:	01004010 00401004 000f0661 00000000     .@....@.a.......
80013b2c:	84200000 e0281208 88320480 00208420     .. ...(...2. . .
80013b3c:	00000000 80200000 20080200 08020080     ...... .... ....
80013b4c:	003f8020 00000000 8c600000 a2a8aa31      .?.......`.1...
80013b5c:	0882248b 00208822 00000000 88600000     .$..". .......`.
80013b6c:	22288a21 88a22489 00308c22 00000000     !.(".$..".0.....
80013b7c:	03800000 22088211 08822088 000e0442     .......". ..B...
80013b8c:	00000000 83e00000 22088230 08021f8c     ........0.."....
80013b9c:	00008020 00000000 03800000 22088211      .............."
80013bac:	08822088 601e0442 00000100 83e00000     . ..B..`........
80013bbc:	22088230 08421f8c 00408822 00000000     0.."..B.".@.....
80013bcc:	87800000 c0080221 00801c00 001f0c22     ....!......."...
80013bdc:	00000000 0fe00000 00401004 40100401     ..........@....@
80013bec:	00040100 00000000 88200000 22088220     .......... . .."
80013bfc:	08822088 001f0c62 00000000 88200000     . ..b......... .
80013c0c:	41104420 a0280a04 00040380 00000000      D.A..(.........
80013c1c:	48100000 a2648120 907e1685 00090240     ...H .d...~.@...
80013c2c:	00000000 08200000 00a02811 10280e01     ...... ..(....(.
80013c3c:	00208441 00000000 08200000 80a06411     A. ....... ..d..
80013c4c:	40100403 00040100 00000000 0fe00000     ...@............
80013c5c:	00804030 10080401 003f8060 00000000     0@......`.?.....
80013c6c:	0080e000 80200802 20080200 38020080     ...... .... ...8
80013c7c:	00000000 00200000 80100401 40100200     ...... ........@
80013c8c:	20080200 00000100 01007000 00401004     ... .....p....@.
80013c9c:	40100401 1c040100 00000000 01000000     ...@............
80013cac:	0318440a 00000000 00000000 00000000     .D..............
	...
80013ccc:	000ff000 0100200c 00000000 00000000     ..... ..........
	...
80013ce8:	01103800 08461f04 00170621 00000000     .8....F.!.......
80013cf8:	80200800 20983a00 08421084 000e8261     .. ..:. ..B.a...
	...
80013d10:	21103800 08020080 000e0440 00000000     .8.!....@.......
80013d20:	04010000 21905c10 08421084 00170641     .....\.!..B.A...
	...
80013d38:	21903800 08021f84 000e0440 00000000     .8.!....@.......
80013d48:	0081c000 80207e02 20080200 00020080     .....~ .... ....
	...
80013d60:	21905c00 08421084 40170641 00038190     .\.!..B.A..@....
80013d70:	80200800 21983a00 08421084 00108421     .. ..:.!..B.!...
80013d80:	00000000 01004000 00401c00 40100401     .....@....@....@
80013d90:	003f8100 00000000 01004000 00401c00     ..?......@....@.
80013da0:	40100401 10040100 0000e040 80200800     ...@....@..... .
80013db0:	a0482200 48120380 00108220 00000000     ."H....H .......
80013dc0:	00803c00 80200802 20080200 001c0080     .<.... .... ....
	...
80013dd8:	22487e00 48922489 00248922 00000000     .~H".$.H".$.....
80013de8:	00000000 21983a00 08421084 00108421     .....:.!..B.!...
	...
80013e00:	20903c00 08421084 000f0241 00000000     .<. ..B.A.......
80013e10:	00000000 20983a00 08421084 020e8261     .....:. ..B.a...
80013e20:	00002008 00000000 21905c00 08421084     . .......\.!..B.
80013e30:	40170641 00040100 00000000 41303400     A..@.........40A
80013e40:	10040100 00010040 00000000 00000000     ....@...........
80013e50:	21083c00 00700380 000f0421 00000000     .<.!..p.!.......
80013e60:	00800000 80207e02 20080200 001c0080     .....~ .... ....
	...
80013e78:	21084200 08421084 00170661 00000000     .B.!..B.a.......
80013e88:	00000000 41084200 60240902 00060180     .....B.A..$`....
	...
80013ea0:	a2048100 f85a1685 00090241 00000000     ......Z.A.......
80013eb0:	00000000 80904200 90180601 00108240     .....B......@...
	...
80013ec8:	41104200 60280902 10040100 0000c020     .B.A..(`.... ...
80013ed8:	00000000 01007e00 10080402 001f8020     .....~...... ...
80013ee8:	00000000 01018000 00401004 40100301     ..........@....@
80013ef8:	10040100 00000180 01004000 00401004     .........@....@.
80013f08:	40100401 10040100 00010040 01003000     ...@....@....0..
80013f18:	00401004 40101801 10040100 00000030     ..@....@....0...
	...
80013f30:	00622700 00000000 00000000 80003b84     .'b..........;..
80013f40:	80003af8 80003be8 80003c18 80003c24     .:...;...<..$<..
80013f50:	80003c24 80003af8 80003af8 80003c6c     $<...:...:..l<..
80013f60:	80003af8 80003b38                       .:..8;..

80013f68 <excnames.1574>:
80013f68:	80014ecc 80014ed8 80014ee4 80014ef8     .N...N...N...N..
80013f78:	80014f0c 80014f24 80014f3c 80014f5c     .O..$O..<O..\O..
80013f88:	80014f7c 80014f84 80014f90 80014fb0     |O...O...O...O..
80013f98:	80014fc8                                .O..

80013f9c <buddy_pmm_manager>:
80013f9c:	800154f4 80003df4 80003e70 80004090     .T...=..p>...@..
80013fac:	800050a8 80003e3c 800042fc              .P..<>...B..

80013fb8 <__slab_div_table>:
80013fb8:	00000071 0000003b 0000001e 0000000f     q...;...........
	...

80013fd8 <syscalls>:
80013fd8:	00000000 8000b95c 8000b93c 8000b928     ....\...<...(...
80013fe8:	8000b910 00000000 00000000 00000000     ................
	...
80014000:	8000b908 8000b8fc 8000b8f0 00000000     ................
	...
8001401c:	8000b764 8000b74c 00000000 00000000     d...L...........
	...
80014050:	8000b8cc 8000b8ac 00000000 00000000     ................
	...
80014168:	8000b898 8000b88c 8000b874 8000b85c     ........t...\...
80014178:	8000b844 00000000 00000000 00000000     D...............
	...
80014190:	8000b830 8000b824 00000000 00000000     0...$...........
	...
800141bc:	8000b810 00000000 00000000 00000000     ................
	...
800141d8:	8000b7fc 00000000 8000b7e8 00000000     ................
	...
8001439c:	8000b7d0 8000b774                       ....t...

800143a4 <sfs_node_dirops>:
800143a4:	8c4ba476 8000fdbc 8001114c 00000000     v.K.....L.......
800143b4:	00000000 800111c0 8000fde8 800118c8     ................
800143c4:	80010b50 800102a4 8000fef0 00000000     P...............
	...
800143dc:	80011c04 00000000                       ........

800143e4 <sfs_node_fileops>:
800143e4:	8c4ba476 8000fde0 8001114c 800113a4     v.K.....L.......
800143f4:	800112ac 800111c0 8000fde8 00000000     ................
80014404:	00000000 800102a4 8000fef0 80011058     ............X...
80014414:	80010d28 00000000 00000000 00000000     (...............

80014424 <dev_node_ops>:
80014424:	8c4ba476 80012470 80012428 800123e0     v.K.p$..($...#..
80014434:	80012398 800124d4 00000000 00000000     .#...$..........
	...
8001444c:	80012324 80012288 00000000 00000000     $#..."..........
8001445c:	800121fc 80012240 55485428 5453432e     .!..@"..(THU.CST
8001446c:	736f2029 20736920 64616f6c 20676e69     ) os is loading 
8001447c:	0a2e2e2e 0000000a 33323130 37363534     ........01234567
8001448c:	62613938 66656463 00000000 6c756e28     89abcdef....(nul
8001449c:	0000296c 6f727265 64252072 00000000     l)..error %d....
800144ac:	00007325 70736e75 66696365 20646569     %s..unspecified 
800144bc:	6f727265 00000072 20646162 636f7270     error...bad proc
800144cc:	00737365 61766e69 2064696c 61726170     ess.invalid para
800144dc:	6574656d 00000072 2074756f 6d20666f     meter...out of m
800144ec:	726f6d65 00000079 2074756f 7020666f     emory...out of p
800144fc:	65636f72 73657373 00000000 6d676573     rocesses....segm
8001450c:	61746e65 6e6f6974 75616620 0000746c     entation fault..
8001451c:	61766e69 2064696c 20666c65 656c6966     invalid elf file
8001452c:	00000000 636f7270 20737365 6b207369     ....process is k
8001453c:	656c6c69 00000064 696e6170 61662063     illed...panic fa
8001454c:	72756c69 00000065 73206f6e 20686375     ilure...no such 
8001455c:	69766564 00006563 69766564 6e206563     device..device n
8001456c:	6120746f 6c696176 656c6261 00000000     ot available....
8001457c:	69766564 662f6563 20656c69 62207369     device/file is b
8001458c:	00797375 73206f6e 20686375 656c6966     usy.no such file
8001459c:	20726f20 65726964 726f7463 00000079      or directory...
800145ac:	61207369 72696420 6f746365 00007972     is a directory..
800145bc:	20746f6e 69642061 74636572 0079726f     not a directory.
800145cc:	736f7263 65642073 65636976 6e696c20     cross device lin
800145dc:	0000006b 6d696e75 6d656c70 65746e65     k...unimplemente
800145ec:	65662064 72757461 00000065 656c6c69     d feature...ille
800145fc:	206c6167 6b656573 00000000 206f6f74     gal seek....too 
8001460c:	796e616d 6c696620 61207365 6f206572     many files are o
8001461c:	006e6570 656c6966 20726f20 65726964     pen.file or dire
8001462c:	726f7463 6c612079 64616572 78652079     ctory already ex
8001463c:	73747369 00000000 65726964 726f7463     ists....director
8001464c:	73692079 746f6e20 706d6520 00007974     y is not empty..
8001465c:	6e72656b 62696c2f 62722f73 6572745f     kern/libs/rb_tre
8001466c:	00632e65 65737361 6f697472 6166206e     e.c.assertion fa
8001467c:	64656c69 2078203a 74203d21 2d656572     iled: x != tree-
8001468c:	6f6f723e 26262074 21207820 696e203d     >root && x != ni
8001469c:	2626206c 21207920 696e203d 0000006c     l && y != nil...
800146ac:	65737361 6f697472 6166206e 64656c69     assertion failed
800146bc:	2821203a 2d6c696e 6465723e 00000029     : !(nil->red)...
800146cc:	65737361 6f697472 6166206e 64656c69     assertion failed
800146dc:	6572203a 3d212074 4c554e20 0000004c     : ret != NULL...
800146ec:	65737361 6f697472 6166206e 64656c69     assertion failed
800146fc:	6f63203a 7261706d 3d212065 4c554e20     : compare != NUL
8001470c:	0000004c 65737361 6f697472 6166206e     L...assertion fa
8001471c:	64656c69 2821203a 65657274 696e3e2d     iled: !(tree->ni
8001472c:	723e2d6c 20296465 21202626 65727428     l->red) && !(tre
8001473c:	723e2d65 2d746f6f 6465723e 00000029     e->root->red)...
8001474c:	65737361 6f697472 6166206e 64656c69     assertion failed
8001475c:	2079203a 72203d21 20746f6f 79202626     : y != root && y
8001476c:	203d2120 006c696e 65737361 6f697472      != nil.assertio
8001477c:	6166206e 64656c69 6e21203a 2d65646f     n failed: !node-
8001478c:	6465723e 00000000 65737361 6f697472     >red....assertio
8001479c:	6166206e 64656c69 4f43203a 5241504d     n failed: COMPAR
800147ac:	72742845 202c6565 65646f6e 6f6e202c     E(tree, node, no
800147bc:	3e2d6564 7466656c 3d3e2029 00003020     de->left) >= 0..
800147cc:	65737361 6f697472 6166206e 64656c69     assertion failed
800147dc:	6f6e203a 3e2d6564 7466656c 61703e2d     : node->left->pa
800147ec:	746e6572 203d3d20 65646f6e 00000000     rent == node....
800147fc:	65737361 6f697472 6166206e 64656c69     assertion failed
8001480c:	4f43203a 5241504d 72742845 202c6565     : COMPARE(tree, 
8001481c:	65646f6e 6f6e202c 3e2d6564 68676972     node, node->righ
8001482c:	3c202974 0030203d 65737361 6f697472     t) <= 0.assertio
8001483c:	6166206e 64656c69 6f6e203a 3e2d6564     n failed: node->
8001484c:	68676972 703e2d74 6e657261 3d3d2074     right->parent ==
8001485c:	646f6e20 00000065 65737361 6f697472      node...assertio
8001486c:	6166206e 64656c69 6e21203a 2d65646f     n failed: !node-
8001487c:	66656c3e 723e2d74 26206465 6e212026     >left->red && !n
8001488c:	2d65646f 6769723e 3e2d7468 00646572     ode->right->red.
8001489c:	65737361 6f697472 6166206e 64656c69     assertion failed
800148ac:	6268203a 66656c5f 3d3d2074 5f626820     : hb_left == hb_
800148bc:	68676972 00000074 65737361 6f697472     right...assertio
800148cc:	6166206e 64656c69 7274203a 21206565     n failed: tree !
800148dc:	554e203d 00004c4c 65737361 6f697472     = NULL..assertio
800148ec:	6166206e 64656c69 6e21203a 3e2d6c69     n failed: !nil->
800148fc:	20646572 72202626 2d746f6f 66656c3e     red && root->lef
8001490c:	3d3d2074 6c696e20 00000000 65737361     t == nil....asse
8001491c:	6f697472 6166206e 64656c69 616d203a     rtion failed: ma
8001492c:	695b6b72 3d3d205d 00003120 65737361     rk[i] == 1..asse
8001493c:	6f697472 6166206e 64656c69 6f6e203a     rtion failed: no
8001494c:	21206564 554e203d 26204c4c 6f6e2026     de != NULL && no
8001495c:	3d206564 2826203d 5b6c6c61 3e2d5d69     de == &(all[i]->
8001496c:	6c5f6272 296b6e69 00000000 65737361     rb_link)....asse
8001497c:	6f697472 6166206e 64656c69 6f6e203a     rtion failed: no
8001498c:	21206564 554e203d 26204c4c 62722026     de != NULL && rb
8001499c:	6164326e 6e286174 2965646f 61643e2d     n2data(node)->da
800149ac:	3d206174 0069203d 65737361 6f697472     ta == i.assertio
800149bc:	6166206e 64656c69 6f6e203a 21206564     n failed: node !
800149cc:	554e203d 26204c4c 62722026 6164326e     = NULL && rbn2da
800149dc:	6e286174 2965646f 61643e2d 3d206174     ta(node)->data =
800149ec:	616d203d 00000078 65737361 6f697472     = max...assertio
800149fc:	6166206e 64656c69 6272203a 6572745f     n failed: rb_tre
80014a0c:	6d655f65 28797470 65657274 00000029     e_empty(tree)...
80014a1c:	33323130 37363534 42413938 46454443     0123456789ABCDEF
80014a2c:	00000000 63657053 206c6169 6e72656b     ....Special kern
80014a3c:	73206c65 6f626d79 0a3a736c 00000000     el symbols:.....
80014a4c:	6e652020 20797274 00783020 68702820       entry  0x. (ph
80014a5c:	0a297379 00000000 74652020 09747865     ys).....  etext.
80014a6c:	00007830 64652020 09617461 00007830     0x..  edata.0x..
80014a7c:	6e652020 78300964 00000000 6e72654b       end.0x....Kern
80014a8c:	65206c65 75636578 6c626174 656d2065     el executable me
80014a9c:	79726f6d 6f6f6620 69727074 203a746e     mory footprint: 
80014aac:	00000000 000a424b 6e72656b 6265642f     ....KB..kern/deb
80014abc:	6b2f6775 75626564 00632e67 6d696e55     ug/kdebug.c.Unim
80014acc:	00006c70 706c6568 00000000 00202d20     pl..help.... - .
80014adc:	70736944 2079616c 73696874 73696c20     Display this lis
80014aec:	666f2074 6d6f6320 646e616d 00002e73     t of commands...
80014afc:	6e72656b 6f666e69 00000000 70736944     kerninfo....Disp
80014b0c:	2079616c 6f666e69 74616d72 206e6f69     lay information 
80014b1c:	756f6261 68742074 656b2065 6c656e72     about the kernel
80014b2c:	0000002e 636c6557 20656d6f 74206f74     ....Welcome to t
80014b3c:	6b206568 656e7265 6564206c 20677562     he kernel debug 
80014b4c:	696e6f6d 21726f74 00000a21 65707954     monitor!!...Type
80014b5c:	65682720 2027706c 20726f66 696c2061      'help' for a li
80014b6c:	6f207473 6f632066 6e616d6d 0a2e7364     st of commands..
80014b7c:	00000000 00203e4b 0d0a0920 00000000     ....K> . .......
80014b8c:	206f6f54 796e616d 67726120 6e656d75     Too many argumen
80014b9c:	0a2e7374 00000000 6e6b6e55 206e776f     ts......Unknown 
80014bac:	6d6d6f63 20646e61 00000027 00000a27     command '...'...
80014bbc:	6e72656b 70206c65 63696e61 20746120     kernel panic at 
80014bcc:	253a7325 200a3a64 00202020 6e72656b     %s:%d:.    .kern
80014bdc:	77206c65 696e7261 6120676e 73252074     el warning at %s
80014bec:	3a64253a 2020200a 00000020 65732b2b     :%d:.    ...++se
80014bfc:	20707574 656d6974 6e692072 72726574     tup timer interr
80014c0c:	73747075 0000000a 69726573 70206c61     upts....serial p
80014c1c:	2074726f 73656f64 746f6e20 69786520     ort does not exi
80014c2c:	21217473 0000000a 6e72656b 6972642f     st!!....kern/dri
80014c3c:	2f726576 69636970 632e7172 00000000     ver/picirq.c....
80014c4c:	65737361 6f697472 6166206e 64656c69     assertion failed
80014c5c:	7269203a 203c2071 00000038 646d6172     : irq < 8...ramd
80014c6c:	5f6b7369 74696e69 203a2928 74696e69     isk_init(): init
80014c7c:	66206472 646e756f 616d202c 3a636967     rd found, magic:
80014c8c:	25783020 2c783830 25783020 20783830      0x%08x, 0x%08x 
80014c9c:	73636573 0000000a 6e726157 3a676e69     secs....Warning:
80014cac:	206f4e20 74696e49 0a216472 00000000      No Initrd!.....
80014cbc:	74696e49 203a6472 30257830 2d207838     Initrd: 0x%08x -
80014ccc:	25783020 2c783830 7a697320 30203a65      0x%08x, size: 0
80014cdc:	38302578 6d202c78 63696761 7830203a     x%08x, magic: 0x
80014cec:	78383025 0000000a 6e72656b 6972642f     %08x....kern/dri
80014cfc:	2f726576 646d6172 2e6b7369 00000063     ver/ramdisk.c...
80014d0c:	65737361 6f697472 6166206e 64656c69     assertion failed
80014d1c:	4e49203a 44525449 5a49535f 25292845     : INITRD_SIZE()%
80014d2c:	54434553 455a4953 203d3d20 00000030     SECTSIZE == 0...
80014d3c:	4e52454b 494e495f 00445254 00002420     KERN_INITRD. $..
80014d4c:	6e6b6e55 006e776f 70617274 6d617266     Unknown.trapfram
80014d5c:	74612065 00000020 61722420 00203a09     e at ... $ra.: .
80014d6c:	64614220 3a094156 00000020 61745320      BadVA.: ... Sta
80014d7c:	09737574 0000203a 75614320 3a096573     tus.: .. Cause.:
80014d8c:	00000020 43504520 00203a09 70617254      ... EPC.: .Trap
80014d9c:	206e6920 72657375 65646f6d 0000203a      in usermode: ..
80014dac:	70617254 206e6920 6e72656b 203a6c65     Trap in kernel: 
80014dbc:	00000000 30257830 303d7838 38302578     ....0x%08x=0x%08
80014dcc:	00000a78 6e72656b 6172742f 72742f70     x...kern/trap/tr
80014ddc:	632e7061 00000000 65737361 6f697472     ap.c....assertio
80014dec:	6166206e 64656c69 7563203a 6e657272     n failed: curren
80014dfc:	67705f74 20726964 4e203d21 004c4c55     t_pgdir != NULL.
80014e0c:	65737361 6f697472 6166206e 64656c69     assertion failed
80014e1c:	7563203a 6e657272 3d3d2074 6c646920     : current == idl
80014e2c:	6f727065 00000063 61686e75 656c646e     eproc...unhandle
80014e3c:	61702064 66206567 746c7561 00000a2e     d page fault....
80014e4c:	61686e75 656c646e 67702064 6c756166     unhandled pgfaul
80014e5c:	00000074 6e6b6e55 206e776f 65746e69     t...Unknown inte
80014e6c:	70757272 00002174 74736e69 746f6e20     rrupt!..inst not
80014e7c:	636e6920 6564756c 2049202c 6c6c6977      include, I will
80014e8c:	65737520 666f7320 72617774 6f742065      use software to
80014e9c:	706d6920 656d656c 000a746e 67696c41      implement..Alig
80014eac:	6e656d6e 72452074 00726f72 61686e55     nment Error.Unha
80014ebc:	656c646e 78452064 74706563 006e6f69     ndled Exception.
80014ecc:	65746e49 70757272 00000074 20424c54     Interrupt...TLB 
80014edc:	69646f4d 00007966 20424c54 7373696d     Modify..TLB miss
80014eec:	206e6f20 64616f6c 00000000 20424c54      on load....TLB 
80014efc:	7373696d 206e6f20 726f7473 00000065     miss on store...
80014f0c:	72646441 20737365 6f727265 6e6f2072     Address error on
80014f1c:	616f6c20 00000064 72646441 20737365      load...Address 
80014f2c:	6f727265 6e6f2072 6f747320 00006572     error on store..
80014f3c:	20737542 6f727265 6e6f2072 736e6920     Bus error on ins
80014f4c:	63757274 6e6f6974 74656620 00006863     truction fetch..
80014f5c:	20737542 6f727265 6e6f2072 74616420     Bus error on dat
80014f6c:	6f6c2061 6f206461 74732072 0065726f     a load or store.
80014f7c:	63737953 006c6c61 61657242 696f706b     Syscall.Breakpoi
80014f8c:	0000746e 65736552 64657672 6c692820     nt..Reserved (il
80014f9c:	6167656c 6920296c 7274736e 69746375     legal) instructi
80014fac:	00006e6f 72706f43 7365636f 20726f73     on..Coprocessor 
80014fbc:	73756e75 656c6261 00000000 74697241     unusable....Arit
80014fcc:	74656d68 6f206369 66726576 00776f6c     hmetic overflow.
80014fdc:	6e72656b 2f6d6d2f 64647562 6d705f79     kern/mm/buddy_pm
80014fec:	00632e6d 65737361 6f697472 6166206e     m.c.assertion fa
80014ffc:	64656c69 206e203a 2030203e 7a202626     iled: n > 0 && z
8001500c:	5f656e6f 206d756e 414d203c 4f5a5f58     one_num < MAX_ZO
8001501c:	4e5f454e 00004d55 65737361 6f697472     NE_NUM..assertio
8001502c:	6166206e 64656c69 6150203a 65526567     n failed: PageRe
8001503c:	76726573 70286465 00000029 65737361     served(p)...asse
8001504c:	6f697472 6166206e 64656c69 206e203a     rtion failed: n 
8001505c:	0030203e 6f746567 72656472 69616620     > 0.getorder fai
8001506c:	2e64656c 0a642520 00000000 65737361     led. %d.....asse
8001507c:	6f697472 6166206e 64656c69 6150203a     rtion failed: Pa
8001508c:	72506567 7265706f 70287974 26262029     geProperty(p) &&
8001509c:	3e2d7020 706f7270 79747265 203d3d20      p->property == 
800150ac:	00000069 65737361 6f697472 6166206e     i...assertion fa
800150bc:	64656c69 6f74203a 206c6174 6e203d3d     iled: total == n
800150cc:	72665f72 705f6565 73656761 00002928     r_free_pages()..
800150dc:	65737361 6f697472 6166206e 64656c69     assertion failed
800150ec:	3070203a 203d2120 4c4c554e 00000000     : p0 != NULL....
800150fc:	65737361 6f697472 6166206e 64656c69     assertion failed
8001510c:	7028203a 32656761 28786469 20293070     : (page2idx(p0) 
8001511c:	29372026 203d3d20 00000030 65737361     & 7) == 0...asse
8001512c:	6f697472 6166206e 64656c69 5021203a     rtion failed: !P
8001513c:	50656761 65706f72 28797472 00293070     ageProperty(p0).
8001514c:	65737361 6f697472 6166206e 64656c69     assertion failed
8001515c:	726e203a 6572665f 61705f65 28736567     : nr_free_pages(
8001516c:	3d3d2029 00003020 65737361 6f697472     ) == 0..assertio
8001517c:	6166206e 64656c69 6c61203a 5f636f6c     n failed: alloc_
8001518c:	65676170 3d202928 554e203d 00004c4c     page() == NULL..
8001519c:	65737361 6f697472 6166206e 64656c69     assertion failed
800151ac:	726e203a 6572665f 61705f65 28736567     : nr_free_pages(
800151bc:	3d3d2029 00003820 65737361 6f697472     ) == 8..assertio
800151cc:	6166206e 64656c69 6150203a 72506567     n failed: PagePr
800151dc:	7265706f 70287974 26202930 30702026     operty(p0) && p0
800151ec:	72703e2d 7265706f 3d207974 0033203d     ->property == 3.
800151fc:	65737361 6f697472 6166206e 64656c69     assertion failed
8001520c:	7028203a 203d2030 6f6c6c61 61705f63     : (p0 = alloc_pa
8001521c:	28736567 20292936 4e203d21 204c4c55     ges(6)) != NULL 
8001522c:	21202626 65676150 706f7250 79747265     && !PageProperty
8001523c:	29307028 20262620 665f726e 5f656572     (p0) && nr_free_
8001524c:	65676170 20292873 32203d3d 00000000     pages() == 2....
8001525c:	65737361 6f697472 6166206e 64656c69     assertion failed
8001526c:	7028203a 203d2031 6f6c6c61 61705f63     : (p1 = alloc_pa
8001527c:	28736567 20292932 4e203d21 204c4c55     ges(2)) != NULL 
8001528c:	70202626 3d3d2031 20307020 0036202b     && p1 == p0 + 6.
8001529c:	65737361 6f697472 6166206e 64656c69     assertion failed
800152ac:	6150203a 72506567 7265706f 70287974     : PageProperty(p
800152bc:	26202930 30702026 72703e2d 7265706f     0) && p0->proper
800152cc:	3d207974 0031203d 65737361 6f697472     ty == 1.assertio
800152dc:	6166206e 64656c69 6150203a 72506567     n failed: PagePr
800152ec:	7265706f 70287974 202b2030 26202932     operty(p0 + 2) &
800152fc:	30702026 2e5d325b 706f7270 79747265     & p0[2].property
8001530c:	203d3d20 00000030 65737361 6f697472      == 0...assertio
8001531c:	6166206e 64656c69 7028203a 203d2030     n failed: (p0 = 
8001532c:	6f6c6c61 61705f63 28736567 20292936     alloc_pages(6)) 
8001533c:	4e203d21 004c4c55 65737361 6f697472     != NULL.assertio
8001534c:	6166206e 64656c69 7028203a 203d2031     n failed: (p1 = 
8001535c:	6f6c6c61 61705f63 28736567 20292932     alloc_pages(2)) 
8001536c:	4e203d21 004c4c55 65737361 6f697472     != NULL.assertio
8001537c:	6166206e 64656c69 6150203a 72506567     n failed: PagePr
8001538c:	7265706f 70287974 26202931 31702026     operty(p1) && p1
8001539c:	72703e2d 7265706f 3d207974 0032203d     ->property == 2.
800153ac:	65737361 6f697472 6166206e 64656c69     assertion failed
800153bc:	7028203a 203d2030 6f6c6c61 61705f63     : (p0 = alloc_pa
800153cc:	28736567 20292938 4e203d21 004c4c55     ges(8)) != NULL.
800153dc:	65737361 6f697472 6166206e 64656c69     assertion failed
800153ec:	6c61203a 5f636f6c 65676170 3d202928     : alloc_page() =
800153fc:	554e203d 26204c4c 726e2026 6572665f     = NULL && nr_fre
8001540c:	61705f65 28736567 3d3d2029 00003020     e_pages() == 0..
8001541c:	65737361 6f697472 6166206e 64656c69     assertion failed
8001542c:	6f63203a 20746e75 30203d3d 00000000     : count == 0....
8001543c:	65737361 6f697472 6166206e 64656c69     assertion failed
8001544c:	6f74203a 206c6174 30203d3d 00000000     : total == 0....
8001545c:	65737361 6f697472 6166206e 64656c69     assertion failed
8001546c:	7028203a 5f656761 20786469 28282026     : (page_idx & ((
8001547c:	3c3c2031 64726f20 20297265 2931202d     1 << order) - 1)
8001548c:	3d3d2029 00003020 65737361 6f697472     ) == 0..assertio
8001549c:	6166206e 64656c69 5021203a 52656761     n failed: !PageR
800154ac:	72657365 28646576 26202970 50212026     eserved(p) && !P
800154bc:	50656761 65706f72 28797472 00002970     ageProperty(p)..
800154cc:	65737361 6f697472 6166206e 64656c69     assertion failed
800154dc:	726f203a 20726564 4d203d3c 4f5f5841     : order <= MAX_O
800154ec:	52454452 00000000 64647562 6d705f79     RDER....buddy_pm
800154fc:	616d5f6d 6567616e 00000072 6e72656b     m_manager...kern
8001550c:	2f6d6d2f 2e6d6d70 00000068 4444414b     /mm/pmm.h...KADD
8001551c:	61632052 64656c6c 74697720 6e692068     R called with in
8001552c:	696c6176 61702064 38302520 0000786c     valid pa %08lx..
8001553c:	44444150 61632052 64656c6c 74697720     PADDR called wit
8001554c:	6e692068 696c6176 766b2064 30252061     h invalid kva %0
8001555c:	00786c38 70326170 20656761 6c6c6163     8lx.pa2page call
8001556c:	77206465 20687469 61766e69 2064696c     ed with invalid 
8001557c:	00006170 6e72656b 2f6d6d2f 6c616d6b     pa..kern/mm/kmal
8001558c:	2e636f6c 00000063 20746f6e 6c732061     loc.c...not a sl
8001559c:	70206261 20656761 78383025 0000000a     ab page %08x....
800155ac:	65737361 6f697472 6166206e 64656c69     assertion failed
800155bc:	6150203a 6c536567 70286261 00000029     : PageSlab(p)...
800155cc:	6e756f66 0a213264 00000000 5f66666f     found2!.....off_
800155dc:	62616c73 626f203a 7a69736a 203d2065     slab: objsize = 
800155ec:	202c6425 206d756e 3025203d 6f207838     %d, num = %08x o
800155fc:	735f6666 5f62616c 696d696c 203d2074     ff_slab_limit = 
8001560c:	78383025 0000002e 636c6163 74616c75     %08x....calculat
8001561c:	6c735f65 6f5f6261 3a726576 69616620     e_slab_over: fai
8001562c:	2e64656c 00000000 6c616d6b 5f636f6c     led.....kmalloc_
8001563c:	74696e69 73202928 65636375 64656465     init() succeeded
8001564c:	00000a21 65737361 6f697472 6166206e     !...assertion fa
8001565c:	64656c69 6973203a 3e20657a 00003020     iled: size > 0..
8001566c:	32657470 65676170 6c616320 2064656c     pte2page called 
8001567c:	68746977 766e6920 64696c61 65747020     with invalid pte
8001568c:	00000000 6e72656b 2f6d6d2f 2e6d6d70     ....kern/mm/pmm.
8001569c:	00000063 73206f4e 21706177 656e2021     c...No swap!! ne
800156ac:	20726576 63616572 00212168 2d2d2d2d     ver reach!!.----
800156bc:	2d2d2d2d 2d2d2d2d 2d2d2d2d 2d2d2d2d     ----------------
800156cc:	47454220 2d204e49 2d2d2d2d 2d2d2d2d      BEGIN ---------
800156dc:	2d2d2d2d 2d2d2d2d 0a2d2d2d 00000000     -----------.....
800156ec:	28454450 00000000 00002029 0000002d     PDE(....) ..-...
800156fc:	2d7c2020 5450202d 00002845 2d2d2d2d       |-- PTE(..----
8001570c:	2d2d2d2d 2d2d2d2d 2d2d2d2d 2d2d2d2d     ----------------
8001571c:	4e45202d 2d2d2044 2d2d2d2d 2d2d2d2d     - END ----------
8001572c:	2d2d2d2d 2d2d2d2d 0a2d2d2d 00000000     -----------.....
8001573c:	6f6d656d 6d207972 67616e61 6e656d65     memory managemen
8001574c:	00203a74 6f6d656d 6d207972 0a3a7061     t: .memory map:.
8001575c:	00000000 20202020 0000005b 0000202c     ....    [..., ..
8001576c:	000a0a5d 20646e65 7825203d 0000000a     ]...end = %x....
8001577c:	65657266 206d656d 72617473 74612074     freemem start at
8001578c:	0000203a 65737361 6f697472 6166206e     : ..assertion fa
8001579c:	64656c69 626d203a 6e696765 6d203c20     iled: mbegin < m
800157ac:	00646e65 65657266 67617020 203a7365     end.free pages: 
800157bc:	00000000 00202323 63656863 6c615f6b     ....## .check_al
800157cc:	5f636f6c 65676170 73202928 65636375     loc_page() succe
800157dc:	64656465 00000a21 746f6f62 6c6c615f     eded!...boot_all
800157ec:	705f636f 20656761 6c696166 0a2e6465     oc_page failed..
800157fc:	00000000 65737361 6f697472 6166206e     ....assertion fa
8001580c:	64656c69 706e203a 20656761 4b203d3c     iled: npage <= K
8001581c:	534d454d 20455a49 4750202f 455a4953     MEMSIZE / PGSIZE
8001582c:	00000000 65737361 6f697472 6166206e     ....assertion fa
8001583c:	64656c69 6f62203a 705f746f 72696467     iled: boot_pgdir
8001584c:	203d2120 4c4c554e 20262620 6e697528      != NULL && (uin
8001585c:	5f323374 47502974 2846464f 746f6f62     t32_t)PGOFF(boot
8001586c:	6467705f 20297269 30203d3d 00000000     _pgdir) == 0....
8001587c:	65737361 6f697472 6166206e 64656c69     assertion failed
8001588c:	6567203a 61705f74 62286567 5f746f6f     : get_page(boot_
8001589c:	69646770 30202c72 202c3078 4c4c554e     pgdir, 0x0, NULL
800158ac:	3d3d2029 4c554e20 0000004c 65737361     ) == NULL...asse
800158bc:	6f697472 6166206e 64656c69 6170203a     rtion failed: pa
800158cc:	695f6567 7265736e 6f622874 705f746f     ge_insert(boot_p
800158dc:	72696467 3170202c 7830202c 30202c30     gdir, p1, 0x0, 0
800158ec:	3d3d2029 00003020 65737361 6f697472     ) == 0..assertio
800158fc:	6166206e 64656c69 7028203a 20706574     n failed: (ptep 
8001590c:	6567203d 74705f74 6f622865 705f746f     = get_pte(boot_p
8001591c:	72696467 7830202c 30202c30 21202929     gdir, 0x0, 0)) !
8001592c:	554e203d 00004c4c 65737361 6f697472     = NULL..assertio
8001593c:	6166206e 64656c69 6170203a 67617032     n failed: pa2pag
8001594c:	702a2865 29706574 203d3d20 00003170     e(*ptep) == p1..
8001595c:	65737361 6f697472 6166206e 64656c69     assertion failed
8001596c:	6170203a 725f6567 70286665 3d202931     : page_ref(p1) =
8001597c:	0031203d 65737361 6f697472 6166206e     = 1.assertion fa
8001598c:	64656c69 6567203a 74705f74 6f622865     iled: get_pte(bo
8001599c:	705f746f 72696467 4750202c 455a4953     ot_pgdir, PGSIZE
800159ac:	2930202c 203d3d20 70657470 00000000     , 0) == ptep....
800159bc:	65737361 6f697472 6166206e 64656c69     assertion failed
800159cc:	6170203a 695f6567 7265736e 6f622874     : page_insert(bo
800159dc:	705f746f 72696467 3270202c 4750202c     ot_pgdir, p2, PG
800159ec:	455a4953 5450202c 20555f45 5450207c     SIZE, PTE_U | PT
800159fc:	29575f45 203d3d20 00000030 65737361     E_W) == 0...asse
80015a0c:	6f697472 6166206e 64656c69 7028203a     rtion failed: (p
80015a1c:	20706574 6567203d 74705f74 6f622865     tep = get_pte(bo
80015a2c:	705f746f 72696467 4750202c 455a4953     ot_pgdir, PGSIZE
80015a3c:	2930202c 3d212029 4c554e20 0000004c     , 0)) != NULL...
80015a4c:	65737361 6f697472 6166206e 64656c69     assertion failed
80015a5c:	702a203a 20706574 54502026 00555f45     : *ptep & PTE_U.
80015a6c:	65737361 6f697472 6166206e 64656c69     assertion failed
80015a7c:	702a203a 20706574 54502026 00575f45     : *ptep & PTE_W.
80015a8c:	65737361 6f697472 6166206e 64656c69     assertion failed
80015a9c:	6f62203a 705f746f 72696467 205d305b     : boot_pgdir[0] 
80015aac:	54502026 00555f45 65737361 6f697472     & PTE_U.assertio
80015abc:	6166206e 64656c69 6170203a 725f6567     n failed: page_r
80015acc:	70286665 3d202932 0031203d 65737361     ef(p2) == 1.asse
80015adc:	6f697472 6166206e 64656c69 6170203a     rtion failed: pa
80015aec:	695f6567 7265736e 6f622874 705f746f     ge_insert(boot_p
80015afc:	72696467 3170202c 4750202c 455a4953     gdir, p1, PGSIZE
80015b0c:	2930202c 203d3d20 00000030 65737361     , 0) == 0...asse
80015b1c:	6f697472 6166206e 64656c69 6170203a     rtion failed: pa
80015b2c:	725f6567 70286665 3d202931 0032203d     ge_ref(p1) == 2.
80015b3c:	65737361 6f697472 6166206e 64656c69     assertion failed
80015b4c:	6170203a 725f6567 70286665 3d202932     : page_ref(p2) =
80015b5c:	0030203d 65737361 6f697472 6166206e     = 0.assertion fa
80015b6c:	64656c69 2a28203a 70657470 50202620     iled: (*ptep & P
80015b7c:	555f4554 3d3d2029 00003020 65737361     TE_U) == 0..asse
80015b8c:	6f697472 6166206e 64656c69 6170203a     rtion failed: pa
80015b9c:	725f6567 70286665 3d202931 0030203d     ge_ref(p1) == 0.
80015bac:	65737361 6f697472 6166206e 64656c69     assertion failed
80015bbc:	6170203a 725f6567 70286665 61703261     : page_ref(pa2pa
80015bcc:	62286567 5f746f6f 69646770 5d305b72     ge(boot_pgdir[0]
80015bdc:	3d202929 0031203d 63656863 67705f6b     )) == 1.check_pg
80015bec:	28726964 75732029 65656363 21646564     dir() succeeded!
80015bfc:	0000000a 65737361 6f697472 6166206e     ....assertion fa
80015c0c:	64656c69 6f62203a 705f746f 72696467     iled: boot_pgdir
80015c1c:	205d305b 30203d3d 00000000 65737361     [0] == 0....asse
80015c2c:	6f697472 6166206e 64656c69 6170203a     rtion failed: pa
80015c3c:	695f6567 7265736e 6f622874 705f746f     ge_insert(boot_p
80015c4c:	72696467 2c70202c 31783020 202c3030     gdir, p, 0x100, 
80015c5c:	5f455450 3d202957 0030203d 65737361     PTE_W) == 0.asse
80015c6c:	6f697472 6166206e 64656c69 6170203a     rtion failed: pa
80015c7c:	725f6567 70286665 3d3d2029 00003120     ge_ref(p) == 1..
80015c8c:	65737361 6f697472 6166206e 64656c69     assertion failed
80015c9c:	6170203a 695f6567 7265736e 6f622874     : page_insert(bo
80015cac:	705f746f 72696467 2c70202c 31783020     ot_pgdir, p, 0x1
80015cbc:	2b203030 53475020 2c455a49 45545020     00 + PGSIZE, PTE
80015ccc:	2029575f 30203d3d 00000000 65737361     _W) == 0....asse
80015cdc:	6f697472 6166206e 64656c69 6170203a     rtion failed: pa
80015cec:	725f6567 70286665 3d3d2029 00003220     ge_ref(p) == 2..
80015cfc:	65737361 6f697472 6166206e 64656c69     assertion failed
80015d0c:	282a203a 2a746e69 31783029 3d203030     : *(int*)0x100 =
80015d1c:	7830203d 34333231 00000000 726f6375     = 0x1234....ucor
80015d2c:	48203a65 6f6c6c65 726f7720 2121646c     e: Hello world!!
80015d3c:	00000000 65737361 6f697472 6166206e     ....assertion fa
80015d4c:	64656c69 7473203a 706d6372 6f762828     iled: strcmp((vo
80015d5c:	2a206469 31783029 202c3030 696f7628     id *)0x100, (voi
80015d6c:	292a2064 31783028 2b203030 53475020     d *)(0x100 + PGS
80015d7c:	29455a49 3d3d2029 00003020 65737361     IZE)) == 0..asse
80015d8c:	6f697472 6166206e 64656c69 7473203a     rtion failed: st
80015d9c:	6e656c72 6f632828 2074736e 72616863     rlen((const char
80015dac:	30292a20 30303178 3d3d2029 00003020      *)0x100) == 0..
80015dbc:	63656863 6f625f6b 705f746f 72696467     check_boot_pgdir
80015dcc:	73202928 65636375 64656465 00000a21     () succeeded!...
80015ddc:	65737361 6f697472 6166206e 64656c69     assertion failed
80015dec:	7473203a 20747261 47502025 455a4953     : start % PGSIZE
80015dfc:	203d3d20 26262030 646e6520 50202520      == 0 && end % P
80015e0c:	5a495347 3d3d2045 00003020 65737361     GSIZE == 0..asse
80015e1c:	6f697472 6166206e 64656c69 5355203a     rtion failed: US
80015e2c:	415f5245 53454343 74732853 2c747261     ER_ACCESS(start,
80015e3c:	646e6520 00000029 65737361 6f697472      end)...assertio
80015e4c:	6166206e 64656c69 6170203a 3d216567     n failed: page!=
80015e5c:	4c4c554e 00000000 65737361 6f697472     NULL....assertio
80015e6c:	6166206e 64656c69 706e203a 21656761     n failed: npage!
80015e7c:	4c554e3d 0000004c 6e72656b 2f6d6d2f     =NULL...kern/mm/
80015e8c:	2e6d6d76 00000063 65737361 6f697472     vmm.c...assertio
80015e9c:	6166206e 64656c69 6d76203a 763e2d61     n failed: vma->v
80015eac:	74735f6d 20747261 6d76203c 763e2d61     m_start < vma->v
80015ebc:	6e655f6d 00000064 65737361 6f697472     m_end...assertio
80015ecc:	6166206e 64656c69 7270203a 3e2d7665     n failed: prev->
80015edc:	735f6d76 74726174 70203c20 2d766572     vm_start < prev-
80015eec:	5f6d763e 00646e65 65737361 6f697472     >vm_end.assertio
80015efc:	6166206e 64656c69 7270203a 3e2d7665     n failed: prev->
80015f0c:	655f6d76 3c20646e 656e203d 3e2d7478     vm_end <= next->
80015f1c:	735f6d76 74726174 00000000 65737361     vm_start....asse
80015f2c:	6f697472 6166206e 64656c69 656e203a     rtion failed: ne
80015f3c:	3e2d7478 735f6d76 74726174 6e203c20     xt->vm_start < n
80015f4c:	2d747865 5f6d763e 00646e65 65737361     ext->vm_end.asse
80015f5c:	6f697472 6166206e 64656c69 6d6d203a     rtion failed: mm
80015f6c:	756f635f 6d28746e 3d20296d 0030203d     _count(mm) == 0.
80015f7c:	65737361 6f697472 6166206e 64656c69     assertion failed
80015f8c:	6d6d203a 203d2120 4c4c554e 00000000     : mm != NULL....
80015f9c:	65737361 6f697472 6166206e 64656c69     assertion failed
80015fac:	6f74203a 203d2120 4c4c554e 20262620     : to != NULL && 
80015fbc:	6d6f7266 203d2120 4c4c554e 00000000     from != NULL....
80015fcc:	65737361 6f697472 6166206e 64656c69     assertion failed
80015fdc:	6d6d203a 203d2120 4c4c554e 20262620     : mm != NULL && 
80015fec:	635f6d6d 746e756f 296d6d28 203d3d20     mm_count(mm) == 
80015ffc:	00000030 65737361 6f697472 6166206e     0...assertion fa
8001600c:	64656c69 6d76203a 3d212061 4c554e20     iled: vma != NUL
8001601c:	0000004c 65737361 6f697472 6166206e     L...assertion fa
8001602c:	64656c69 656c203a 203d2120 6d6d2826     iled: le != &(mm
8001603c:	6d6d3e2d 6c5f7061 29747369 00000000     ->mmap_list)....
8001604c:	65737361 6f697472 6166206e 64656c69     assertion failed
8001605c:	6d6d203a 3e2d7061 735f6d76 74726174     : mmap->vm_start
8001606c:	203d3d20 202a2069 26262035 616d6d20      == i * 5 && mma
8001607c:	763e2d70 6e655f6d 3d3d2064 2a206920     p->vm_end == i *
8001608c:	2b203520 00003220 65737361 6f697472      5 + 2..assertio
8001609c:	6166206e 64656c69 6d76203a 763e2d61     n failed: vma->v
800160ac:	74735f6d 20747261 6a203d3d 35202a20     m_start == j * 5
800160bc:	20262620 2d616d76 5f6d763e 20646e65      && vma->vm_end 
800160cc:	6a203d3d 35202a20 32202b20 00000000     == j * 5 + 2....
800160dc:	65737361 6f697472 6166206e 64656c69     assertion failed
800160ec:	726e203a 6572665f 61705f65 5f736567     : nr_free_pages_
800160fc:	726f7473 3d3d2065 5f726e20 65657266     store == nr_free
8001610c:	6761705f 29287365 00000000 63656863     _pages()....chec
8001611c:	6d765f6b 74735f61 74637572 73202928     k_vma_struct() s
8001612c:	65636375 64656465 00000a21 65737361     ucceeded!...asse
8001613c:	6f697472 6166206e 64656c69 6863203a     rtion failed: ch
8001614c:	5f6b6365 735f6d6d 63757274 3d212074     eck_mm_struct !=
8001615c:	4c554e20 0000004c 65737361 6f697472      NULL...assertio
8001616c:	6166206e 64656c69 6770203a 5b726964     n failed: pgdir[
8001617c:	3d205d30 0030203d 65737361 6f697472     0] == 0.assertio
8001618c:	6166206e 64656c69 6966203a 765f646e     n failed: find_v
8001619c:	6d28616d 61202c6d 29726464 203d3d20     ma(mm, addr) == 
800161ac:	00616d76 65737361 6f697472 6166206e     vma.assertion fa
800161bc:	64656c69 7573203a 3d3d206d 00003020     iled: sum == 0..
800161cc:	63656863 67705f6b 6c756166 20292874     check_pgfault() 
800161dc:	63637573 65646565 000a2164 63656863     succeeded!..chec
800161ec:	6d765f6b 2029286d 63637573 65646565     k_vmm() succeede
800161fc:	000a2e64 20746f6e 696c6176 64612064     d...not valid ad
8001620c:	25207264 61202c78 2020646e 206e6163     dr %x, and  can 
8001621c:	20746f6e 646e6966 20746920 76206e69     not find it in v
8001622c:	000a616d 74697277 6e202c65 7020746f     ma..write, not p
8001623c:	65736572 6920746e 6f64206e 6667705f     resent in do_pgf
8001624c:	746c7561 69616620 0a64656c 00000000     ault failed.....
8001625c:	64616572 7270202c 6e657365 6e692074     read, present in
8001626c:	5f6f6420 61666770 20746c75 6c696166      do_pgfault fail
8001627c:	000a6465 64616572 6f6e202c 72702074     ed..read, not pr
8001628c:	6e657365 6e692074 5f6f6420 61666770     esent in do_pgfa
8001629c:	20746c75 6c696166 000a6465 73206f6e     ult failed..no s
800162ac:	5f706177 74696e69 206b6f5f 20747562     wap_init_ok but 
800162bc:	70657470 20736920 202c7825 6c696166     ptep is %x, fail
800162cc:	000a6465 6e72656b 6e79732f 65732f63     ed..kern/sync/se
800162dc:	00632e6d 65737361 6f697472 6166206e     m.c.assertion fa
800162ec:	64656c69 6177203a 3e2d7469 636f7270     iled: wait->proc
800162fc:	61773e2d 735f7469 65746174 203d3d20     ->wait_state == 
8001630c:	74696177 6174735f 00006574 65737361     wait_state..asse
8001631c:	6f697472 6166206e 64656c69 6c66203a     rtion failed: fl
8001632c:	20736761 30203d3d 00000000 6e72656b     ags == 0....kern
8001633c:	6e79732f 61772f63 632e7469 00000000     /sync/wait.c....
8001634c:	65737361 6f697472 6166206e 64656c69     assertion failed
8001635c:	696c203a 655f7473 7974706d 77282628     : list_empty(&(w
8001636c:	2d746961 6961773e 696c5f74 29296b6e     ait->wait_link))
8001637c:	20262620 74696177 72703e2d 2120636f      && wait->proc !
8001638c:	554e203d 00004c4c 65737361 6f697472     = NULL..assertio
8001639c:	6166206e 64656c69 6c21203a 5f747369     n failed: !list_
800163ac:	74706d65 28262879 74696177 61773e2d     empty(&(wait->wa
800163bc:	6c5f7469 296b6e69 26262029 69617720     it_link)) && wai
800163cc:	773e2d74 5f746961 75657571 3d3d2065     t->wait_queue ==
800163dc:	65757120 00006575 65737361 6f697472      queue..assertio
800163ec:	6166206e 64656c69 7563203a 6e657272     n failed: curren
800163fc:	3d212074 4c554e20 0000004c 00006873     t != NULL...sh..
8001640c:	6e72656b 655f6c65 76636578 70203a65     kernel_execve: p
8001641c:	3d206469 2c642520 6d616e20 203d2065     id = %d, name = 
8001642c:	22732522 00000a2e 6e72656b 6f72702f     "%s"....kern/pro
8001643c:	73736563 6f72702f 00632e63 72657375     cess/proc.c.user
8001644c:	69616d5f 7865206e 65766365 69616620     _main execve fai
8001645c:	2e64656c 0000000a 66737973 5f656c69     led.....sysfile_
8001646c:	6b656573 69616620 0a64656c 00000000     seek failed.....
8001647c:	66737973 5f656c69 64616572 69616620     sysfile_read fai
8001648c:	0a64656c 00000000 65737361 6f697472     led.....assertio
8001649c:	6166206e 64656c69 6c6f203a 73665f64     n failed: old_fs
800164ac:	7274735f 20746375 4e203d21 004c4c55     _struct != NULL.
800164bc:	656c6469 636f7270 69786520 000a2e74     idleproc exit...
800164cc:	74696e69 636f7270 69786520 000a2e74     initproc exit...
800164dc:	655f6f64 20746978 6c6c6977 746f6e20     do_exit will not
800164ec:	74657220 216e7275 64252021 00000a2e      return!! %d....
800164fc:	6c756e3c 25203e6c 00000064 66737973     <null> %d...sysf
8001650c:	5f656c69 6e65706f 69616620 0a64656c     ile_open failed.
8001651c:	00000000 000a7325 64616f6c 6f63695f     ....%s..load_ico
8001652c:	203a6564 72727563 2d746e65 206d6d3e     de: current->mm 
8001653c:	7473756d 20656220 74706d65 000a2e79     must be empty...
8001654c:	65737361 6f697472 6166206e 64656c69     assertion failed
8001655c:	6528203a 3c20646e 20616c20 73202626     : (end < la && s
8001656c:	74726174 203d3d20 29646e65 207c7c20     tart == end) || 
8001657c:	646e6528 203d3e20 2620616c 74732026     (end >= la && st
8001658c:	20747261 6c203d3d 00002961 64616f6c     art == la)..load
8001659c:	6f63695f 66206564 656c6961 00000a64     _icode failed...
800165ac:	65737361 6f697472 6166206e 64656c69     assertion failed
800165bc:	7563203a 6e657272 00000074 74696177     : current...wait
800165cc:	6c646920 6f727065 726f2063 696e6920      idleproc or ini
800165dc:	6f727074 000a2e63 6b736964 00003a30     tproc...disk0:..
800165ec:	20746573 746f6f62 20736620 6c696166     set boot fs fail
800165fc:	203a6465 0a2e6525 00000000 61657263     ed: %e......crea
8001660c:	75206574 5f726573 6e69616d 69616620     te user_main fai
8001661c:	2e64656c 0000000a 206c6c61 72657375     led.....all user
8001662c:	646f6d2d 72702065 7365636f 20736573     -mode processes 
8001663c:	65766168 69757120 000a2e74 65737361     have quit...asse
8001664c:	6f697472 6166206e 64656c69 6e69203a     rtion failed: in
8001665c:	72707469 3e2d636f 72747063 203d3d20     itproc->cptr == 
8001666c:	4c4c554e 20262620 74696e69 636f7270     NULL && initproc
8001667c:	70793e2d 3d207274 554e203d 26204c4c     ->yptr == NULL &
8001668c:	6e692026 72707469 3e2d636f 7274706f     & initproc->optr
8001669c:	203d3d20 4c4c554e 00000000 65737361      == NULL....asse
800166ac:	6f697472 6166206e 64656c69 726e203a     rtion failed: nr
800166bc:	6f72705f 73736563 203d3d20 00000032     _process == 2...
800166cc:	65737361 6f697472 6166206e 64656c69     assertion failed
800166dc:	696c203a 6e5f7473 28747865 6f727026     : list_next(&pro
800166ec:	696c5f63 20297473 26203d3d 696e6928     c_list) == &(ini
800166fc:	6f727074 6c3e2d63 5f747369 6b6e696c     tproc->list_link
8001670c:	00000029 65737361 6f697472 6166206e     )...assertion fa
8001671c:	64656c69 696c203a 705f7473 28766572     iled: list_prev(
8001672c:	6f727026 696c5f63 20297473 26203d3d     &proc_list) == &
8001673c:	696e6928 6f727074 6c3e2d63 5f747369     (initproc->list_
8001674c:	6b6e696c 00000029 65737361 6f697472     link)...assertio
8001675c:	6166206e 64656c69 6c73203a 615f6261     n failed: slab_a
8001676c:	636f6c6c 64657461 6f74735f 3d206572     llocated_store =
8001677c:	616b203d 636f6c6c 64657461 00002928     = kallocated()..
8001678c:	74696e69 65686320 6d206b63 726f6d65     init check memor
8001679c:	61702079 0a2e7373 00000000 6e6e6163     y pass......cann
800167ac:	6120746f 636f6c6c 6c646920 6f727065     ot alloc idlepro
800167bc:	000a2e63 61657263 66206574 74735f73     c...create fs_st
800167cc:	74637572 64692820 7270656c 2029636f     ruct (idleproc) 
800167dc:	6c696166 0a2e6465 00000000 656c6469     failed......idle
800167ec:	00000000 61657263 69206574 5f74696e     ....create init_
800167fc:	6e69616d 69616620 2e64656c 0000000a     main failed.....
8001680c:	74696e69 00000000 65737361 6f697472     init....assertio
8001681c:	6166206e 64656c69 6469203a 7270656c     n failed: idlepr
8001682c:	2120636f 554e203d 26204c4c 64692026     oc != NULL && id
8001683c:	7270656c 3e2d636f 20646970 30203d3d     leproc->pid == 0
8001684c:	00000000 65737361 6f697472 6166206e     ....assertion fa
8001685c:	64656c69 6e69203a 72707469 2120636f     iled: initproc !
8001686c:	554e203d 26204c4c 6e692026 72707469     = NULL && initpr
8001687c:	3e2d636f 20646970 31203d3d 00000000     oc->pid == 1....
8001688c:	6e72656b 6863732f 6c756465 65642f65     kern/schedule/de
8001689c:	6c756166 63735f74 2e646568 00000063     fault_sched.c...
800168ac:	65737361 6f697472 6166206e 64656c69     assertion failed
800168bc:	6c21203a 5f747369 74706d65 28262879     : !list_empty(&(
800168cc:	636f7270 75723e2d 696c5f6e 29296b6e     proc->run_link))
800168dc:	20262620 636f7270 71723e2d 203d3d20      && proc->rq == 
800168ec:	00007172 65737361 6f697472 6166206e     rq..assertion fa
800168fc:	64656c69 696c203a 655f7473 7974706d     iled: list_empty
8001690c:	70282628 2d636f72 6e75723e 6e696c5f     (&(proc->run_lin
8001691c:	0029296b 735f5252 64656863 72656c75     k)).RR_scheduler
8001692c:	00000000 65686373 6c632064 3a737361     ....sched class:
8001693c:	0a732520 00000000 6e72656b 6863732f      %s.....kern/sch
8001694c:	6c756465 63732f65 2e646568 00000063     edule/sched.c...
8001695c:	65737361 6f697472 6166206e 64656c69     assertion failed
8001696c:	7270203a 3e2d636f 74617473 3d212065     : proc->state !=
8001697c:	4f525020 4f5a5f43 4549424d 00000000      PROC_ZOMBIE....
8001698c:	656b6177 72207075 616e6e75 20656c62     wakeup runnable 
8001699c:	636f7270 2e737365 0000000a 65737361     process.....asse
800169ac:	6f697472 6166206e 64656c69 6974203a     rtion failed: ti
800169bc:	2d72656d 7078653e 73657269 30203e20     mer->expires > 0
800169cc:	20262620 656d6974 703e2d72 20636f72      && timer->proc 
800169dc:	4e203d21 004c4c55 65737361 6f697472     != NULL.assertio
800169ec:	6166206e 64656c69 696c203a 655f7473     n failed: list_e
800169fc:	7974706d 74282628 72656d69 69743e2d     mpty(&(timer->ti
80016a0c:	5f72656d 6b6e696c 00002929 65737361     mer_link))..asse
80016a1c:	6f697472 6166206e 64656c69 6974203a     rtion failed: ti
80016a2c:	2d72656d 7078653e 73657269 203d2120     mer->expires != 
80016a3c:	00000030 65737361 6f697472 6166206e     0...assertion fa
80016a4c:	64656c69 7270203a 3e2d636f 74696177     iled: proc->wait
80016a5c:	6174735f 26206574 5f545720 45544e49     _state & WT_INTE
80016a6c:	50555252 00444554 636f7270 20737365     RRUPTED.process 
80016a7c:	73276425 69617720 74735f74 20657461     %d's wait_state 
80016a8c:	30203d3d 00000a2e 6e72656b 7379732f     == 0....kern/sys
80016a9c:	6c6c6163 7379732f 6c6c6163 0000632e     call/syscall.c..
80016aac:	65646e75 656e6966 79732064 6c616373     undefined syscal
80016abc:	6425206c 6970202c 203d2064 202c6425     l %d, pid = %d, 
80016acc:	656d616e 25203d20 000a2e73 6e72656b     name = %s...kern
80016adc:	2f73662f 656c6966 0000632e 65737361     /fs/file.c..asse
80016aec:	6f697472 6166206e 64656c69 7366203a     rtion failed: fs
80016afc:	7274735f 20746375 4e203d21 004c4c55     _struct != NULL.
80016b0c:	65737361 6f697472 6166206e 64656c69     assertion failed
80016b1c:	7366203a 756f635f 6628746e 74735f73     : fs_count(fs_st
80016b2c:	74637572 203e2029 00000030 65737361     ruct) > 0...asse
80016b3c:	6f697472 6166206e 64656c69 6f66203a     rtion failed: fo
80016b4c:	5f6e6570 6e756f63 69662874 2029656c     pen_count(file) 
80016b5c:	30203d3d 00000000 65737361 6f697472     == 0....assertio
80016b6c:	6166206e 64656c69 6966203a 3e2d656c     n failed: file->
80016b7c:	74617473 3d207375 4446203d 494e495f     status == FD_INI
80016b8c:	7c7c2054 6c696620 733e2d65 75746174     T || file->statu
80016b9c:	3d3d2073 5f444620 534f4c43 00004445     s == FD_CLOSED..
80016bac:	65737361 6f697472 6166206e 64656c69     assertion failed
80016bbc:	6966203a 3e2d656c 74617473 3d207375     : file->status =
80016bcc:	4446203d 45504f5f 0044454e 65737361     = FD_OPENED.asse
80016bdc:	6f697472 6166206e 64656c69 6966203a     rtion failed: fi
80016bec:	3e2d656c 74617473 3d207375 4446203d     le->status == FD
80016bfc:	45504f5f 2044454e 66207c7c 2d656c69     _OPENED || file-
80016c0c:	6174733e 20737574 46203d3d 4c435f44     >status == FD_CL
80016c1c:	4445534f 00000000 65737361 6f697472     OSED....assertio
80016c2c:	6166206e 64656c69 6f66203a 5f6e6570     n failed: fopen_
80016c3c:	6e756f63 69662874 2029656c 0030203e     count(file) > 0.
80016c4c:	65737361 6f697472 6166206e 64656c69     assertion failed
80016c5c:	6966203a 3e2d656c 74617473 3d207375     : file->status =
80016c6c:	4446203d 494e495f 26262054 6c696620     = FD_INIT && fil
80016c7c:	6e3e2d65 2065646f 4e203d21 004c4c55     e->node != NULL.
80016c8c:	65737361 6f697472 6166206e 64656c69     assertion failed
80016c9c:	6f74203a 74733e2d 73757461 203d3d20     : to->status == 
80016cac:	495f4446 2054494e 66202626 2d6d6f72     FD_INIT && from-
80016cbc:	6174733e 20737574 46203d3d 504f5f44     >status == FD_OP
80016ccc:	44454e45 00000000 65737361 6f697472     ENED....assertio
80016cdc:	6166206e 64656c69 5f5f203a 65646f6e     n failed: __node
80016cec:	203d2120 4c4c554e 20262620 6f6e5f5f      != NULL && __no
80016cfc:	3e2d6564 6f5f6e69 21207370 554e203d     de->in_ops != NU
80016d0c:	26204c4c 5f5f2026 65646f6e 6e693e2d     LL && __node->in
80016d1c:	73706f5f 6f763e2d 73665f70 20746174     _ops->vop_fstat 
80016d2c:	4e203d21 004c4c55 61747366 00000074     != NULL.fstat...
80016d3c:	65737361 6f697472 6166206e 64656c69     assertion failed
80016d4c:	5f5f203a 65646f6e 203d2120 4c4c554e     : __node != NULL
80016d5c:	20262620 6f6e5f5f 3e2d6564 6f5f6e69      && __node->in_o
80016d6c:	21207370 554e203d 26204c4c 5f5f2026     ps != NULL && __
80016d7c:	65646f6e 6e693e2d 73706f5f 6f763e2d     node->in_ops->vo
80016d8c:	65725f70 21206461 554e203d 00004c4c     p_read != NULL..
80016d9c:	64616572 00000000 65737361 6f697472     read....assertio
80016dac:	6166206e 64656c69 5f5f203a 65646f6e     n failed: __node
80016dbc:	203d2120 4c4c554e 20262620 6f6e5f5f      != NULL && __no
80016dcc:	3e2d6564 6f5f6e69 21207370 554e203d     de->in_ops != NU
80016ddc:	26204c4c 5f5f2026 65646f6e 6e693e2d     LL && __node->in
80016dec:	73706f5f 6f763e2d 72775f70 20657469     _ops->vop_write 
80016dfc:	4e203d21 004c4c55 74697277 00000065     != NULL.write...
80016e0c:	65737361 6f697472 6166206e 64656c69     assertion failed
80016e1c:	5f5f203a 65646f6e 203d2120 4c4c554e     : __node != NULL
80016e2c:	20262620 6f6e5f5f 3e2d6564 6f5f6e69      && __node->in_o
80016e3c:	21207370 554e203d 26204c4c 5f5f2026     ps != NULL && __
80016e4c:	65646f6e 6e693e2d 73706f5f 6f763e2d     node->in_ops->vo
80016e5c:	72745f70 65657379 3d21206b 4c554e20     p_tryseek != NUL
80016e6c:	0000004c 73797274 006b6565 65737361     L...tryseek.asse
80016e7c:	6f697472 6166206e 64656c69 5f5f203a     rtion failed: __
80016e8c:	65646f6e 203d2120 4c4c554e 20262620     node != NULL && 
80016e9c:	6f6e5f5f 3e2d6564 6f5f6e69 21207370     __node->in_ops !
80016eac:	554e203d 26204c4c 5f5f2026 65646f6e     = NULL && __node
80016ebc:	6e693e2d 73706f5f 6f763e2d 73665f70     ->in_ops->vop_fs
80016ecc:	20636e79 4e203d21 004c4c55 6e797366     ync != NULL.fsyn
80016edc:	00000063 65737361 6f697472 6166206e     c...assertion fa
80016eec:	64656c69 5f5f203a 65646f6e 203d2120     iled: __node != 
80016efc:	4c4c554e 20262620 6f6e5f5f 3e2d6564     NULL && __node->
80016f0c:	6f5f6e69 21207370 554e203d 26204c4c     in_ops != NULL &
80016f1c:	5f5f2026 65646f6e 6e693e2d 73706f5f     & __node->in_ops
80016f2c:	6f763e2d 65675f70 72696474 72746e65     ->vop_getdirentr
80016f3c:	3d212079 4c554e20 0000004c 64746567     y != NULL...getd
80016f4c:	6e657269 00797274 6e72656b 2f73662f     irentry.kern/fs/
80016f5c:	632e7366 00000000 65737361 6f697472     fs.c....assertio
80016f6c:	6166206e 64656c69 7366203a 7274735f     n failed: fs_str
80016f7c:	20746375 4e203d21 204c4c55 66202626     uct != NULL && f
80016f8c:	6f635f73 28746e75 735f7366 63757274     s_count(fs_struc
80016f9c:	3d202974 0030203d 65737361 6f697472     t) == 0.assertio
80016fac:	6166206e 64656c69 6966203a 3e2d656c     n failed: file->
80016fbc:	74617473 3d207375 4446203d 4e4f4e5f     status == FD_NON
80016fcc:	00000045 65737361 6f697472 6166206e     E...assertion fa
80016fdc:	64656c69 7366203a 7274735f 20746375     iled: fs_struct 
80016fec:	4e203d21 204c4c55 66202626 6f635f73     != NULL && fs_co
80016ffc:	28746e75 735f7366 63757274 3e202974     unt(fs_struct) >
8001700c:	00003020 65737361 6f697472 6166206e      0..assertion fa
8001701c:	64656c69 7366203a 756f635f 7428746e     iled: fs_count(t
8001702c:	3d20296f 2030203d 66202626 6f635f73     o) == 0 && fs_co
8001703c:	28746e75 6d6f7266 203e2029 00000030     unt(from) > 0...
8001704c:	6e72656b 2f73662f 75626f69 00632e66     kern/fs/iobuf.c.
8001705c:	65737361 6f697472 6166206e 64656c69     assertion failed
8001706c:	6f69203a 693e2d62 65725f6f 20646973     : iob->io_resid 
8001707c:	6e203d3e 00000000 6e72656b 2f73662f     >= n....kern/fs/
8001708c:	66737973 2e656c69 00000063 65737361     sysfile.c...asse
8001709c:	6f697472 6166206e 64656c69 656c203a     rtion failed: le
800170ac:	3d3e206e 656c6120 0000006e 6e72656b     n >= alen...kern
800170bc:	2f73662f 2f736676 646f6e69 00632e65     /fs/vfs/inode.c.
800170cc:	65737361 6f697472 6166206e 64656c69     assertion failed
800170dc:	6e69203a 5f65646f 5f666572 6e756f63     : inode_ref_coun
800170ec:	6f6e2874 20296564 30203d3d 00000000     t(node) == 0....
800170fc:	65737361 6f697472 6166206e 64656c69     assertion failed
8001710c:	6e69203a 5f65646f 6e65706f 756f635f     : inode_open_cou
8001711c:	6e28746e 2965646f 203d3d20 00000030     nt(node) == 0...
8001712c:	65737361 6f697472 6166206e 64656c69     assertion failed
8001713c:	6f6e203a 21206564 554e203d 26204c4c     : node != NULL &
8001714c:	6f6e2026 3e2d6564 6f5f6e69 21207370     & node->in_ops !
8001715c:	554e203d 00004c4c 65737361 6f697472     = NULL..assertio
8001716c:	6166206e 64656c69 6f6e203a 3e2d6564     n failed: node->
8001717c:	6f5f6e69 3e2d7370 5f706f76 6967616d     in_ops->vop_magi
8001718c:	3d3d2063 504f5620 47414d5f 00004349     c == VOP_MAGIC..
8001719c:	65737361 6f697472 6166206e 64656c69     assertion failed
800171ac:	6572203a 6f635f66 20746e75 6f203d3e     : ref_count >= o
800171bc:	5f6e6570 6e756f63 26262074 65706f20     pen_count && ope
800171cc:	6f635f6e 20746e75 30203d3e 00000000     n_count >= 0....
800171dc:	65737361 6f697472 6166206e 64656c69     assertion failed
800171ec:	6572203a 6f635f66 20746e75 414d203c     : ref_count < MA
800171fc:	4e495f58 5f45444f 4e554f43 26262054     X_INODE_COUNT &&
8001720c:	65706f20 6f635f6e 20746e75 414d203c      open_count < MA
8001721c:	4e495f58 5f45444f 4e554f43 00000054     X_INODE_COUNT...
8001722c:	65737361 6f697472 6166206e 64656c69     assertion failed
8001723c:	6e69203a 5f65646f 6e65706f 756f635f     : inode_open_cou
8001724c:	6e28746e 2965646f 30203e20 00000000     nt(node) > 0....
8001725c:	65737361 6f697472 6166206e 64656c69     assertion failed
8001726c:	5f5f203a 65646f6e 203d2120 4c4c554e     : __node != NULL
8001727c:	20262620 6f6e5f5f 3e2d6564 6f5f6e69      && __node->in_o
8001728c:	21207370 554e203d 26204c4c 5f5f2026     ps != NULL && __
8001729c:	65646f6e 6e693e2d 73706f5f 6f763e2d     node->in_ops->vo
800172ac:	6c635f70 2065736f 4e203d21 004c4c55     p_close != NULL.
800172bc:	736f6c63 00000065 3a736676 72617720     close...vfs: war
800172cc:	676e696e 6f76203a 6c635f70 3a65736f     ning: vop_close:
800172dc:	2e652520 0000000a 65737361 6f697472      %e.....assertio
800172ec:	6166206e 64656c69 6e69203a 5f65646f     n failed: inode_
800172fc:	5f666572 6e756f63 6f6e2874 20296564     ref_count(node) 
8001730c:	0030203e 65737361 6f697472 6166206e     > 0.assertion fa
8001731c:	64656c69 5f5f203a 65646f6e 203d2120     iled: __node != 
8001732c:	4c4c554e 20262620 6f6e5f5f 3e2d6564     NULL && __node->
8001733c:	6f5f6e69 21207370 554e203d 26204c4c     in_ops != NULL &
8001734c:	5f5f2026 65646f6e 6e693e2d 73706f5f     & __node->in_ops
8001735c:	6f763e2d 65725f70 69616c63 3d21206d     ->vop_reclaim !=
8001736c:	4c554e20 0000004c 6c636572 006d6961      NULL...reclaim.
8001737c:	3a736676 72617720 676e696e 6f76203a     vfs: warning: vo
8001738c:	65725f70 69616c63 25203a6d 000a2e65     p_reclaim: %e...
8001739c:	6e72656b 2f73662f 2f736676 64736676     kern/fs/vfs/vfsd
800173ac:	632e7665 00000000 65737361 6f697472     ev.c....assertio
800173bc:	6166206e 64656c69 6564203a 6d616e76     n failed: devnam
800173cc:	3d212065 4c554e20 0000004c 65737361     e != NULL...asse
800173dc:	6f697472 6166206e 64656c69 6428203a     rtion failed: (d
800173ec:	6f6e7665 3d206564 554e203d 26204c4c     evnode == NULL &
800173fc:	6d212026 746e756f 656c6261 7c7c2029     & !mountable) ||
8001740c:	65642820 646f6e76 3d212065 4c554e20      (devnode != NUL
8001741c:	2626204c 65686320 695f6b63 65646f6e     L && check_inode
8001742c:	7079745f 65642865 646f6e76 64202c65     _type(devnode, d
8001743c:	63697665 00292965 65737361 6f697472     evice)).assertio
8001744c:	6166206e 64656c69 7366203a 203d2120     n failed: fs != 
8001745c:	4c4c554e 00000000 65737361 6f697472     NULL....assertio
8001746c:	6166206e 64656c69 6476203a 3e2d7665     n failed: vdev->
8001747c:	6e766564 20656d61 4e203d21 204c4c55     devname != NULL 
8001748c:	76202626 2d766564 756f6d3e 6261746e     && vdev->mountab
8001749c:	0000656c 65737361 6f697472 6166206e     le..assertion fa
800174ac:	64656c69 5f5f203a 65646f6e 203d2120     iled: __node != 
800174bc:	4c4c554e 20262620 63656863 6e695f6b     NULL && check_in
800174cc:	5f65646f 65707974 6e5f5f28 2c65646f     ode_type(__node,
800174dc:	76656420 29656369 00000000 65737361      device)....asse
800174ec:	6f697472 6166206e 64656c69 6476203a     rtion failed: vd
800174fc:	3e2d7665 21207366 554e203d 00004c4c     ev->fs != NULL..
8001750c:	3a736676 756f6d20 2520746e 000a2e73     vfs: mount %s...
8001751c:	3a736676 6d6e7520 746e756f 2e732520     vfs: unmount %s.
8001752c:	0000000a 3a736676 72617720 676e696e     ....vfs: warning
8001753c:	7973203a 6620636e 656c6961 6f662064     : sync failed fo
8001754c:	73252072 6525203a 00000a2e 3a736676     r %s: %e....vfs:
8001755c:	72617720 676e696e 6e75203a 6e756f6d      warning: unmoun
8001756c:	61662074 64656c69 726f6620 3a732520     t failed for %s:
8001757c:	2e652520 0000000a 6e72656b 2f73662f      %e.....kern/fs/
8001758c:	2f736676 66736676 2e656c69 00000063     vfs/vfsfile.c...
8001759c:	65737361 6f697472 6166206e 64656c69     assertion failed
800175ac:	5f5f203a 65646f6e 203d2120 4c4c554e     : __node != NULL
800175bc:	20262620 6f6e5f5f 3e2d6564 6f5f6e69      && __node->in_o
800175cc:	21207370 554e203d 26204c4c 5f5f2026     ps != NULL && __
800175dc:	65646f6e 6e693e2d 73706f5f 6f763e2d     node->in_ops->vo
800175ec:	72635f70 65746165 203d2120 4c4c554e     p_create != NULL
800175fc:	00000000 61657263 00006574 65737361     ....create..asse
8001760c:	6f697472 6166206e 64656c69 6f6e203a     rtion failed: no
8001761c:	21206564 554e203d 00004c4c 65737361     de != NULL..asse
8001762c:	6f697472 6166206e 64656c69 5f5f203a     rtion failed: __
8001763c:	65646f6e 203d2120 4c4c554e 20262620     node != NULL && 
8001764c:	6f6e5f5f 3e2d6564 6f5f6e69 21207370     __node->in_ops !
8001765c:	554e203d 26204c4c 5f5f2026 65646f6e     = NULL && __node
8001766c:	6e693e2d 73706f5f 6f763e2d 706f5f70     ->in_ops->vop_op
8001767c:	21206e65 554e203d 00004c4c 6e65706f     en != NULL..open
8001768c:	00000000 65737361 6f697472 6166206e     ....assertion fa
8001769c:	64656c69 5f5f203a 65646f6e 203d2120     iled: __node != 
800176ac:	4c4c554e 20262620 6f6e5f5f 3e2d6564     NULL && __node->
800176bc:	6f5f6e69 21207370 554e203d 26204c4c     in_ops != NULL &
800176cc:	5f5f2026 65646f6e 6e693e2d 73706f5f     & __node->in_ops
800176dc:	6f763e2d 72745f70 61636e75 21206574     ->vop_truncate !
800176ec:	554e203d 00004c4c 6e757274 65746163     = NULL..truncate
800176fc:	00000000 6e72656b 2f73662f 2f736676     ....kern/fs/vfs/
8001770c:	6c736676 756b6f6f 00632e70 65737361     vfslookup.c.asse
8001771c:	6f697472 6166206e 64656c69 6f6e203a     rtion failed: no
8001772c:	3e2d6564 665f6e69 3d212073 4c554e20     de->in_fs != NUL
8001773c:	0000004c 65737361 6f697472 6166206e     L...assertion fa
8001774c:	64656c69 5f5f203a 65646f6e 203d2120     iled: __node != 
8001775c:	4c4c554e 20262620 6f6e5f5f 3e2d6564     NULL && __node->
8001776c:	6f5f6e69 21207370 554e203d 26204c4c     in_ops != NULL &
8001777c:	5f5f2026 65646f6e 6e693e2d 73706f5f     & __node->in_ops
8001778c:	6f763e2d 6f6c5f70 70756b6f 203d2120     ->vop_lookup != 
8001779c:	4c4c554e 00000000 6b6f6f6c 00007075     NULL....lookup..
800177ac:	6e72656b 2f73662f 2f736676 70736676     kern/fs/vfs/vfsp
800177bc:	2e687461 00000063 65737361 6f697472     ath.c...assertio
800177cc:	6166206e 64656c69 5f5f203a 65646f6e     n failed: __node
800177dc:	203d2120 4c4c554e 20262620 6f6e5f5f      != NULL && __no
800177ec:	3e2d6564 6f5f6e69 21207370 554e203d     de->in_ops != NU
800177fc:	26204c4c 5f5f2026 65646f6e 6e693e2d     LL && __node->in
8001780c:	73706f5f 6f763e2d 65675f70 70797474     _ops->vop_gettyp
8001781c:	3d212065 4c554e20 0000004c 74746567     e != NULL...gett
8001782c:	00657079 65737361 6f697472 6166206e     ype.assertion fa
8001783c:	64656c69 5f5f203a 65646f6e 203d2120     iled: __node != 
8001784c:	4c4c554e 20262620 6f6e5f5f 3e2d6564     NULL && __node->
8001785c:	6f5f6e69 21207370 554e203d 26204c4c     in_ops != NULL &
8001786c:	5f5f2026 65646f6e 6e693e2d 73706f5f     & __node->in_ops
8001787c:	6f763e2d 616e5f70 6966656d 2120656c     ->vop_namefile !
8001788c:	554e203d 00004c4c 656d616e 656c6966     = NULL..namefile
8001789c:	00000000 6e72656b 2f73662f 2f736673     ....kern/fs/sfs/
800178ac:	6d746962 632e7061 00000000 65737361     bitmap.c....asse
800178bc:	6f697472 6166206e 64656c69 626e203a     rtion failed: nb
800178cc:	20737469 30203d21 20262620 7469626e     its != 0 && nbit
800178dc:	202b2073 44524f57 5449425f 203e2053     s + WORD_BITS > 
800178ec:	7469626e 00000073 65737361 6f697472     nbits...assertio
800178fc:	6166206e 64656c69 626e203a 20737469     n failed: nbits 
8001790c:	4f57202f 425f4452 20535449 69203d3d     / WORD_BITS == i
8001791c:	00000078 65737361 6f697472 6166206e     x...assertion fa
8001792c:	64656c69 766f203a 69627265 3e207374     iled: overbits >
8001793c:	26203020 766f2026 69627265 3c207374      0 && overbits <
8001794c:	524f5720 49425f44 00005354 65737361      WORD_BITS..asse
8001795c:	6f697472 6166206e 64656c69 0030203a     rtion failed: 0.
8001796c:	65737361 6f697472 6166206e 64656c69     assertion failed
8001797c:	6e69203a 20786564 6962203c 70616d74     : index < bitmap
8001798c:	626e3e2d 00737469 65737361 6f697472     ->nbits.assertio
8001799c:	6166206e 64656c69 2821203a 726f772a     n failed: !(*wor
800179ac:	20262064 6b73616d 00000029 6b736964     d & mask)...disk
800179bc:	00000030 6e72656b 2f73662f 2f736673     0...kern/fs/sfs/
800179cc:	2e736673 00000063 6c696166 203a6465     sfs.c...failed: 
800179dc:	3a736673 73667320 756f6d5f 203a746e     sfs: sfs_mount: 
800179ec:	0a2e6525 00000000 6e72656b 2f73662f     %e......kern/fs/
800179fc:	2f736673 5f736673 632e7366 00000000     sfs/sfs_fs.c....
80017a0c:	65737361 6f697472 6166206e 64656c69     assertion failed
80017a1c:	5f5f203a 21207366 554e203d 26204c4c     : __fs != NULL &
80017a2c:	68632026 5f6b6365 745f7366 28657079     & check_fs_type(
80017a3c:	73665f5f 6673202c 00002973 3a736673     __fs, sfs)..sfs:
80017a4c:	6f727720 6d20676e 63696761 206e6920      wrong magic in 
80017a5c:	65707573 6f6c6272 202e6b63 38302528     superblock. (%08
80017a6c:	68732078 646c756f 20656220 78383025     x should be %08x
80017a7c:	000a2e29 3a736673 20736620 20736168     )...sfs: fs has 
80017a8c:	62207525 6b636f6c 64202c73 63697665     %u blocks, devic
80017a9c:	61682065 75252073 6f6c6220 2e736b63     e has %u blocks.
80017aac:	0000000a 65737361 6f697472 6166206e     ....assertion fa
80017abc:	64656c69 6164203a 21206174 554e203d     iled: data != NU
80017acc:	26204c4c 656c2026 3d3d206e 6c626e20     LL && len == nbl
80017adc:	2a20736b 53465320 4b4c425f 455a4953     ks * SFS_BLKSIZE
80017aec:	00000000 21200a0a 66732121 6f645f73     ...... !!!sfs_do
80017afc:	756f6d5f 203a746e 73756e75 625f6465     _mount: unused_b
80017b0c:	6b636f6c 64253d73 70757320 752e7265     locks=%d super.u
80017b1c:	6573756e 6c625f64 736b636f 2064253d     nused_blocks=%d 
80017b2c:	65657266 5f70616d 657a6973 69626e5f     freemap_size_nbi
80017b3c:	253d7374 000a0a64 3a736673 756f6d20     ts=%d...sfs: mou
80017b4c:	203a746e 27732527 64252820 2f64252f     nt: '%s' (%d/%d/
80017b5c:	0a296425 00000000 65737361 6f697472     %d).....assertio
80017b6c:	6166206e 64656c69 7321203a 3e2d7366     n failed: !sfs->
80017b7c:	65707573 69645f72 00797472 3a736673     super_dirty.sfs:
80017b8c:	656c6320 70756e61 2527203a 28202773      cleanup: '%s' (
80017b9c:	252f6425 64252f64 00000a29 3a736673     %d/%d/%d)...sfs:
80017bac:	6e797320 72652063 3a726f72 73252720      sync error: '%s
80017bbc:	25203a27 000a2e65 64616f6c 73667320     ': %e...load sfs
80017bcc:	6f6f7220 61662074 64656c69 6525203a      root failed: %e
80017bdc:	00000000 6e72656b 2f73662f 2f736673     ....kern/fs/sfs/
80017bec:	5f736673 646f6e69 00632e65 65737361     sfs_inode.c.asse
80017bfc:	6f697472 6166206e 64656c69 5f5f203a     rtion failed: __
80017c0c:	65646f6e 203d2120 4c4c554e 20262620     node != NULL && 
80017c1c:	63656863 6e695f6b 5f65646f 65707974     check_inode_type
80017c2c:	6e5f5f28 2c65646f 73667320 6f6e695f     (__node, sfs_ino
80017c3c:	00296564 61766e69 2064696c 656c6966     de).invalid file
80017c4c:	70797420 64252065 00000a2e 5f736673      type %d....sfs_
80017c5c:	636f6c62 6e695f6b 3a657375 6c616320     block_inuse: cal
80017c6c:	2064656c 2074756f 7220666f 65676e61     led out of range
80017c7c:	2c302820 29752520 2e752520 0000000a      (0, %u) %u.....
80017c8c:	65737361 6f697472 6166206e 64656c69     assertion failed
80017c9c:	6673203a 733e2d73 72657075 756e752e     : sfs->super.unu
80017cac:	5f646573 636f6c62 3e20736b 00003020     sed_blocks > 0..
80017cbc:	65737361 6f697472 6166206e 64656c69     assertion failed
80017ccc:	6673203a 6c625f73 5f6b636f 73756e69     : sfs_block_inus
80017cdc:	66732865 2a202c73 5f6f6e69 726f7473     e(sfs, *ino_stor
80017cec:	00002965 65737361 6f697472 6166206e     e)..assertion fa
80017cfc:	64656c69 6673203a 6c625f73 5f6b636f     iled: sfs_block_
80017d0c:	73756e69 66732865 69202c73 00296f6e     inuse(sfs, ino).
80017d1c:	65737361 6f697472 6166206e 64656c69     assertion failed
80017d2c:	6e69203a 20786564 4653203c 4c425f53     : index < SFS_BL
80017d3c:	454e5f4b 5952544e 00000000 65737361     K_NENTRY....asse
80017d4c:	6f697472 6166206e 64656c69 6973203a     rtion failed: si
80017d5c:	723e2d6e 616c6365 635f6d69 746e756f     n->reclaim_count
80017d6c:	30203e20 00000000 65737361 6f697472      > 0....assertio
80017d7c:	6166206e 64656c69 6e69203a 20786564     n failed: index 
80017d8c:	64203d3c 3e2d6e69 636f6c62 0000736b     <= din->blocks..
80017d9c:	65737361 6f697472 6166206e 64656c69     assertion failed
80017dac:	6964203a 693e2d6e 7269646e 20746365     : din->indirect 
80017dbc:	30203d3d 00000000 65737361 6f697472     == 0....assertio
80017dcc:	6166206e 64656c69 6e69203a 3d3d206f     n failed: ino ==
80017ddc:	7c203020 6673207c 6c625f73 5f6b636f      0 || sfs_block_
80017dec:	73756e69 66732865 69202c73 00296f6e     inuse(sfs, ino).
80017dfc:	65737361 6f697472 6166206e 64656c69     assertion failed
80017e0c:	535f203a 495f5346 45444f4e 5445475f     : _SFS_INODE_GET
80017e1c:	5059545f 69642845 2120296e 4653203d     _TYPE(din) != SF
80017e2c:	59545f53 445f4550 00005249 65737361     S_TYPE_DIR..asse
80017e3c:	6f697472 6166206e 64656c69 535f203a     rtion failed: _S
80017e4c:	495f5346 45444f4e 5445475f 5059545f     FS_INODE_GET_TYP
80017e5c:	69732845 643e2d6e 20296e69 53203d3d     E(sin->din) == S
80017e6c:	545f5346 5f455059 20524944 28202626     FS_TYPE_DIR && (
80017e7c:	746f6c73 203d3e20 26262030 6f6c7320     slot >= 0 && slo
80017e8c:	203c2074 2d6e6973 6e69643e 6c623e2d     t < sin->din->bl
80017e9c:	736b636f 00000029 65737361 6f697472     ocks)...assertio
80017eac:	6166206e 64656c69 6274203a 20736b6c     n failed: tblks 
80017ebc:	64203d3d 3e2d6e69 636f6c62 0000736b     == din->blocks..
80017ecc:	65737361 6f697472 6166206e 64656c69     assertion failed
80017edc:	6964203a 623e2d6e 6b636f6c 3d212073     : din->blocks !=
80017eec:	00003020 65737361 6f697472 6166206e      0..assertion fa
80017efc:	64656c69 6673203a 6c625f73 5f6b636f     iled: sfs_block_
80017f0c:	73756e69 66732865 65202c73 2029746e     inuse(sfs, ent) 
80017f1c:	69202626 7865646e 53203c20 425f5346     && index < SFS_B
80017f2c:	4e5f4b4c 52544e45 00000059 65737361     LK_NENTRY...asse
80017f3c:	6f697472 6166206e 64656c69 6964203a     rtion failed: di
80017f4c:	623e2d6e 6b636f6c 3d3d2073 6c627420     n->blocks == tbl
80017f5c:	0000736b 65737361 6f697472 6166206e     ks..assertion fa
80017f6c:	64656c69 535f203a 495f5346 45444f4e     iled: _SFS_INODE
80017f7c:	5445475f 494c4e5f 28534b4e 296e6964     _GET_NLINKS(din)
80017f8c:	203d2120 00000030 65737361 6f697472      != 0...assertio
80017f9c:	6166206e 64656c69 7473203a 6e656c72     n failed: strlen
80017fac:	6d616e28 3c202965 4653203d 414d5f53     (name) <= SFS_MA
80017fbc:	4e465f58 5f454d41 004e454c 00002e2e     X_FNAME_LEN.....
80017fcc:	65737361 6f697472 6166206e 64656c69     assertion failed
80017fdc:	6e69203a 3d21206f 6e697320 6e693e2d     : ino != sin->in
80017fec:	2626206f 46535f20 4e495f53 5f45444f     o && _SFS_INODE_
80017ffc:	5f544547 45505954 6e697328 69643e2d     GET_TYPE(sin->di
8001800c:	3d20296e 4653203d 59545f53 445f4550     n) == SFS_TYPE_D
8001801c:	00005249 65737361 6f697472 6166206e     IR..assertion fa
8001802c:	64656c69 702a203a 20687461 27203d21     iled: *path != '
8001803c:	2027305c 2a202626 68746170 203d2120     \0' && *path != 
8001804c:	00272f27 6e72656b 2f73662f 2f736673     '/'.kern/fs/sfs/
8001805c:	5f736673 632e6f69 00000000 65737361     sfs_io.c....asse
8001806c:	6f697472 6166206e 64656c69 6228203a     rtion failed: (b
8001807c:	6f6e6b6c 203d2120 7c7c2030 68632120     lkno != 0 || !ch
8001808c:	296b6365 20262620 6e6b6c62 203c206f     eck) && blkno < 
8001809c:	2d736673 7075733e 622e7265 6b636f6c     sfs->super.block
800180ac:	00000073 65737361 6f697472 6166206e     s...assertion fa
800180bc:	64656c69 666f203a 74657366 203d3e20     iled: offset >= 
800180cc:	26262030 66666f20 20746573 4653203c     0 && offset < SF
800180dc:	4c425f53 5a49534b 26262045 66666f20     S_BLKSIZE && off
800180ec:	20746573 656c202b 3d3c206e 53465320     set + len <= SFS
800180fc:	4b4c425f 455a4953 00000000 6e72656b     _BLKSIZE....kern
8001810c:	2f73662f 73766564 7665642f 0000632e     /fs/devs/dev.c..
8001811c:	6e72656b 2f73662f 73766564 7665642f     kern/fs/devs/dev
8001812c:	7369645f 632e306b 00000000 65737361     _disk0.c....asse
8001813c:	6f697472 6166206e 64656c69 6f63203a     rtion failed: co
8001814c:	64656970 203d2120 26262030 706f6320     pied != 0 && cop
8001815c:	20646569 72203d3c 64697365 20262620     ied <= resid && 
8001816c:	69706f63 25206465 53494420 425f304b     copied % DISK0_B
8001817c:	49534b4c 3d20455a 0030203d 6b736964     LKSIZE == 0.disk
8001818c:	77203a30 65746972 6b6c6220 3d206f6e     0: write blkno =
8001819c:	20642520 63657328 206f6e74 6425203d      %d (sectno = %d
800181ac:	6e202c29 736b6c62 25203d20 6e282064     ), nblks = %d (n
800181bc:	73636573 25203d20 203a2964 30257830     secs = %d): 0x%0
800181cc:	0a2e7838 00000000 6b736964 72203a30     8x......disk0: r
800181dc:	20646165 6e6b6c62 203d206f 28206425     ead blkno = %d (
800181ec:	74636573 3d206f6e 29642520 626e202c     sectno = %d), nb
800181fc:	20736b6c 6425203d 736e2820 20736365     lks = %d (nsecs 
8001820c:	6425203d 30203a29 38302578 000a2e78     = %d): 0x%08x...
8001821c:	65737361 6f697472 6166206e 64656c69     assertion failed
8001822c:	6f63203a 64656970 203d3d20 6e656c61     : copied == alen
8001823c:	20262620 69706f63 25206465 53494420      && copied % DIS
8001824c:	425f304b 49534b4c 3d20455a 0030203d     K0_BLKSIZE == 0.
8001825c:	6b736964 64203a30 635f7665 74616572     disk0: dev_creat
8001826c:	6f6e5f65 0a2e6564 00000000 6b736964     e_node......disk
8001827c:	65642030 65636976 6e736920 61207427     0 device isn't a
8001828c:	6c696176 656c6261 00000a2e 6b736964     vailable....disk
8001829c:	6c612030 20636f6c 66667562 66207265     0 alloc buffer f
800182ac:	656c6961 000a2e64 6b736964 76203a30     ailed...disk0: v
800182bc:	615f7366 645f6464 203a7665 0a2e6525     fs_add_dev: %e..
800182cc:	00000000 6e72656b 2f73662f 73766564     ....kern/fs/devs
800182dc:	7665642f 6474735f 632e6e69 00000000     /dev_stdin.c....
800182ec:	69647473 64203a6e 635f7665 74616572     stdin: dev_creat
800182fc:	6f6e5f65 0a2e6564 00000000 69647473     e_node......stdi
8001830c:	0000006e 69647473 76203a6e 615f7366     n...stdin: vfs_a
8001831c:	645f6464 203a7665 0a2e6525 00000000     dd_dev: %e......
8001832c:	6e72656b 2f73662f 73766564 7665642f     kern/fs/devs/dev
8001833c:	6474735f 2e74756f 00000063 6f647473     _stdout.c...stdo
8001834c:	203a7475 5f766564 61657263 6e5f6574     ut: dev_create_n
8001835c:	2e65646f 0000000a 6f647473 00007475     ode.....stdout..
8001836c:	6f647473 203a7475 5f736676 5f646461     stdout: vfs_add_
8001837c:	3a766564 2e652520 0000000a 00000000     dev: %e.........
	...

80019000 <__exception_vector>:
80019000:	1000e892 00000000 1000e892 00000000     ................
80019010:	1000e890 00000000 1000e88e 00000000     ................
80019020:	1000e88c 00000000 1000e88a 00000000     ................
80019030:	1000e888 00000000 1000e886 00000000     ................
80019040:	1000e884 00000000 1000e882 00000000     ................
80019050:	1000e880 00000000 1000e87e 00000000     ........~.......
80019060:	1000e87c 00000000 1000e87a 00000000     |.......z.......
80019070:	1000e878 00000000 1000e876 00000000     x.......v.......
80019080:	1000e874 00000000 1000e872 00000000     t.......r.......
80019090:	1000e870 00000000 1000e86e 00000000     p.......n.......
800190a0:	1000e86c 00000000 1000e86a 00000000     l.......j.......
800190b0:	1000e868 00000000 1000e866 00000000     h.......f.......
800190c0:	1000e864 00000000 1000e862 00000000     d.......b.......
800190d0:	1000e860 00000000 1000e85e 00000000     `.......^.......
800190e0:	1000e85c 00000000 1000e85a 00000000     \.......Z.......
800190f0:	1000e858 00000000 1000e856 00000000     X.......V.......
80019100:	1000e854 00000000 1000e852 00000000     T.......R.......
80019110:	1000e850 00000000 1000e84e 00000000     P.......N.......
80019120:	1000e84c 00000000 1000e84a 00000000     L.......J.......
80019130:	1000e848 00000000 1000e846 00000000     H.......F.......
80019140:	1000e844 00000000 1000e842 00000000     D.......B.......
80019150:	1000e840 00000000 1000e83e 00000000     @.......>.......
80019160:	1000e83c 00000000 1000e83a 00000000     <.......:.......
80019170:	1000e838 00000000 1000e836 00000000     8.......6.......
80019180:	1000e836 00000000 1000e832 00000000     6.......2.......
80019190:	1000e830 00000000 1000e82e 00000000     0...............
800191a0:	1000e82c 00000000 1000e82a 00000000     ,.......*.......
800191b0:	1000e828 00000000 1000e826 00000000     (.......&.......
800191c0:	1000e824 00000000 1000e822 00000000     $.......".......
800191d0:	1000e820 00000000 1000e81e 00000000      ...............
800191e0:	1000e81c 00000000 1000e81a 00000000     ................
800191f0:	1000e818 00000000 1000e816 00000000     ................
80019200:	1000e814 00000000 1000e812 00000000     ................
80019210:	1000e810 00000000 1000e80e 00000000     ................
80019220:	1000e80c 00000000 1000e80a 00000000     ................
80019230:	1000e808 00000000 1000e806 00000000     ................
80019240:	1000e804 00000000 1000e802 00000000     ................
80019250:	1000e800 00000000 1000e7fe 00000000     ................
80019260:	1000e7fc 00000000 1000e7fa 00000000     ................
80019270:	1000e7f8 00000000 1000e7f6 00000000     ................
80019280:	1000e7f4 00000000 1000e7f2 00000000     ................
80019290:	1000e7f0 00000000 1000e7ee 00000000     ................
800192a0:	1000e7ec 00000000 1000e7ea 00000000     ................
800192b0:	1000e7e8 00000000 1000e7e6 00000000     ................
800192c0:	1000e7e4 00000000 1000e7e2 00000000     ................
800192d0:	1000e7e0 00000000 1000e7de 00000000     ................
800192e0:	1000e7dc 00000000 1000e7da 00000000     ................
800192f0:	1000e7d8 00000000 1000e7d6 00000000     ................
80019300:	1000e7d4 00000000 1000e7d2 00000000     ................
80019310:	1000e7d0 00000000 1000e7ce 00000000     ................
80019320:	1000e7cc 00000000 1000e7ca 00000000     ................
80019330:	1000e7c8 00000000 1000e7c6 00000000     ................
80019340:	1000e7c4 00000000 1000e7c2 00000000     ................
80019350:	1000e7c0 00000000 1000e7be 00000000     ................
80019360:	1000e7bc 00000000 1000e7ba 00000000     ................
80019370:	1000e7b8 00000000 1000e7b6 00000000     ................
80019380:	1000e7b4 00000000 1000e7b2 00000000     ................
80019390:	1000e7b0 00000000 1000e7ae 00000000     ................
800193a0:	1000e7ac 00000000 1000e7aa 00000000     ................
800193b0:	1000e7a8 00000000 1000e7a6 00000000     ................
800193c0:	1000e7a4 00000000 1000e7a2 00000000     ................
800193d0:	1000e7a0 00000000 1000e79e 00000000     ................
800193e0:	1000e79c 00000000 1000e79a 00000000     ................
800193f0:	1000e798 00000000 1000e796 00000000     ................
